

Microchip MPLAB XC8 Assembler V2.40 build 20220703182018 
                                                                                               Sun Aug 06 14:05:50 2023

Microchip MPLAB XC8 C Compiler v2.40 (Free license) build 20220703182018 Og1 
     1                           	processor	18F16Q40
     2                           	fnconf	rparam,??,?,0
     3                           	pagewidth 120
     4                           	opt	flic
     5                           	psect	text0,global,reloc=2,class=CODE,delta=1
     6                           	psect	cinit,global,reloc=2,class=CODE,delta=1
     7                           	psect	bssCOMRAM,global,class=COMRAM,space=1,delta=1,lowdata,noexec
     8                           	psect	cstackBANK5,global,class=BANK5,space=1,delta=1,lowdata,noexec
     9                           	psect	cstackCOMRAM,global,class=COMRAM,space=1,delta=1,lowdata,noexec
    10                           	psect	text1,global,reloc=2,class=CODE,delta=1
    11                           	psect	text2,global,reloc=2,class=CODE,delta=1,group=1
    12                           	psect	text3,global,reloc=2,class=CODE,delta=1,group=1
    13                           	psect	text4,global,reloc=2,class=CODE,delta=1
    14                           	psect	text5,global,reloc=2,class=CODE,delta=1
    15                           	psect	text6,global,reloc=2,class=CODE,delta=1
    16                           	psect	text7,global,reloc=2,class=CODE,delta=1
    17                           	psect	text8,global,reloc=2,class=CODE,delta=1
    18                           	psect	text9,global,reloc=2,class=CODE,delta=1
    19                           	psect	text10,global,reloc=2,class=CODE,delta=1,group=1
    20                           	psect	text11,global,reloc=2,class=CODE,delta=1
    21                           	psect	text12,global,reloc=2,class=CODE,delta=1
    22                           	psect	text13,global,reloc=2,class=CODE,delta=1
    23                           	psect	text14,global,reloc=2,class=CODE,delta=1
    24                           	psect	text15,global,reloc=2,class=CODE,delta=1
    25                           	psect	text16,global,reloc=2,class=CODE,delta=1
    26                           	psect	text17,global,reloc=2,class=CODE,delta=1
    27                           	psect	text18,global,reloc=2,class=CODE,delta=1
    28                           	psect	intsave_regs,global,class=BIGRAM,space=1,delta=1,noexec
    29                           	psect	rparam,global,class=COMRAM,space=1,delta=1,noexec
    30                           	psect	idloc,global,abs,ovrld,class=IDLOC,space=5,delta=1,noexec
    31                           	psect	config,global,abs,ovrld,class=CONFIG,space=4,delta=1,noexec
    32                           	dabs	1,0x1500,2,_bufferRAM
    33   000000                     
    34                           ; Version 2.30
    35                           ; Generated 20/08/2020 GMT
    36                           ; 
    37                           ; Copyright © 2020, Microchip Technology Inc. and its subsidiaries ("Microchip")
    38                           ; All rights reserved.
    39                           ; 
    40                           ; This software is developed by Microchip Technology Inc. and its subsidiaries ("Microch
      +                          ip").
    41                           ; 
    42                           ; Redistribution and use in source and binary forms, with or without modification, are
    43                           ; permitted provided that the following conditions are met:
    44                           ; 
    45                           ;     1. Redistributions of source code must retain the above copyright notice, this lis
      +                          t of
    46                           ;        conditions and the following disclaimer.
    47                           ; 
    48                           ;     2. Redistributions in binary form must reproduce the above copyright notice, this 
      +                          list
    49                           ;        of conditions and the following disclaimer in the documentation and/or other
    50                           ;        materials provided with the distribution. Publication is not required when
    51                           ;        this file is used in an embedded application.
    52                           ; 
    53                           ;     3. Microchip's name may not be used to endorse or promote products derived from th
      +                          is
    54                           ;        software without specific prior written permission.
    55                           ; 
    56                           ; THIS SOFTWARE IS PROVIDED BY MICROCHIP "AS IS" AND ANY EXPRESS OR IMPLIED WARRANTIES,
    57                           ; INCLUDING, BUT NOT LIMITED TO, THE IMPLIED WARRANTIES OF MERCHANTABILITY AND FITNESS F
      +                          OR
    58                           ; PURPOSE ARE DISCLAIMED.  IN NO EVENT SHALL MICROCHIP BE LIABLE FOR ANY DIRECT, INDIREC
      +                          T,
    59                           ; INCIDENTAL, SPECIAL, EXEMPLARY, OR CONSEQUENTIAL DAMAGES (INCLUDING BUT NOT LIMITED TO
    60                           ; PROCUREMENT OF SUBSTITUTE GOODS OR SERVICES; LOSS OF USE, DATA OR PROFITS; OR BUSINESS
    61                           ; INTERRUPTION) HOWSOEVER CAUSED AND ON ANY THEORY OF LIABILITY, WHETHER IN CONTRACT, ST
      +                          RICT
    62                           ; LIABILITY, OR TORT (INCLUDING NEGLIGENCE OR OTHERWISE) ARISING IN ANY WAY OUT OF THE U
      +                          SE OF
    63                           ; THIS SOFTWARE, EVEN IF ADVISED OF THE POSSIBILITY OF SUCH DAMAGE.
    64                           ; 
    65                           ; 
    66                           ; Code-generator required, PIC18F16Q40 Definitions
    67                           ; 
    68                           ; SFR Addresses
    69   000000                     _PORTBbits	set	1231
    70   000000                     _NVMLOCK	set	66
    71   000000                     _OSCTUNE	set	176
    72   000000                     _OSCFRQ	set	177
    73   000000                     _OSCEN	set	179
    74   000000                     _ADERRL	set	989
    75   000000                     _ADERRH	set	990
    76   000000                     _ADPREVL	set	1000
    77   000000                     _ADPREVH	set	1001
    78   000000                     _ADFLTRL	set	993
    79   000000                     _ADFLTRH	set	994
    80   000000                     _ADACCL	set	995
    81   000000                     _ADACCH	set	996
    82   000000                     _ADCNT	set	998
    83   000000                     _ADRESL	set	1002
    84   000000                     _ADRESH	set	1003
    85   000000                     _ADCON0	set	1011
    86   000000                     _ADCON1	set	1012
    87   000000                     _ADPREH	set	1010
    88   000000                     _ADPREL	set	1009
    89   000000                     _ADCAP	set	1008
    90   000000                     _ADACQH	set	1007
    91   000000                     _ADPCH	set	1004
    92   000000                     _ADRPT	set	999
    93   000000                     _ADACCU	set	997
    94   000000                     _ADSTPTH	set	992
    95   000000                     _ADSTPTL	set	991
    96   000000                     _ADUTHH	set	988
    97   000000                     _ADUTHL	set	987
    98   000000                     _ADLTHH	set	986
    99                           
   100 ;;
   101 ;;Main: autosize = 0, tempsize = 5, incstack = 0, save=0
   102 ;;
   103 ;; *************** function _main *****************
   104 ;; Defined at:
   105 ;;		line 42 in file "main.c"
   106 ;; Parameters:    Size  Location     Type
   107 ;;		None
   108 ;; Auto vars:     Size  Location     Type
   109 ;;  timeout5sPre    2   11[BANK5 ] unsigned short 
   110 ;;  timeout5sPre    2    9[BANK5 ] unsigned short 
   111 ;;  timeout5sPre    2    7[BANK5 ] unsigned short 
   112 ;;  timeout5sPre    2    5[BANK5 ] unsigned short 
   113 ;;  timeout10s      2    3[BANK5 ] unsigned short 
   114 ;;  timeout5s       2    0[BANK5 ] unsigned short 
   115 ;;  state           1   51[BANK5 ] enum E13367
   116 ;;  blue            1   50[BANK5 ] unsigned char 
   117 ;;  green           1   49[BANK5 ] unsigned char 
   118 ;;  red             1   48[BANK5 ] unsigned char 
   119 ;;  white           1   47[BANK5 ] unsigned char 
   120 ;;  blueMode1       1   46[BANK5 ] unsigned char 
   121 ;;  greenMode1      1   45[BANK5 ] unsigned char 
   122 ;;  redMode1        1   44[BANK5 ] unsigned char 
   123 ;;  led4Blink       1   43[BANK5 ] _Bool 
   124 ;;  led3Blink       1   42[BANK5 ] _Bool 
   125 ;;  led2Blink       1   41[BANK5 ] _Bool 
   126 ;;  led1Blink       1   40[BANK5 ] _Bool 
   127 ;;  blueMode4       1   39[BANK5 ] unsigned char 
   128 ;;  greenMode4      1   38[BANK5 ] unsigned char 
   129 ;;  redMode4        1   37[BANK5 ] unsigned char 
   130 ;;  blueMode3       1   36[BANK5 ] unsigned char 
   131 ;;  greenMode3      1   35[BANK5 ] unsigned char 
   132 ;;  redMode3        1   34[BANK5 ] unsigned char 
   133 ;;  blueMode2       1   33[BANK5 ] unsigned char 
   134 ;;  greenMode2      1   32[BANK5 ] unsigned char 
   135 ;;  redMode2        1   31[BANK5 ] unsigned char 
   136 ;;  whiteMode1      1   30[BANK5 ] unsigned char 
   137 ;;  taster3Flag     1   29[BANK5 ] unsigned char 
   138 ;;  taster4Flag     1   28[BANK5 ] unsigned char 
   139 ;;  taster2Flag     1   27[BANK5 ] unsigned char 
   140 ;;  taster1Flag     1   26[BANK5 ] unsigned char 
   141 ;;  whiteAdj        1   25[BANK5 ] _Bool 
   142 ;;  blueAdj         1   24[BANK5 ] _Bool 
   143 ;;  greenAdj        1   23[BANK5 ] _Bool 
   144 ;;  redAdj          1   22[BANK5 ] _Bool 
   145 ;;  timeout500ms    1   21[BANK5 ] unsigned char 
   146 ;;  timeout250ms    1   20[BANK5 ] unsigned char 
   147 ;;  led4StateBli    1   19[BANK5 ] _Bool 
   148 ;;  led3StateBli    1   18[BANK5 ] _Bool 
   149 ;;  led2StateBli    1   17[BANK5 ] _Bool 
   150 ;;  led1StateBli    1   16[BANK5 ] _Bool 
   151 ;;  whiteMode4      1   15[BANK5 ] unsigned char 
   152 ;;  whiteMode3      1   14[BANK5 ] unsigned char 
   153 ;;  whiteMode2      1   13[BANK5 ] unsigned char 
   154 ;;  timeout100ms    1    2[BANK5 ] unsigned char 
   155 ;;  timeout1s       1    0        unsigned char 
   156 ;; Return value:  Size  Location     Type
   157 ;;                  1    wreg      void 
   158 ;; Registers used:
   159 ;;		wreg, status,2, status,0, cstack
   160 ;; Tracked objects:
   161 ;;		On entry : 0/0
   162 ;;		On exit  : 0/0
   163 ;;		Unchanged: 0/0
   164 ;; Data sizes:     COMRAM   BANK5   BANK6   BANK7   BANK8   BANK9  BANK10  BANK11  BANK12  BANK13  BANK14  BANK15  BANK1
      +6  BANK17  BANK18  BANK19  BANK20  BANK21
   165 ;;      Params:         0       0       0       0       0       0       0       0       0       0       0       0       
      +0       0       0       0       0       0
   166 ;;      Locals:         0      52       0       0       0       0       0       0       0       0       0       0       
      +0       0       0       0       0       0
   167 ;;      Temps:          5       0       0       0       0       0       0       0       0       0       0       0       
      +0       0       0       0       0       0
   168 ;;      Totals:         5      52       0       0       0       0       0       0       0       0       0       0       
      +0       0       0       0       0       0
   169 ;;Total ram usage:       57 bytes
   170 ;; Hardware stack levels required when called: 4
   171 ;; This function calls:
   172 ;;		_ADCC_DischargeSampleCapacitor
   173 ;;		_ADCC_GetSingleConversion
   174 ;;		_DATAEE_ReadByte
   175 ;;		_DATAEE_WriteByte
   176 ;;		_LED_WriteFull
   177 ;;		_SYSTEM_Initialize
   178 ;;		_map
   179 ;; This function is called by:
   180 ;;		Startup code after reset
   181 ;; This function uses a non-reentrant model
   182 ;;
   183                           
   184                           	psect	text0
   185   00DF5E                     __ptext0:
   186                           	callstack 0
   187   000000                     _ADCON1bits	set	1012
   188   000000                     _ADSTATbits	set	1015
   189   000000                     _ADCON2bits	set	1013
   190   000000                     _ADCON3bits	set	1014
   191   000000                     _ADCON0bits	set	1011
   192   000000                     _LATBbits	set	1215
   193   000000                     _LATAbits	set	1214
   194   000000                     _LATCbits	set	1216
   195   000000                     _NVMCON0bits	set	64
   196   000000                     _NVMCON1bits	set	65
   197   000000                     _NVMADRL	set	67
   198   000000                     _NVMADRH	set	68
   199   000000                     _NVMADRU	set	69
   200   000000                     _PMD0	set	99
   201   000000                     _ACTCON	set	172
   202   000000                     _OSCCON1	set	173
   203   000000                     _ADLTHL	set	985
   204   000000                     _ANSELA	set	1024
   205   000000                     _ANSELB	set	1032
   206   000000                     _ANSELC	set	1040
   207   000000                     _LATA	set	1214
   208   000000                     _TRISA	set	1222
   209   000000                     _LATC	set	1216
   210   000000                     _LATB	set	1215
   211   000000                     _PORTAbits	set	1230
   212   000000                     _PORTCbits	set	1232
   213   000000                     _INTCON0bits	set	1238
   214   000000                     _TABLAT	set	1269
   215   000000                     _TBLPTRL	set	1270
   216   000000                     _TBLPTRH	set	1271
   217   000000                     _TBLPTRU	set	1272
   218   000000                     _TRISC	set	1224
   219   000000                     _TRISB	set	1223
   220   000000                     _PIR0bits	set	1203
   221   000000                     _INLVLC	set	1044
   222   000000                     _SLRCONC	set	1043
   223   000000                     _ODCONC	set	1042
   224   000000                     _WPUC	set	1041
   225   000000                     _INLVLB	set	1036
   226   000000                     _SLRCONB	set	1035
   227   000000                     _ODCONB	set	1034
   228   000000                     _WPUB	set	1033
   229   000000                     _INLVLA	set	1028
   230   000000                     _SLRCONA	set	1027
   231   000000                     _ODCONA	set	1026
   232   000000                     _WPUA	set	1025
   233   000000                     _ADACQL	set	1006
   234   000000                     _ADCLK	set	1018
   235   000000                     _ADACT	set	1017
   236   000000                     _ADREF	set	1016
   237   000000                     _ADSTAT	set	1015
   238   000000                     _ADCON3	set	1014
   239   000000                     _ADCON2	set	1013
   240   000000                     _OSCCON3	set	175
   241   000000                     _PMD5	set	104
   242   000000                     _PMD4	set	103
   243   000000                     _PMD3	set	102
   244   000000                     _PMD2	set	101
   245   000000                     _PMD1	set	100
   246   000000                     _NVMDATL	set	70
   247   00DF5E                     _main:
   248                           	callstack 124
   249   00DF5E                     
   250                           ;main.c: 45:     SYSTEM_Initialize();
   251   00DF5E  ECE0  F06C         	call	_SYSTEM_Initialize	;wreg free
   252   00DF62                     
   253                           ;main.c: 47:     uint8_t red, green, blue, white = 0;
   254   00DF62  0E00               	movlw	0
   255   00DF64  0105               	movlb	5	; () banked
   256   00DF66  6F8F               	movwf	main@white& (0+255),b
   257   00DF68                     
   258                           ; BSR set to: 5
   259                           ;main.c: 48:     uint8_t redMode1, greenMode1, blueMode1, whiteMode1 = 20;
   260   00DF68  0E14               	movlw	20
   261   00DF6A  6F7E               	movwf	main@whiteMode1& (0+255),b
   262   00DF6C                     
   263                           ; BSR set to: 5
   264                           ;main.c: 49:     uint8_t redMode2, greenMode2, blueMode2, whiteMode2 = 255;
   265   00DF6C  696D               	setf	main@whiteMode2& (0+255),b
   266   00DF6E                     
   267                           ; BSR set to: 5
   268                           ;main.c: 50:     uint8_t redMode3, greenMode3, blueMode3, whiteMode3 = 50;
   269   00DF6E  0E32               	movlw	50
   270   00DF70  6F6E               	movwf	main@whiteMode3& (0+255),b
   271   00DF72                     
   272                           ; BSR set to: 5
   273                           ;main.c: 51:     uint8_t redMode4, greenMode4, blueMode4, whiteMode4 = 0;
   274   00DF72  0E00               	movlw	0
   275   00DF74  6F6F               	movwf	main@whiteMode4& (0+255),b
   276   00DF76                     
   277                           ; BSR set to: 5
   278                           ;main.c: 52:     uint8_t taster1Flag = 0;
   279   00DF76  0E00               	movlw	0
   280   00DF78  6F7A               	movwf	main@taster1Flag& (0+255),b
   281   00DF7A                     
   282                           ; BSR set to: 5
   283                           ;main.c: 53:     uint8_t taster2Flag = 0;
   284   00DF7A  0E00               	movlw	0
   285   00DF7C  6F7B               	movwf	main@taster2Flag& (0+255),b
   286   00DF7E                     
   287                           ; BSR set to: 5
   288                           ;main.c: 54:     uint8_t taster3Flag = 0;
   289   00DF7E  0E00               	movlw	0
   290   00DF80  6F7D               	movwf	main@taster3Flag& (0+255),b
   291   00DF82                     
   292                           ; BSR set to: 5
   293                           ;main.c: 55:     uint8_t taster4Flag = 0;
   294   00DF82  0E00               	movlw	0
   295   00DF84  6F7C               	movwf	main@taster4Flag& (0+255),b
   296   00DF86                     
   297                           ; BSR set to: 5
   298                           ;main.c: 58:     _Bool led1Blink = 0;
   299   00DF86  0E00               	movlw	0
   300   00DF88  6F88               	movwf	main@led1Blink& (0+255),b
   301   00DF8A                     
   302                           ; BSR set to: 5
   303                           ;main.c: 59:     _Bool led2Blink = 0;
   304   00DF8A  0E00               	movlw	0
   305   00DF8C  6F89               	movwf	main@led2Blink& (0+255),b
   306   00DF8E                     
   307                           ; BSR set to: 5
   308                           ;main.c: 60:     _Bool led3Blink = 0;
   309   00DF8E  0E00               	movlw	0
   310   00DF90  6F8A               	movwf	main@led3Blink& (0+255),b
   311   00DF92                     
   312                           ; BSR set to: 5
   313                           ;main.c: 61:     _Bool led4Blink = 0;
   314   00DF92  0E00               	movlw	0
   315   00DF94  6F8B               	movwf	main@led4Blink& (0+255),b
   316   00DF96                     
   317                           ; BSR set to: 5
   318                           ;main.c: 64:     _Bool led1StateBlink = 0;
   319   00DF96  0E00               	movlw	0
   320   00DF98  6F70               	movwf	main@led1StateBlink& (0+255),b
   321   00DF9A                     
   322                           ; BSR set to: 5
   323                           ;main.c: 65:     _Bool led2StateBlink = 0;
   324   00DF9A  0E00               	movlw	0
   325   00DF9C  6F71               	movwf	main@led2StateBlink& (0+255),b
   326   00DF9E                     
   327                           ; BSR set to: 5
   328                           ;main.c: 66:     _Bool led3StateBlink = 0;
   329   00DF9E  0E00               	movlw	0
   330   00DFA0  6F72               	movwf	main@led3StateBlink& (0+255),b
   331   00DFA2                     
   332                           ; BSR set to: 5
   333                           ;main.c: 67:     _Bool led4StateBlink = 0;
   334   00DFA2  0E00               	movlw	0
   335   00DFA4  6F73               	movwf	main@led4StateBlink& (0+255),b
   336   00DFA6                     
   337                           ; BSR set to: 5
   338                           ;main.c: 69:     _Bool redAdj = 0;
   339   00DFA6  0E00               	movlw	0
   340   00DFA8  6F76               	movwf	main@redAdj& (0+255),b
   341   00DFAA                     
   342                           ; BSR set to: 5
   343                           ;main.c: 70:     _Bool greenAdj = 0;
   344   00DFAA  0E00               	movlw	0
   345   00DFAC  6F77               	movwf	main@greenAdj& (0+255),b
   346   00DFAE                     
   347                           ; BSR set to: 5
   348                           ;main.c: 71:     _Bool blueAdj = 0;
   349   00DFAE  0E00               	movlw	0
   350   00DFB0  6F78               	movwf	main@blueAdj& (0+255),b
   351   00DFB2                     
   352                           ; BSR set to: 5
   353                           ;main.c: 72:     _Bool whiteAdj = 0;
   354   00DFB2  0E00               	movlw	0
   355   00DFB4  6F79               	movwf	main@whiteAdj& (0+255),b
   356   00DFB6                     
   357                           ; BSR set to: 5
   358                           ;main.c: 74:     uint8_t timeout1s, timeout100ms = 0;
   359   00DFB6  0E00               	movlw	0
   360   00DFB8  6F62               	movwf	main@timeout100ms& (0+255),b
   361   00DFBA                     
   362                           ; BSR set to: 5
   363                           ;main.c: 75:     uint16_t timeout5s = 0;
   364   00DFBA  0E00               	movlw	0
   365   00DFBC  6F61               	movwf	(main@timeout5s+1)& (0+255),b
   366   00DFBE  0E00               	movlw	0
   367   00DFC0  6F60               	movwf	main@timeout5s& (0+255),b
   368   00DFC2                     
   369                           ; BSR set to: 5
   370                           ;main.c: 76:     uint16_t timeout5sPressed1 = 0;
   371   00DFC2  0E00               	movlw	0
   372   00DFC4  6F66               	movwf	(main@timeout5sPressed1+1)& (0+255),b
   373   00DFC6  0E00               	movlw	0
   374   00DFC8  6F65               	movwf	main@timeout5sPressed1& (0+255),b
   375   00DFCA                     
   376                           ; BSR set to: 5
   377                           ;main.c: 77:     uint16_t timeout5sPressed2 = 0;
   378   00DFCA  0E00               	movlw	0
   379   00DFCC  6F68               	movwf	(main@timeout5sPressed2+1)& (0+255),b
   380   00DFCE  0E00               	movlw	0
   381   00DFD0  6F67               	movwf	main@timeout5sPressed2& (0+255),b
   382   00DFD2                     
   383                           ; BSR set to: 5
   384                           ;main.c: 78:     uint16_t timeout5sPressed3 = 0;
   385   00DFD2  0E00               	movlw	0
   386   00DFD4  6F6A               	movwf	(main@timeout5sPressed3+1)& (0+255),b
   387   00DFD6  0E00               	movlw	0
   388   00DFD8  6F69               	movwf	main@timeout5sPressed3& (0+255),b
   389   00DFDA                     
   390                           ; BSR set to: 5
   391                           ;main.c: 79:     uint16_t timeout5sPressed4 = 0;
   392   00DFDA  0E00               	movlw	0
   393   00DFDC  6F6C               	movwf	(main@timeout5sPressed4+1)& (0+255),b
   394   00DFDE  0E00               	movlw	0
   395   00DFE0  6F6B               	movwf	main@timeout5sPressed4& (0+255),b
   396   00DFE2                     
   397                           ; BSR set to: 5
   398                           ;main.c: 80:     uint16_t timeout10s = 0;
   399   00DFE2  0E00               	movlw	0
   400   00DFE4  6F64               	movwf	(main@timeout10s+1)& (0+255),b
   401   00DFE6  0E00               	movlw	0
   402   00DFE8  6F63               	movwf	main@timeout10s& (0+255),b
   403   00DFEA                     
   404                           ; BSR set to: 5
   405                           ;main.c: 81:     uint8_t timeout500ms = 0;
   406   00DFEA  0E00               	movlw	0
   407   00DFEC  6F75               	movwf	main@timeout500ms& (0+255),b
   408   00DFEE                     
   409                           ; BSR set to: 5
   410                           ;main.c: 82:     uint8_t timeout250ms = 0;
   411   00DFEE  0E00               	movlw	0
   412   00DFF0  6F74               	movwf	main@timeout250ms& (0+255),b
   413   00DFF2                     
   414                           ; BSR set to: 5
   415                           ;main.c: 84:     LATCbits.LATC7 = 0;
   416   00DFF2  9EC0               	bcf	192,7,c	;volatile
   417   00DFF4                     
   418                           ; BSR set to: 5
   419                           ;main.c: 85:     LATCbits.LATC5 = 0;
   420   00DFF4  9AC0               	bcf	192,5,c	;volatile
   421   00DFF6                     
   422                           ; BSR set to: 5
   423                           ;main.c: 86:     LATAbits.LATA5 = 0;
   424   00DFF6  9ABE               	bcf	190,5,c	;volatile
   425   00DFF8                     
   426                           ; BSR set to: 5
   427                           ;main.c: 87:     LATCbits.LATC3 = 0;
   428   00DFF8  96C0               	bcf	192,3,c	;volatile
   429   00DFFA                     
   430                           ; BSR set to: 5
   431                           ;main.c: 96:     state_t state = MANUAL;
   432   00DFFA  0E00               	movlw	0
   433   00DFFC  6F93               	movwf	main@state& (0+255),b
   434                           
   435                           ;main.c: 100:     if(DATAEE_ReadByte(3) == 69)
   436   00DFFE  0E00               	movlw	0
   437   00E000  6E02               	movwf	(DATAEE_ReadByte@bAdd+1)^(0+1280),c
   438   00E002  0E03               	movlw	3
   439   00E004  6E01               	movwf	DATAEE_ReadByte@bAdd^(0+1280),c
   440   00E006  ECFD  F06C         	call	_DATAEE_ReadByte	;wreg free
   441   00E00A  0A45               	xorlw	69
   442   00E00C  A4D8               	btfss	status,2,c
   443   00E00E  EF0B  F070         	goto	u2811
   444   00E012  EF0D  F070         	goto	u2810
   445   00E016                     u2811:
   446   00E016  EF2D  F070         	goto	l355
   447   00E01A                     u2810:
   448   00E01A                     
   449                           ;main.c: 101:     {;main.c: 102:         redMode1 = DATAEE_ReadByte(11);
   450   00E01A  0E00               	movlw	0
   451   00E01C  6E02               	movwf	(DATAEE_ReadByte@bAdd+1)^(0+1280),c
   452   00E01E  0E0B               	movlw	11
   453   00E020  6E01               	movwf	DATAEE_ReadByte@bAdd^(0+1280),c
   454   00E022  ECFD  F06C         	call	_DATAEE_ReadByte	;wreg free
   455   00E026  0105               	movlb	5	; () banked
   456   00E028  6F8C               	movwf	main@redMode1& (0+255),b
   457                           
   458                           ;main.c: 103:         greenMode1 = DATAEE_ReadByte(12);
   459   00E02A  0E00               	movlw	0
   460   00E02C  6E02               	movwf	(DATAEE_ReadByte@bAdd+1)^(0+1280),c
   461   00E02E  0E0C               	movlw	12
   462   00E030  6E01               	movwf	DATAEE_ReadByte@bAdd^(0+1280),c
   463   00E032  ECFD  F06C         	call	_DATAEE_ReadByte	;wreg free
   464   00E036  0105               	movlb	5	; () banked
   465   00E038  6F8D               	movwf	main@greenMode1& (0+255),b
   466                           
   467                           ;main.c: 104:         blueMode1 = DATAEE_ReadByte(15);
   468   00E03A  0E00               	movlw	0
   469   00E03C  6E02               	movwf	(DATAEE_ReadByte@bAdd+1)^(0+1280),c
   470   00E03E  0E0F               	movlw	15
   471   00E040  6E01               	movwf	DATAEE_ReadByte@bAdd^(0+1280),c
   472   00E042  ECFD  F06C         	call	_DATAEE_ReadByte	;wreg free
   473   00E046  0105               	movlb	5	; () banked
   474   00E048  6F8E               	movwf	main@blueMode1& (0+255),b
   475                           
   476                           ;main.c: 105:         whiteMode1 = DATAEE_ReadByte(17);
   477   00E04A  0E00               	movlw	0
   478   00E04C  6E02               	movwf	(DATAEE_ReadByte@bAdd+1)^(0+1280),c
   479   00E04E  0E11               	movlw	17
   480   00E050  6E01               	movwf	DATAEE_ReadByte@bAdd^(0+1280),c
   481   00E052  ECFD  F06C         	call	_DATAEE_ReadByte	;wreg free
   482   00E056  0105               	movlb	5	; () banked
   483   00E058  6F7E               	movwf	main@whiteMode1& (0+255),b
   484   00E05A                     l355:
   485                           
   486                           ;main.c: 108:     if(DATAEE_ReadByte(4) == 69)
   487   00E05A  0E00               	movlw	0
   488   00E05C  6E02               	movwf	(DATAEE_ReadByte@bAdd+1)^(0+1280),c
   489   00E05E  0E04               	movlw	4
   490   00E060  6E01               	movwf	DATAEE_ReadByte@bAdd^(0+1280),c
   491   00E062  ECFD  F06C         	call	_DATAEE_ReadByte	;wreg free
   492   00E066  0A45               	xorlw	69
   493   00E068  A4D8               	btfss	status,2,c
   494   00E06A  EF39  F070         	goto	u2821
   495   00E06E  EF3B  F070         	goto	u2820
   496   00E072                     u2821:
   497   00E072  EF5B  F070         	goto	l356
   498   00E076                     u2820:
   499   00E076                     
   500                           ;main.c: 109:     {;main.c: 110:         redMode2 = DATAEE_ReadByte(18);
   501   00E076  0E00               	movlw	0
   502   00E078  6E02               	movwf	(DATAEE_ReadByte@bAdd+1)^(0+1280),c
   503   00E07A  0E12               	movlw	18
   504   00E07C  6E01               	movwf	DATAEE_ReadByte@bAdd^(0+1280),c
   505   00E07E  ECFD  F06C         	call	_DATAEE_ReadByte	;wreg free
   506   00E082  0105               	movlb	5	; () banked
   507   00E084  6F7F               	movwf	main@redMode2& (0+255),b
   508                           
   509                           ;main.c: 111:         greenMode2 = DATAEE_ReadByte(19);
   510   00E086  0E00               	movlw	0
   511   00E088  6E02               	movwf	(DATAEE_ReadByte@bAdd+1)^(0+1280),c
   512   00E08A  0E13               	movlw	19
   513   00E08C  6E01               	movwf	DATAEE_ReadByte@bAdd^(0+1280),c
   514   00E08E  ECFD  F06C         	call	_DATAEE_ReadByte	;wreg free
   515   00E092  0105               	movlb	5	; () banked
   516   00E094  6F80               	movwf	main@greenMode2& (0+255),b
   517                           
   518                           ;main.c: 112:         blueMode2 = DATAEE_ReadByte(20);
   519   00E096  0E00               	movlw	0
   520   00E098  6E02               	movwf	(DATAEE_ReadByte@bAdd+1)^(0+1280),c
   521   00E09A  0E14               	movlw	20
   522   00E09C  6E01               	movwf	DATAEE_ReadByte@bAdd^(0+1280),c
   523   00E09E  ECFD  F06C         	call	_DATAEE_ReadByte	;wreg free
   524   00E0A2  0105               	movlb	5	; () banked
   525   00E0A4  6F81               	movwf	main@blueMode2& (0+255),b
   526                           
   527                           ;main.c: 113:         whiteMode2 = DATAEE_ReadByte(21);
   528   00E0A6  0E00               	movlw	0
   529   00E0A8  6E02               	movwf	(DATAEE_ReadByte@bAdd+1)^(0+1280),c
   530   00E0AA  0E15               	movlw	21
   531   00E0AC  6E01               	movwf	DATAEE_ReadByte@bAdd^(0+1280),c
   532   00E0AE  ECFD  F06C         	call	_DATAEE_ReadByte	;wreg free
   533   00E0B2  0105               	movlb	5	; () banked
   534   00E0B4  6F6D               	movwf	main@whiteMode2& (0+255),b
   535   00E0B6                     l356:
   536                           
   537                           ;main.c: 116:     if(DATAEE_ReadByte(6) == 69)
   538   00E0B6  0E00               	movlw	0
   539   00E0B8  6E02               	movwf	(DATAEE_ReadByte@bAdd+1)^(0+1280),c
   540   00E0BA  0E06               	movlw	6
   541   00E0BC  6E01               	movwf	DATAEE_ReadByte@bAdd^(0+1280),c
   542   00E0BE  ECFD  F06C         	call	_DATAEE_ReadByte	;wreg free
   543   00E0C2  0A45               	xorlw	69
   544   00E0C4  A4D8               	btfss	status,2,c
   545   00E0C6  EF67  F070         	goto	u2831
   546   00E0CA  EF69  F070         	goto	u2830
   547   00E0CE                     u2831:
   548   00E0CE  EF89  F070         	goto	l357
   549   00E0D2                     u2830:
   550   00E0D2                     
   551                           ;main.c: 117:     {;main.c: 118:         redMode3 = DATAEE_ReadByte(22);
   552   00E0D2  0E00               	movlw	0
   553   00E0D4  6E02               	movwf	(DATAEE_ReadByte@bAdd+1)^(0+1280),c
   554   00E0D6  0E16               	movlw	22
   555   00E0D8  6E01               	movwf	DATAEE_ReadByte@bAdd^(0+1280),c
   556   00E0DA  ECFD  F06C         	call	_DATAEE_ReadByte	;wreg free
   557   00E0DE  0105               	movlb	5	; () banked
   558   00E0E0  6F82               	movwf	main@redMode3& (0+255),b
   559                           
   560                           ;main.c: 119:         greenMode3 = DATAEE_ReadByte(24);
   561   00E0E2  0E00               	movlw	0
   562   00E0E4  6E02               	movwf	(DATAEE_ReadByte@bAdd+1)^(0+1280),c
   563   00E0E6  0E18               	movlw	24
   564   00E0E8  6E01               	movwf	DATAEE_ReadByte@bAdd^(0+1280),c
   565   00E0EA  ECFD  F06C         	call	_DATAEE_ReadByte	;wreg free
   566   00E0EE  0105               	movlb	5	; () banked
   567   00E0F0  6F83               	movwf	main@greenMode3& (0+255),b
   568                           
   569                           ;main.c: 120:         blueMode3 = DATAEE_ReadByte(25);
   570   00E0F2  0E00               	movlw	0
   571   00E0F4  6E02               	movwf	(DATAEE_ReadByte@bAdd+1)^(0+1280),c
   572   00E0F6  0E19               	movlw	25
   573   00E0F8  6E01               	movwf	DATAEE_ReadByte@bAdd^(0+1280),c
   574   00E0FA  ECFD  F06C         	call	_DATAEE_ReadByte	;wreg free
   575   00E0FE  0105               	movlb	5	; () banked
   576   00E100  6F84               	movwf	main@blueMode3& (0+255),b
   577                           
   578                           ;main.c: 121:         whiteMode3 = DATAEE_ReadByte(27);
   579   00E102  0E00               	movlw	0
   580   00E104  6E02               	movwf	(DATAEE_ReadByte@bAdd+1)^(0+1280),c
   581   00E106  0E1B               	movlw	27
   582   00E108  6E01               	movwf	DATAEE_ReadByte@bAdd^(0+1280),c
   583   00E10A  ECFD  F06C         	call	_DATAEE_ReadByte	;wreg free
   584   00E10E  0105               	movlb	5	; () banked
   585   00E110  6F6E               	movwf	main@whiteMode3& (0+255),b
   586   00E112                     l357:
   587                           
   588                           ;main.c: 124:     if(DATAEE_ReadByte(8) == 69)
   589   00E112  0E00               	movlw	0
   590   00E114  6E02               	movwf	(DATAEE_ReadByte@bAdd+1)^(0+1280),c
   591   00E116  0E08               	movlw	8
   592   00E118  6E01               	movwf	DATAEE_ReadByte@bAdd^(0+1280),c
   593   00E11A  ECFD  F06C         	call	_DATAEE_ReadByte	;wreg free
   594   00E11E  0A45               	xorlw	69
   595   00E120  A4D8               	btfss	status,2,c
   596   00E122  EF95  F070         	goto	u2841
   597   00E126  EF97  F070         	goto	u2840
   598   00E12A                     u2841:
   599   00E12A  EFB7  F070         	goto	l358
   600   00E12E                     u2840:
   601   00E12E                     
   602                           ;main.c: 125:     {;main.c: 126:         redMode4 = DATAEE_ReadByte(30);
   603   00E12E  0E00               	movlw	0
   604   00E130  6E02               	movwf	(DATAEE_ReadByte@bAdd+1)^(0+1280),c
   605   00E132  0E1E               	movlw	30
   606   00E134  6E01               	movwf	DATAEE_ReadByte@bAdd^(0+1280),c
   607   00E136  ECFD  F06C         	call	_DATAEE_ReadByte	;wreg free
   608   00E13A  0105               	movlb	5	; () banked
   609   00E13C  6F85               	movwf	main@redMode4& (0+255),b
   610                           
   611                           ;main.c: 127:         greenMode4 = DATAEE_ReadByte(31);
   612   00E13E  0E00               	movlw	0
   613   00E140  6E02               	movwf	(DATAEE_ReadByte@bAdd+1)^(0+1280),c
   614   00E142  0E1F               	movlw	31
   615   00E144  6E01               	movwf	DATAEE_ReadByte@bAdd^(0+1280),c
   616   00E146  ECFD  F06C         	call	_DATAEE_ReadByte	;wreg free
   617   00E14A  0105               	movlb	5	; () banked
   618   00E14C  6F86               	movwf	main@greenMode4& (0+255),b
   619                           
   620                           ;main.c: 128:         blueMode4 = DATAEE_ReadByte(32);
   621   00E14E  0E00               	movlw	0
   622   00E150  6E02               	movwf	(DATAEE_ReadByte@bAdd+1)^(0+1280),c
   623   00E152  0E20               	movlw	32
   624   00E154  6E01               	movwf	DATAEE_ReadByte@bAdd^(0+1280),c
   625   00E156  ECFD  F06C         	call	_DATAEE_ReadByte	;wreg free
   626   00E15A  0105               	movlb	5	; () banked
   627   00E15C  6F87               	movwf	main@blueMode4& (0+255),b
   628                           
   629                           ;main.c: 129:         whiteMode4 = DATAEE_ReadByte(34);
   630   00E15E  0E00               	movlw	0
   631   00E160  6E02               	movwf	(DATAEE_ReadByte@bAdd+1)^(0+1280),c
   632   00E162  0E22               	movlw	34
   633   00E164  6E01               	movwf	DATAEE_ReadByte@bAdd^(0+1280),c
   634   00E166  ECFD  F06C         	call	_DATAEE_ReadByte	;wreg free
   635   00E16A  0105               	movlb	5	; () banked
   636   00E16C  6F6F               	movwf	main@whiteMode4& (0+255),b
   637   00E16E                     l358:
   638                           
   639                           ;main.c: 134:     if(DATAEE_ReadByte(2) == 69)
   640   00E16E  0E00               	movlw	0
   641   00E170  6E02               	movwf	(DATAEE_ReadByte@bAdd+1)^(0+1280),c
   642   00E172  0E02               	movlw	2
   643   00E174  6E01               	movwf	DATAEE_ReadByte@bAdd^(0+1280),c
   644   00E176  ECFD  F06C         	call	_DATAEE_ReadByte	;wreg free
   645   00E17A  0A45               	xorlw	69
   646   00E17C  A4D8               	btfss	status,2,c
   647   00E17E  EFC3  F070         	goto	u2851
   648   00E182  EFC5  F070         	goto	u2850
   649   00E186                     u2851:
   650   00E186  EF78  F071         	goto	l2944
   651   00E18A                     u2850:
   652   00E18A                     
   653                           ;main.c: 135:     {;main.c: 136:         state = DATAEE_ReadByte(36);
   654   00E18A  0E00               	movlw	0
   655   00E18C  6E02               	movwf	(DATAEE_ReadByte@bAdd+1)^(0+1280),c
   656   00E18E  0E24               	movlw	36
   657   00E190  6E01               	movwf	DATAEE_ReadByte@bAdd^(0+1280),c
   658   00E192  ECFD  F06C         	call	_DATAEE_ReadByte	;wreg free
   659   00E196  0105               	movlb	5	; () banked
   660   00E198  6F93               	movwf	main@state& (0+255),b
   661   00E19A                     
   662                           ; BSR set to: 5
   663                           ;main.c: 138:         if(state == 1 && (DATAEE_ReadByte(3) == 69))
   664   00E19A  0593               	decf	main@state& (0+255),w,b
   665   00E19C  A4D8               	btfss	status,2,c
   666   00E19E  EFD3  F070         	goto	u2861
   667   00E1A2  EFD5  F070         	goto	u2860
   668   00E1A6                     u2861:
   669   00E1A6  EFEA  F070         	goto	l2904
   670   00E1AA                     u2860:
   671   00E1AA                     
   672                           ; BSR set to: 5
   673   00E1AA  0E00               	movlw	0
   674   00E1AC  6E02               	movwf	(DATAEE_ReadByte@bAdd+1)^(0+1280),c
   675   00E1AE  0E03               	movlw	3
   676   00E1B0  6E01               	movwf	DATAEE_ReadByte@bAdd^(0+1280),c
   677   00E1B2  ECFD  F06C         	call	_DATAEE_ReadByte	;wreg free
   678   00E1B6  0A45               	xorlw	69
   679   00E1B8  A4D8               	btfss	status,2,c
   680   00E1BA  EFE1  F070         	goto	u2871
   681   00E1BE  EFE3  F070         	goto	u2870
   682   00E1C2                     u2871:
   683   00E1C2  EFEA  F070         	goto	l2904
   684   00E1C6                     u2870:
   685   00E1C6                     
   686                           ;main.c: 139:         {;main.c: 140:             LATCbits.LATC7 = 1;
   687   00E1C6  8EC0               	bsf	192,7,c	;volatile
   688   00E1C8                     
   689                           ;main.c: 141:             _delay((unsigned long)((50)*(64000000/4000000.0)));
   690   00E1C8  0EA0               	movlw	160
   691   00E1CA                     u5037:
   692   00E1CA  D000               	nop2	
   693   00E1CC  2EE8               	decfsz	wreg,f,c
   694   00E1CE  D7FD               	bra	u5037
   695                           
   696                           ;main.c: 142:         }
   697   00E1D0  EFF5  F070         	goto	l2908
   698   00E1D4                     l2904:
   699   00E1D4  0105               	movlb	5	; () banked
   700   00E1D6  0593               	decf	main@state& (0+255),w,b
   701   00E1D8  A4D8               	btfss	status,2,c
   702   00E1DA  EFF1  F070         	goto	u2881
   703   00E1DE  EFF3  F070         	goto	u2880
   704   00E1E2                     u2881:
   705   00E1E2  EFF5  F070         	goto	l2908
   706   00E1E6                     u2880:
   707   00E1E6                     
   708                           ; BSR set to: 5
   709                           ;main.c: 144:         {;main.c: 145:             state = MANUAL;
   710   00E1E6  0E00               	movlw	0
   711   00E1E8  6F93               	movwf	main@state& (0+255),b
   712   00E1EA                     l2908:
   713                           
   714                           ;main.c: 148:         if(state == 2 && (DATAEE_ReadByte(4) == 69))
   715   00E1EA  0E02               	movlw	2
   716   00E1EC  0105               	movlb	5	; () banked
   717   00E1EE  1993               	xorwf	main@state& (0+255),w,b
   718   00E1F0  A4D8               	btfss	status,2,c
   719   00E1F2  EFFD  F070         	goto	u2891
   720   00E1F6  EFFF  F070         	goto	u2890
   721   00E1FA                     u2891:
   722   00E1FA  EF14  F071         	goto	l2916
   723   00E1FE                     u2890:
   724   00E1FE                     
   725                           ; BSR set to: 5
   726   00E1FE  0E00               	movlw	0
   727   00E200  6E02               	movwf	(DATAEE_ReadByte@bAdd+1)^(0+1280),c
   728   00E202  0E04               	movlw	4
   729   00E204  6E01               	movwf	DATAEE_ReadByte@bAdd^(0+1280),c
   730   00E206  ECFD  F06C         	call	_DATAEE_ReadByte	;wreg free
   731   00E20A  0A45               	xorlw	69
   732   00E20C  A4D8               	btfss	status,2,c
   733   00E20E  EF0B  F071         	goto	u2901
   734   00E212  EF0D  F071         	goto	u2900
   735   00E216                     u2901:
   736   00E216  EF14  F071         	goto	l2916
   737   00E21A                     u2900:
   738   00E21A                     
   739                           ;main.c: 149:         {;main.c: 150:             LATCbits.LATC5 = 1;
   740   00E21A  8AC0               	bsf	192,5,c	;volatile
   741   00E21C                     
   742                           ;main.c: 151:             _delay((unsigned long)((50)*(64000000/4000000.0)));
   743   00E21C  0EA0               	movlw	160
   744   00E21E                     u5047:
   745   00E21E  D000               	nop2	
   746   00E220  2EE8               	decfsz	wreg,f,c
   747   00E222  D7FD               	bra	u5047
   748                           
   749                           ;main.c: 152:         }
   750   00E224  EF20  F071         	goto	l2920
   751   00E228                     l2916:
   752   00E228  0E02               	movlw	2
   753   00E22A  0105               	movlb	5	; () banked
   754   00E22C  1993               	xorwf	main@state& (0+255),w,b
   755   00E22E  A4D8               	btfss	status,2,c
   756   00E230  EF1C  F071         	goto	u2911
   757   00E234  EF1E  F071         	goto	u2910
   758   00E238                     u2911:
   759   00E238  EF20  F071         	goto	l2920
   760   00E23C                     u2910:
   761   00E23C                     
   762                           ; BSR set to: 5
   763                           ;main.c: 154:         {;main.c: 155:             state = MANUAL;
   764   00E23C  0E00               	movlw	0
   765   00E23E  6F93               	movwf	main@state& (0+255),b
   766   00E240                     l2920:
   767                           
   768                           ;main.c: 158:         if(state == 3 && (DATAEE_ReadByte(6) == 69))
   769   00E240  0E03               	movlw	3
   770   00E242  0105               	movlb	5	; () banked
   771   00E244  1993               	xorwf	main@state& (0+255),w,b
   772   00E246  A4D8               	btfss	status,2,c
   773   00E248  EF28  F071         	goto	u2921
   774   00E24C  EF2A  F071         	goto	u2920
   775   00E250                     u2921:
   776   00E250  EF3F  F071         	goto	l2928
   777   00E254                     u2920:
   778   00E254                     
   779                           ; BSR set to: 5
   780   00E254  0E00               	movlw	0
   781   00E256  6E02               	movwf	(DATAEE_ReadByte@bAdd+1)^(0+1280),c
   782   00E258  0E06               	movlw	6
   783   00E25A  6E01               	movwf	DATAEE_ReadByte@bAdd^(0+1280),c
   784   00E25C  ECFD  F06C         	call	_DATAEE_ReadByte	;wreg free
   785   00E260  0A45               	xorlw	69
   786   00E262  A4D8               	btfss	status,2,c
   787   00E264  EF36  F071         	goto	u2931
   788   00E268  EF38  F071         	goto	u2930
   789   00E26C                     u2931:
   790   00E26C  EF3F  F071         	goto	l2928
   791   00E270                     u2930:
   792   00E270                     
   793                           ;main.c: 159:         {;main.c: 160:             LATAbits.LATA5 = 1;
   794   00E270  8ABE               	bsf	190,5,c	;volatile
   795   00E272                     
   796                           ;main.c: 161:             _delay((unsigned long)((50)*(64000000/4000000.0)));
   797   00E272  0EA0               	movlw	160
   798   00E274                     u5057:
   799   00E274  D000               	nop2	
   800   00E276  2EE8               	decfsz	wreg,f,c
   801   00E278  D7FD               	bra	u5057
   802                           
   803                           ;main.c: 162:         }
   804   00E27A  EF4B  F071         	goto	l2932
   805   00E27E                     l2928:
   806   00E27E  0E03               	movlw	3
   807   00E280  0105               	movlb	5	; () banked
   808   00E282  1993               	xorwf	main@state& (0+255),w,b
   809   00E284  A4D8               	btfss	status,2,c
   810   00E286  EF47  F071         	goto	u2941
   811   00E28A  EF49  F071         	goto	u2940
   812   00E28E                     u2941:
   813   00E28E  EF4B  F071         	goto	l2932
   814   00E292                     u2940:
   815   00E292                     
   816                           ; BSR set to: 5
   817                           ;main.c: 164:         {;main.c: 165:             state = MANUAL;
   818   00E292  0E00               	movlw	0
   819   00E294  6F93               	movwf	main@state& (0+255),b
   820   00E296                     l2932:
   821                           
   822                           ;main.c: 168:         if(state == 4 && (DATAEE_ReadByte(8) == 69))
   823   00E296  0E04               	movlw	4
   824   00E298  0105               	movlb	5	; () banked
   825   00E29A  1993               	xorwf	main@state& (0+255),w,b
   826   00E29C  A4D8               	btfss	status,2,c
   827   00E29E  EF53  F071         	goto	u2951
   828   00E2A2  EF55  F071         	goto	u2950
   829   00E2A6                     u2951:
   830   00E2A6  EF6A  F071         	goto	l2940
   831   00E2AA                     u2950:
   832   00E2AA                     
   833                           ; BSR set to: 5
   834   00E2AA  0E00               	movlw	0
   835   00E2AC  6E02               	movwf	(DATAEE_ReadByte@bAdd+1)^(0+1280),c
   836   00E2AE  0E08               	movlw	8
   837   00E2B0  6E01               	movwf	DATAEE_ReadByte@bAdd^(0+1280),c
   838   00E2B2  ECFD  F06C         	call	_DATAEE_ReadByte	;wreg free
   839   00E2B6  0A45               	xorlw	69
   840   00E2B8  A4D8               	btfss	status,2,c
   841   00E2BA  EF61  F071         	goto	u2961
   842   00E2BE  EF63  F071         	goto	u2960
   843   00E2C2                     u2961:
   844   00E2C2  EF6A  F071         	goto	l2940
   845   00E2C6                     u2960:
   846   00E2C6                     
   847                           ;main.c: 169:         {;main.c: 170:             LATCbits.LATC3 = 1;
   848   00E2C6  86C0               	bsf	192,3,c	;volatile
   849   00E2C8                     
   850                           ;main.c: 171:             _delay((unsigned long)((50)*(64000000/4000000.0)));
   851   00E2C8  0EA0               	movlw	160
   852   00E2CA                     u5067:
   853   00E2CA  D000               	nop2	
   854   00E2CC  2EE8               	decfsz	wreg,f,c
   855   00E2CE  D7FD               	bra	u5067
   856                           
   857                           ;main.c: 172:         }
   858   00E2D0  EF78  F071         	goto	l2944
   859   00E2D4                     l2940:
   860   00E2D4  0E04               	movlw	4
   861   00E2D6  0105               	movlb	5	; () banked
   862   00E2D8  1993               	xorwf	main@state& (0+255),w,b
   863   00E2DA  A4D8               	btfss	status,2,c
   864   00E2DC  EF72  F071         	goto	u2971
   865   00E2E0  EF74  F071         	goto	u2970
   866   00E2E4                     u2971:
   867   00E2E4  EF78  F071         	goto	l359
   868   00E2E8                     u2970:
   869   00E2E8                     
   870                           ; BSR set to: 5
   871                           ;main.c: 174:         {;main.c: 175:             state = MANUAL;
   872   00E2E8  0E00               	movlw	0
   873   00E2EA  6F93               	movwf	main@state& (0+255),b
   874   00E2EC  EF78  F071         	goto	l2944
   875   00E2F0                     l359:
   876   00E2F0                     l2944:
   877                           
   878                           ;main.c: 184:     {;main.c: 185:         taster1Flag = PORTCbits.RC6;
   879   00E2F0  0E00               	movlw	0
   880   00E2F2  BCD0               	btfsc	208,6,c	;volatile
   881   00E2F4  0E01               	movlw	1
   882   00E2F6  0105               	movlb	5	; () banked
   883   00E2F8  6F7A               	movwf	main@taster1Flag& (0+255),b
   884   00E2FA                     
   885                           ; BSR set to: 5
   886                           ;main.c: 186:         taster2Flag = PORTAbits.RA4;
   887   00E2FA  0E00               	movlw	0
   888   00E2FC  B8CE               	btfsc	206,4,c	;volatile
   889   00E2FE  0E01               	movlw	1
   890   00E300  6F7B               	movwf	main@taster2Flag& (0+255),b
   891   00E302                     
   892                           ; BSR set to: 5
   893                           ;main.c: 187:         taster3Flag = PORTCbits.RC4;
   894   00E302  0E00               	movlw	0
   895   00E304  B8D0               	btfsc	208,4,c	;volatile
   896   00E306  0E01               	movlw	1
   897   00E308  6F7D               	movwf	main@taster3Flag& (0+255),b
   898   00E30A                     
   899                           ; BSR set to: 5
   900                           ;main.c: 188:         taster4Flag = PORTBbits.RB7;
   901   00E30A  0E00               	movlw	0
   902   00E30C  BECF               	btfsc	207,7,c	;volatile
   903   00E30E  0E01               	movlw	1
   904   00E310  6F7C               	movwf	main@taster4Flag& (0+255),b
   905   00E312                     
   906                           ; BSR set to: 5
   907                           ;main.c: 190:         ADCC_DischargeSampleCapacitor();
   908   00E312  ECD6  F06C         	call	_ADCC_DischargeSampleCapacitor	;wreg free
   909   00E316                     
   910                           ;main.c: 191:         red = map(ADCC_GetSingleConversion(POT1),0,4095,0,255);
   911   00E316  0E02               	movlw	2
   912   00E318  EC33  F06D         	call	_ADCC_GetSingleConversion
   913   00E31C  C501  F51B         	movff	?_ADCC_GetSingleConversion,map@x
   914   00E320  C502  F51C         	movff	?_ADCC_GetSingleConversion+1,map@x+1
   915   00E324  6A1D               	clrf	(map@x+2)^(0+1280),c
   916   00E326  6A1E               	clrf	(map@x+3)^(0+1280),c
   917   00E328  0E00               	movlw	0
   918   00E32A  6E1F               	movwf	map@in_min^(0+1280),c
   919   00E32C  0E00               	movlw	0
   920   00E32E  6E20               	movwf	(map@in_min+1)^(0+1280),c
   921   00E330  0E00               	movlw	0
   922   00E332  6E21               	movwf	(map@in_min+2)^(0+1280),c
   923   00E334  0E00               	movlw	0
   924   00E336  6E22               	movwf	(map@in_min+3)^(0+1280),c
   925   00E338  0EFF               	movlw	255
   926   00E33A  6E23               	movwf	map@in_max^(0+1280),c
   927   00E33C  0E0F               	movlw	15
   928   00E33E  6E24               	movwf	(map@in_max+1)^(0+1280),c
   929   00E340  0E00               	movlw	0
   930   00E342  6E25               	movwf	(map@in_max+2)^(0+1280),c
   931   00E344  0E00               	movlw	0
   932   00E346  6E26               	movwf	(map@in_max+3)^(0+1280),c
   933   00E348  0E00               	movlw	0
   934   00E34A  6E27               	movwf	map@out_min^(0+1280),c
   935   00E34C  0E00               	movlw	0
   936   00E34E  6E28               	movwf	(map@out_min+1)^(0+1280),c
   937   00E350  0E00               	movlw	0
   938   00E352  6E29               	movwf	(map@out_min+2)^(0+1280),c
   939   00E354  0E00               	movlw	0
   940   00E356  6E2A               	movwf	(map@out_min+3)^(0+1280),c
   941   00E358  0EFF               	movlw	255
   942   00E35A  6E2B               	movwf	map@out_max^(0+1280),c
   943   00E35C  0E00               	movlw	0
   944   00E35E  6E2C               	movwf	(map@out_max+1)^(0+1280),c
   945   00E360  0E00               	movlw	0
   946   00E362  6E2D               	movwf	(map@out_max+2)^(0+1280),c
   947   00E364  0E00               	movlw	0
   948   00E366  6E2E               	movwf	(map@out_max+3)^(0+1280),c
   949   00E368  EC3C  F06E         	call	_map	;wreg free
   950   00E36C  501B               	movf	?_map^(0+1280),w,c
   951   00E36E  0105               	movlb	5	; () banked
   952   00E370  6F90               	movwf	main@red& (0+255),b
   953   00E372                     
   954                           ; BSR set to: 5
   955                           ;main.c: 192:         ADCC_DischargeSampleCapacitor();
   956   00E372  ECD6  F06C         	call	_ADCC_DischargeSampleCapacitor	;wreg free
   957   00E376                     
   958                           ;main.c: 193:         green = map(ADCC_GetSingleConversion(POT2),0,4095,0,255);
   959   00E376  0E10               	movlw	16
   960   00E378  EC33  F06D         	call	_ADCC_GetSingleConversion
   961   00E37C  C501  F51B         	movff	?_ADCC_GetSingleConversion,map@x
   962   00E380  C502  F51C         	movff	?_ADCC_GetSingleConversion+1,map@x+1
   963   00E384  6A1D               	clrf	(map@x+2)^(0+1280),c
   964   00E386  6A1E               	clrf	(map@x+3)^(0+1280),c
   965   00E388  0E00               	movlw	0
   966   00E38A  6E1F               	movwf	map@in_min^(0+1280),c
   967   00E38C  0E00               	movlw	0
   968   00E38E  6E20               	movwf	(map@in_min+1)^(0+1280),c
   969   00E390  0E00               	movlw	0
   970   00E392  6E21               	movwf	(map@in_min+2)^(0+1280),c
   971   00E394  0E00               	movlw	0
   972   00E396  6E22               	movwf	(map@in_min+3)^(0+1280),c
   973   00E398  0EFF               	movlw	255
   974   00E39A  6E23               	movwf	map@in_max^(0+1280),c
   975   00E39C  0E0F               	movlw	15
   976   00E39E  6E24               	movwf	(map@in_max+1)^(0+1280),c
   977   00E3A0  0E00               	movlw	0
   978   00E3A2  6E25               	movwf	(map@in_max+2)^(0+1280),c
   979   00E3A4  0E00               	movlw	0
   980   00E3A6  6E26               	movwf	(map@in_max+3)^(0+1280),c
   981   00E3A8  0E00               	movlw	0
   982   00E3AA  6E27               	movwf	map@out_min^(0+1280),c
   983   00E3AC  0E00               	movlw	0
   984   00E3AE  6E28               	movwf	(map@out_min+1)^(0+1280),c
   985   00E3B0  0E00               	movlw	0
   986   00E3B2  6E29               	movwf	(map@out_min+2)^(0+1280),c
   987   00E3B4  0E00               	movlw	0
   988   00E3B6  6E2A               	movwf	(map@out_min+3)^(0+1280),c
   989   00E3B8  0EFF               	movlw	255
   990   00E3BA  6E2B               	movwf	map@out_max^(0+1280),c
   991   00E3BC  0E00               	movlw	0
   992   00E3BE  6E2C               	movwf	(map@out_max+1)^(0+1280),c
   993   00E3C0  0E00               	movlw	0
   994   00E3C2  6E2D               	movwf	(map@out_max+2)^(0+1280),c
   995   00E3C4  0E00               	movlw	0
   996   00E3C6  6E2E               	movwf	(map@out_max+3)^(0+1280),c
   997   00E3C8  EC3C  F06E         	call	_map	;wreg free
   998   00E3CC  501B               	movf	?_map^(0+1280),w,c
   999   00E3CE  0105               	movlb	5	; () banked
  1000   00E3D0  6F91               	movwf	main@green& (0+255),b
  1001   00E3D2                     
  1002                           ; BSR set to: 5
  1003                           ;main.c: 194:         ADCC_DischargeSampleCapacitor();
  1004   00E3D2  ECD6  F06C         	call	_ADCC_DischargeSampleCapacitor	;wreg free
  1005   00E3D6                     
  1006                           ;main.c: 195:         blue = map(ADCC_GetSingleConversion(POT3),0,4095,0,255);
  1007   00E3D6  0E11               	movlw	17
  1008   00E3D8  EC33  F06D         	call	_ADCC_GetSingleConversion
  1009   00E3DC  C501  F51B         	movff	?_ADCC_GetSingleConversion,map@x
  1010   00E3E0  C502  F51C         	movff	?_ADCC_GetSingleConversion+1,map@x+1
  1011   00E3E4  6A1D               	clrf	(map@x+2)^(0+1280),c
  1012   00E3E6  6A1E               	clrf	(map@x+3)^(0+1280),c
  1013   00E3E8  0E00               	movlw	0
  1014   00E3EA  6E1F               	movwf	map@in_min^(0+1280),c
  1015   00E3EC  0E00               	movlw	0
  1016   00E3EE  6E20               	movwf	(map@in_min+1)^(0+1280),c
  1017   00E3F0  0E00               	movlw	0
  1018   00E3F2  6E21               	movwf	(map@in_min+2)^(0+1280),c
  1019   00E3F4  0E00               	movlw	0
  1020   00E3F6  6E22               	movwf	(map@in_min+3)^(0+1280),c
  1021   00E3F8  0EFF               	movlw	255
  1022   00E3FA  6E23               	movwf	map@in_max^(0+1280),c
  1023   00E3FC  0E0F               	movlw	15
  1024   00E3FE  6E24               	movwf	(map@in_max+1)^(0+1280),c
  1025   00E400  0E00               	movlw	0
  1026   00E402  6E25               	movwf	(map@in_max+2)^(0+1280),c
  1027   00E404  0E00               	movlw	0
  1028   00E406  6E26               	movwf	(map@in_max+3)^(0+1280),c
  1029   00E408  0E00               	movlw	0
  1030   00E40A  6E27               	movwf	map@out_min^(0+1280),c
  1031   00E40C  0E00               	movlw	0
  1032   00E40E  6E28               	movwf	(map@out_min+1)^(0+1280),c
  1033   00E410  0E00               	movlw	0
  1034   00E412  6E29               	movwf	(map@out_min+2)^(0+1280),c
  1035   00E414  0E00               	movlw	0
  1036   00E416  6E2A               	movwf	(map@out_min+3)^(0+1280),c
  1037   00E418  0EFF               	movlw	255
  1038   00E41A  6E2B               	movwf	map@out_max^(0+1280),c
  1039   00E41C  0E00               	movlw	0
  1040   00E41E  6E2C               	movwf	(map@out_max+1)^(0+1280),c
  1041   00E420  0E00               	movlw	0
  1042   00E422  6E2D               	movwf	(map@out_max+2)^(0+1280),c
  1043   00E424  0E00               	movlw	0
  1044   00E426  6E2E               	movwf	(map@out_max+3)^(0+1280),c
  1045   00E428  EC3C  F06E         	call	_map	;wreg free
  1046   00E42C  501B               	movf	?_map^(0+1280),w,c
  1047   00E42E  0105               	movlb	5	; () banked
  1048   00E430  6F92               	movwf	main@blue& (0+255),b
  1049   00E432                     
  1050                           ; BSR set to: 5
  1051                           ;main.c: 199:         _delay((unsigned long)((5)*(64000000/4000.0)));
  1052   00E432  0E68               	movlw	104
  1053   00E434  6E2F               	movwf	??_main^(0+1280),c
  1054   00E436  0EE4               	movlw	228
  1055   00E438                     u5077:
  1056   00E438  2EE8               	decfsz	wreg,f,c
  1057   00E43A  D7FE               	bra	u5077
  1058   00E43C  2E2F               	decfsz	??_main^(0+1280),f,c
  1059   00E43E  D7FC               	bra	u5077
  1060   00E440  D000               	nop2	
  1061                           
  1062                           ;main.c: 201:         switch(state)
  1063   00E442  EFBA  F07F         	goto	l3764
  1064   00E446                     l2966:
  1065                           
  1066                           ; BSR set to: 5
  1067                           ;main.c: 205:                 LED_WriteFull(red, green, blue, 300);
  1068   00E446  C591  F50B         	movff	main@green,LED_WriteFull@green
  1069   00E44A  C592  F50C         	movff	main@blue,LED_WriteFull@blue
  1070   00E44E  0E2C               	movlw	44
  1071   00E450  6E0D               	movwf	LED_WriteFull@ledcount^(0+1280),c
  1072   00E452  0E01               	movlw	1
  1073   00E454  6E0E               	movwf	(LED_WriteFull@ledcount+1)^(0+1280),c
  1074   00E456  0E00               	movlw	0
  1075   00E458  6E0F               	movwf	(LED_WriteFull@ledcount+2)^(0+1280),c
  1076   00E45A  5190               	movf	main@red& (0+255),w,b
  1077   00E45C  ECFF  F06D         	call	_LED_WriteFull
  1078   00E460                     
  1079                           ;main.c: 207:                 _delay((unsigned long)((100)*(64000000/4000000.0)));
  1080   00E460  0EE4               	movlw	228
  1081   00E462                     u5087:
  1082   00E462  D000               	nop2	
  1083   00E464  D000               	nop2	
  1084   00E466  2EE8               	decfsz	wreg,f,c
  1085   00E468  D7FC               	bra	u5087
  1086   00E46A  D000               	nop2	
  1087   00E46C  D000               	nop2	
  1088   00E46E                     
  1089                           ;main.c: 211:                 if(!PORTCbits.RC6 && taster1Flag && !led1Blink && !led2Bli
      +                          nk && !led3Blink && !led4Blink)
  1090   00E46E  BCD0               	btfsc	208,6,c	;volatile
  1091   00E470  EF3C  F072         	goto	u2981
  1092   00E474  EF3E  F072         	goto	u2980
  1093   00E478                     u2981:
  1094   00E478  EF69  F072         	goto	l2984
  1095   00E47C                     u2980:
  1096   00E47C  0105               	movlb	5	; () banked
  1097   00E47E  517A               	movf	main@taster1Flag& (0+255),w,b
  1098   00E480  B4D8               	btfsc	status,2,c
  1099   00E482  EF45  F072         	goto	u2991
  1100   00E486  EF47  F072         	goto	u2990
  1101   00E48A                     u2991:
  1102   00E48A  EF69  F072         	goto	l2984
  1103   00E48E                     u2990:
  1104   00E48E                     
  1105                           ; BSR set to: 5
  1106   00E48E  5188               	movf	main@led1Blink& (0+255),w,b
  1107   00E490  A4D8               	btfss	status,2,c
  1108   00E492  EF4D  F072         	goto	u3001
  1109   00E496  EF4F  F072         	goto	u3000
  1110   00E49A                     u3001:
  1111   00E49A  EF69  F072         	goto	l2984
  1112   00E49E                     u3000:
  1113   00E49E                     
  1114                           ; BSR set to: 5
  1115   00E49E  5189               	movf	main@led2Blink& (0+255),w,b
  1116   00E4A0  A4D8               	btfss	status,2,c
  1117   00E4A2  EF55  F072         	goto	u3011
  1118   00E4A6  EF57  F072         	goto	u3010
  1119   00E4AA                     u3011:
  1120   00E4AA  EF69  F072         	goto	l2984
  1121   00E4AE                     u3010:
  1122   00E4AE                     
  1123                           ; BSR set to: 5
  1124   00E4AE  518A               	movf	main@led3Blink& (0+255),w,b
  1125   00E4B0  A4D8               	btfss	status,2,c
  1126   00E4B2  EF5D  F072         	goto	u3021
  1127   00E4B6  EF5F  F072         	goto	u3020
  1128   00E4BA                     u3021:
  1129   00E4BA  EF69  F072         	goto	l2984
  1130   00E4BE                     u3020:
  1131   00E4BE                     
  1132                           ; BSR set to: 5
  1133   00E4BE  518B               	movf	main@led4Blink& (0+255),w,b
  1134   00E4C0  A4D8               	btfss	status,2,c
  1135   00E4C2  EF65  F072         	goto	u3031
  1136   00E4C6  EF67  F072         	goto	u3030
  1137   00E4CA                     u3031:
  1138   00E4CA  EF69  F072         	goto	l2984
  1139   00E4CE                     u3030:
  1140   00E4CE                     
  1141                           ; BSR set to: 5
  1142                           ;main.c: 212:                 {;main.c: 213:                     state = T1Dummy;
  1143   00E4CE  0E05               	movlw	5
  1144   00E4D0  6F93               	movwf	main@state& (0+255),b
  1145   00E4D2                     l2984:
  1146                           
  1147                           ;main.c: 216:                 if(!PORTAbits.RA4 && taster2Flag && !led1Blink && !led2Bli
      +                          nk && !led3Blink && !led4Blink)
  1148   00E4D2  B8CE               	btfsc	206,4,c	;volatile
  1149   00E4D4  EF6E  F072         	goto	u3041
  1150   00E4D8  EF70  F072         	goto	u3040
  1151   00E4DC                     u3041:
  1152   00E4DC  EF9B  F072         	goto	l2998
  1153   00E4E0                     u3040:
  1154   00E4E0  0105               	movlb	5	; () banked
  1155   00E4E2  517B               	movf	main@taster2Flag& (0+255),w,b
  1156   00E4E4  B4D8               	btfsc	status,2,c
  1157   00E4E6  EF77  F072         	goto	u3051
  1158   00E4EA  EF79  F072         	goto	u3050
  1159   00E4EE                     u3051:
  1160   00E4EE  EF9B  F072         	goto	l2998
  1161   00E4F2                     u3050:
  1162   00E4F2                     
  1163                           ; BSR set to: 5
  1164   00E4F2  5188               	movf	main@led1Blink& (0+255),w,b
  1165   00E4F4  A4D8               	btfss	status,2,c
  1166   00E4F6  EF7F  F072         	goto	u3061
  1167   00E4FA  EF81  F072         	goto	u3060
  1168   00E4FE                     u3061:
  1169   00E4FE  EF9B  F072         	goto	l2998
  1170   00E502                     u3060:
  1171   00E502                     
  1172                           ; BSR set to: 5
  1173   00E502  5189               	movf	main@led2Blink& (0+255),w,b
  1174   00E504  A4D8               	btfss	status,2,c
  1175   00E506  EF87  F072         	goto	u3071
  1176   00E50A  EF89  F072         	goto	u3070
  1177   00E50E                     u3071:
  1178   00E50E  EF9B  F072         	goto	l2998
  1179   00E512                     u3070:
  1180   00E512                     
  1181                           ; BSR set to: 5
  1182   00E512  518A               	movf	main@led3Blink& (0+255),w,b
  1183   00E514  A4D8               	btfss	status,2,c
  1184   00E516  EF8F  F072         	goto	u3081
  1185   00E51A  EF91  F072         	goto	u3080
  1186   00E51E                     u3081:
  1187   00E51E  EF9B  F072         	goto	l2998
  1188   00E522                     u3080:
  1189   00E522                     
  1190                           ; BSR set to: 5
  1191   00E522  518B               	movf	main@led4Blink& (0+255),w,b
  1192   00E524  A4D8               	btfss	status,2,c
  1193   00E526  EF97  F072         	goto	u3091
  1194   00E52A  EF99  F072         	goto	u3090
  1195   00E52E                     u3091:
  1196   00E52E  EF9B  F072         	goto	l2998
  1197   00E532                     u3090:
  1198   00E532                     
  1199                           ; BSR set to: 5
  1200                           ;main.c: 217:                 {;main.c: 218:                     state = T2Dummy;
  1201   00E532  0E06               	movlw	6
  1202   00E534  6F93               	movwf	main@state& (0+255),b
  1203   00E536                     l2998:
  1204                           
  1205                           ;main.c: 221:                 if(!PORTCbits.RC4 && taster3Flag && !led1Blink && !led2Bli
      +                          nk && !led3Blink && !led4Blink)
  1206   00E536  B8D0               	btfsc	208,4,c	;volatile
  1207   00E538  EFA0  F072         	goto	u3101
  1208   00E53C  EFA2  F072         	goto	u3100
  1209   00E540                     u3101:
  1210   00E540  EFCD  F072         	goto	l3012
  1211   00E544                     u3100:
  1212   00E544  0105               	movlb	5	; () banked
  1213   00E546  517D               	movf	main@taster3Flag& (0+255),w,b
  1214   00E548  B4D8               	btfsc	status,2,c
  1215   00E54A  EFA9  F072         	goto	u3111
  1216   00E54E  EFAB  F072         	goto	u3110
  1217   00E552                     u3111:
  1218   00E552  EFCD  F072         	goto	l3012
  1219   00E556                     u3110:
  1220   00E556                     
  1221                           ; BSR set to: 5
  1222   00E556  5188               	movf	main@led1Blink& (0+255),w,b
  1223   00E558  A4D8               	btfss	status,2,c
  1224   00E55A  EFB1  F072         	goto	u3121
  1225   00E55E  EFB3  F072         	goto	u3120
  1226   00E562                     u3121:
  1227   00E562  EFCD  F072         	goto	l3012
  1228   00E566                     u3120:
  1229   00E566                     
  1230                           ; BSR set to: 5
  1231   00E566  5189               	movf	main@led2Blink& (0+255),w,b
  1232   00E568  A4D8               	btfss	status,2,c
  1233   00E56A  EFB9  F072         	goto	u3131
  1234   00E56E  EFBB  F072         	goto	u3130
  1235   00E572                     u3131:
  1236   00E572  EFCD  F072         	goto	l3012
  1237   00E576                     u3130:
  1238   00E576                     
  1239                           ; BSR set to: 5
  1240   00E576  518A               	movf	main@led3Blink& (0+255),w,b
  1241   00E578  A4D8               	btfss	status,2,c
  1242   00E57A  EFC1  F072         	goto	u3141
  1243   00E57E  EFC3  F072         	goto	u3140
  1244   00E582                     u3141:
  1245   00E582  EFCD  F072         	goto	l3012
  1246   00E586                     u3140:
  1247   00E586                     
  1248                           ; BSR set to: 5
  1249   00E586  518B               	movf	main@led4Blink& (0+255),w,b
  1250   00E588  A4D8               	btfss	status,2,c
  1251   00E58A  EFC9  F072         	goto	u3151
  1252   00E58E  EFCB  F072         	goto	u3150
  1253   00E592                     u3151:
  1254   00E592  EFCD  F072         	goto	l3012
  1255   00E596                     u3150:
  1256   00E596                     
  1257                           ; BSR set to: 5
  1258                           ;main.c: 222:                 {;main.c: 223:                     state = T3Dummy;
  1259   00E596  0E07               	movlw	7
  1260   00E598  6F93               	movwf	main@state& (0+255),b
  1261   00E59A                     l3012:
  1262                           
  1263                           ;main.c: 225:                 if(!PORTBbits.RB7 && taster4Flag && !led1Blink && !led2Bli
      +                          nk && !led3Blink && !led4Blink)
  1264   00E59A  BECF               	btfsc	207,7,c	;volatile
  1265   00E59C  EFD2  F072         	goto	u3161
  1266   00E5A0  EFD4  F072         	goto	u3160
  1267   00E5A4                     u3161:
  1268   00E5A4  EFFF  F072         	goto	l378
  1269   00E5A8                     u3160:
  1270   00E5A8  0105               	movlb	5	; () banked
  1271   00E5AA  517C               	movf	main@taster4Flag& (0+255),w,b
  1272   00E5AC  B4D8               	btfsc	status,2,c
  1273   00E5AE  EFDB  F072         	goto	u3171
  1274   00E5B2  EFDD  F072         	goto	u3170
  1275   00E5B6                     u3171:
  1276   00E5B6  EFFF  F072         	goto	l378
  1277   00E5BA                     u3170:
  1278   00E5BA                     
  1279                           ; BSR set to: 5
  1280   00E5BA  5188               	movf	main@led1Blink& (0+255),w,b
  1281   00E5BC  A4D8               	btfss	status,2,c
  1282   00E5BE  EFE3  F072         	goto	u3181
  1283   00E5C2  EFE5  F072         	goto	u3180
  1284   00E5C6                     u3181:
  1285   00E5C6  EFFF  F072         	goto	l378
  1286   00E5CA                     u3180:
  1287   00E5CA                     
  1288                           ; BSR set to: 5
  1289   00E5CA  5189               	movf	main@led2Blink& (0+255),w,b
  1290   00E5CC  A4D8               	btfss	status,2,c
  1291   00E5CE  EFEB  F072         	goto	u3191
  1292   00E5D2  EFED  F072         	goto	u3190
  1293   00E5D6                     u3191:
  1294   00E5D6  EFFF  F072         	goto	l378
  1295   00E5DA                     u3190:
  1296   00E5DA                     
  1297                           ; BSR set to: 5
  1298   00E5DA  518A               	movf	main@led3Blink& (0+255),w,b
  1299   00E5DC  A4D8               	btfss	status,2,c
  1300   00E5DE  EFF3  F072         	goto	u3201
  1301   00E5E2  EFF5  F072         	goto	u3200
  1302   00E5E6                     u3201:
  1303   00E5E6  EFFF  F072         	goto	l378
  1304   00E5EA                     u3200:
  1305   00E5EA                     
  1306                           ; BSR set to: 5
  1307   00E5EA  518B               	movf	main@led4Blink& (0+255),w,b
  1308   00E5EC  A4D8               	btfss	status,2,c
  1309   00E5EE  EFFB  F072         	goto	u3211
  1310   00E5F2  EFFD  F072         	goto	u3210
  1311   00E5F6                     u3211:
  1312   00E5F6  EFFF  F072         	goto	l378
  1313   00E5FA                     u3210:
  1314   00E5FA                     
  1315                           ; BSR set to: 5
  1316                           ;main.c: 226:                 {;main.c: 227:                     state = T4Dummy ;
  1317   00E5FA  0E08               	movlw	8
  1318   00E5FC  6F93               	movwf	main@state& (0+255),b
  1319   00E5FE                     l378:
  1320                           
  1321                           ;main.c: 231:                 if((led1Blink || led2Blink || led3Blink || led4Blink) && (
      +                          ++timeout10s == 500))
  1322   00E5FE  0105               	movlb	5	; () banked
  1323   00E600  5188               	movf	main@led1Blink& (0+255),w,b
  1324   00E602  A4D8               	btfss	status,2,c
  1325   00E604  EF06  F073         	goto	u3221
  1326   00E608  EF08  F073         	goto	u3220
  1327   00E60C                     u3221:
  1328   00E60C  EF20  F073         	goto	l3032
  1329   00E610                     u3220:
  1330   00E610                     
  1331                           ; BSR set to: 5
  1332   00E610  5189               	movf	main@led2Blink& (0+255),w,b
  1333   00E612  A4D8               	btfss	status,2,c
  1334   00E614  EF0E  F073         	goto	u3231
  1335   00E618  EF10  F073         	goto	u3230
  1336   00E61C                     u3231:
  1337   00E61C  EF20  F073         	goto	l3032
  1338   00E620                     u3230:
  1339   00E620                     
  1340                           ; BSR set to: 5
  1341   00E620  518A               	movf	main@led3Blink& (0+255),w,b
  1342   00E622  A4D8               	btfss	status,2,c
  1343   00E624  EF16  F073         	goto	u3241
  1344   00E628  EF18  F073         	goto	u3240
  1345   00E62C                     u3241:
  1346   00E62C  EF20  F073         	goto	l3032
  1347   00E630                     u3240:
  1348   00E630                     
  1349                           ; BSR set to: 5
  1350   00E630  518B               	movf	main@led4Blink& (0+255),w,b
  1351   00E632  B4D8               	btfsc	status,2,c
  1352   00E634  EF1E  F073         	goto	u3251
  1353   00E638  EF20  F073         	goto	u3250
  1354   00E63C                     u3251:
  1355   00E63C  EF39  F073         	goto	l379
  1356   00E640                     u3250:
  1357   00E640                     l3032:
  1358                           
  1359                           ; BSR set to: 5
  1360   00E640  4B63               	infsnz	main@timeout10s& (0+255),f,b
  1361   00E642  2B64               	incf	(main@timeout10s+1)& (0+255),f,b
  1362   00E644  0EF4               	movlw	244
  1363   00E646  1963               	xorwf	main@timeout10s& (0+255),w,b
  1364   00E648  E106               	bnz	u3261
  1365   00E64A  0564               	decf	(main@timeout10s+1)& (0+255),w,b
  1366   00E64C  A4D8               	btfss	status,2,c
  1367   00E64E  EF2B  F073         	goto	u3261
  1368   00E652  EF2D  F073         	goto	u3260
  1369   00E656                     u3261:
  1370   00E656  EF39  F073         	goto	l379
  1371   00E65A                     u3260:
  1372   00E65A                     
  1373                           ; BSR set to: 5
  1374                           ;main.c: 232:                 {;main.c: 233:                     timeout10s = 0;
  1375   00E65A  0E00               	movlw	0
  1376   00E65C  6F64               	movwf	(main@timeout10s+1)& (0+255),b
  1377   00E65E  0E00               	movlw	0
  1378   00E660  6F63               	movwf	main@timeout10s& (0+255),b
  1379                           
  1380                           ;main.c: 235:                     led1Blink = 0;
  1381   00E662  0E00               	movlw	0
  1382   00E664  6F88               	movwf	main@led1Blink& (0+255),b
  1383                           
  1384                           ;main.c: 236:                     led2Blink = 0;
  1385   00E666  0E00               	movlw	0
  1386   00E668  6F89               	movwf	main@led2Blink& (0+255),b
  1387                           
  1388                           ;main.c: 237:                     led3Blink = 0;
  1389   00E66A  0E00               	movlw	0
  1390   00E66C  6F8A               	movwf	main@led3Blink& (0+255),b
  1391                           
  1392                           ;main.c: 238:                     led4Blink = 0;
  1393   00E66E  0E00               	movlw	0
  1394   00E670  6F8B               	movwf	main@led4Blink& (0+255),b
  1395   00E672                     l379:
  1396                           
  1397                           ; BSR set to: 5
  1398                           ;main.c: 241:                 if(led1Blink && ++timeout500ms == 12)
  1399   00E672  5188               	movf	main@led1Blink& (0+255),w,b
  1400   00E674  B4D8               	btfsc	status,2,c
  1401   00E676  EF3F  F073         	goto	u3271
  1402   00E67A  EF41  F073         	goto	u3270
  1403   00E67E                     u3271:
  1404   00E67E  EF5E  F073         	goto	l3042
  1405   00E682                     u3270:
  1406   00E682                     
  1407                           ; BSR set to: 5
  1408   00E682  2B75               	incf	main@timeout500ms& (0+255),f,b
  1409   00E684  0E0C               	movlw	12
  1410   00E686  1975               	xorwf	main@timeout500ms& (0+255),w,b
  1411   00E688  A4D8               	btfss	status,2,c
  1412   00E68A  EF49  F073         	goto	u3281
  1413   00E68E  EF4B  F073         	goto	u3280
  1414   00E692                     u3281:
  1415   00E692  EF5E  F073         	goto	l3042
  1416   00E696                     u3280:
  1417   00E696                     
  1418                           ; BSR set to: 5
  1419                           ;main.c: 242:                 {;main.c: 243:                     timeout500ms = 0;
  1420   00E696  0E00               	movlw	0
  1421   00E698  6F75               	movwf	main@timeout500ms& (0+255),b
  1422   00E69A                     
  1423                           ; BSR set to: 5
  1424                           ;main.c: 244:                     LATCbits.LATC7 = !LATCbits.LATC7;
  1425   00E69A  AEC0               	btfss	192,7,c	;volatile
  1426   00E69C  EF52  F073         	goto	u3291
  1427   00E6A0  EF56  F073         	goto	u3290
  1428   00E6A4                     u3291:
  1429   00E6A4  6A2F               	clrf	??_main^(0+1280),c
  1430   00E6A6  2A2F               	incf	??_main^(0+1280),f,c
  1431   00E6A8  EF57  F073         	goto	u3308
  1432   00E6AC                     u3290:
  1433   00E6AC  6A2F               	clrf	??_main^(0+1280),c
  1434   00E6AE                     u3308:
  1435   00E6AE  322F               	rrcf	??_main^(0+1280),f,c
  1436   00E6B0  322F               	rrcf	??_main^(0+1280),f,c
  1437   00E6B2  50C0               	movf	192,w,c	;volatile
  1438   00E6B4  182F               	xorwf	??_main^(0+1280),w,c
  1439   00E6B6  0B7F               	andlw	-129
  1440   00E6B8  182F               	xorwf	??_main^(0+1280),w,c
  1441   00E6BA  6EC0               	movwf	192,c	;volatile
  1442   00E6BC                     l3042:
  1443                           
  1444                           ;main.c: 247:                 if(led2Blink && ++timeout500ms == 12)
  1445   00E6BC  0105               	movlb	5	; () banked
  1446   00E6BE  5189               	movf	main@led2Blink& (0+255),w,b
  1447   00E6C0  B4D8               	btfsc	status,2,c
  1448   00E6C2  EF65  F073         	goto	u3311
  1449   00E6C6  EF67  F073         	goto	u3310
  1450   00E6CA                     u3311:
  1451   00E6CA  EF84  F073         	goto	l3050
  1452   00E6CE                     u3310:
  1453   00E6CE                     
  1454                           ; BSR set to: 5
  1455   00E6CE  2B75               	incf	main@timeout500ms& (0+255),f,b
  1456   00E6D0  0E0C               	movlw	12
  1457   00E6D2  1975               	xorwf	main@timeout500ms& (0+255),w,b
  1458   00E6D4  A4D8               	btfss	status,2,c
  1459   00E6D6  EF6F  F073         	goto	u3321
  1460   00E6DA  EF71  F073         	goto	u3320
  1461   00E6DE                     u3321:
  1462   00E6DE  EF84  F073         	goto	l3050
  1463   00E6E2                     u3320:
  1464   00E6E2                     
  1465                           ; BSR set to: 5
  1466                           ;main.c: 248:                 {;main.c: 249:                     timeout500ms = 0;
  1467   00E6E2  0E00               	movlw	0
  1468   00E6E4  6F75               	movwf	main@timeout500ms& (0+255),b
  1469   00E6E6                     
  1470                           ; BSR set to: 5
  1471                           ;main.c: 250:                     LATCbits.LATC5 = !LATCbits.LATC5;
  1472   00E6E6  AAC0               	btfss	192,5,c	;volatile
  1473   00E6E8  EF78  F073         	goto	u3331
  1474   00E6EC  EF7C  F073         	goto	u3330
  1475   00E6F0                     u3331:
  1476   00E6F0  6A2F               	clrf	??_main^(0+1280),c
  1477   00E6F2  2A2F               	incf	??_main^(0+1280),f,c
  1478   00E6F4  EF7D  F073         	goto	u3348
  1479   00E6F8                     u3330:
  1480   00E6F8  6A2F               	clrf	??_main^(0+1280),c
  1481   00E6FA                     u3348:
  1482   00E6FA  3A2F               	swapf	??_main^(0+1280),f,c
  1483   00E6FC  462F               	rlncf	??_main^(0+1280),f,c
  1484   00E6FE  50C0               	movf	192,w,c	;volatile
  1485   00E700  182F               	xorwf	??_main^(0+1280),w,c
  1486   00E702  0BDF               	andlw	-33
  1487   00E704  182F               	xorwf	??_main^(0+1280),w,c
  1488   00E706  6EC0               	movwf	192,c	;volatile
  1489   00E708                     l3050:
  1490                           
  1491                           ;main.c: 253:                 if(led3Blink && ++timeout500ms == 12)
  1492   00E708  0105               	movlb	5	; () banked
  1493   00E70A  518A               	movf	main@led3Blink& (0+255),w,b
  1494   00E70C  B4D8               	btfsc	status,2,c
  1495   00E70E  EF8B  F073         	goto	u3351
  1496   00E712  EF8D  F073         	goto	u3350
  1497   00E716                     u3351:
  1498   00E716  EFAA  F073         	goto	l3058
  1499   00E71A                     u3350:
  1500   00E71A                     
  1501                           ; BSR set to: 5
  1502   00E71A  2B75               	incf	main@timeout500ms& (0+255),f,b
  1503   00E71C  0E0C               	movlw	12
  1504   00E71E  1975               	xorwf	main@timeout500ms& (0+255),w,b
  1505   00E720  A4D8               	btfss	status,2,c
  1506   00E722  EF95  F073         	goto	u3361
  1507   00E726  EF97  F073         	goto	u3360
  1508   00E72A                     u3361:
  1509   00E72A  EFAA  F073         	goto	l3058
  1510   00E72E                     u3360:
  1511   00E72E                     
  1512                           ; BSR set to: 5
  1513                           ;main.c: 254:                 {;main.c: 255:                     timeout500ms = 0;
  1514   00E72E  0E00               	movlw	0
  1515   00E730  6F75               	movwf	main@timeout500ms& (0+255),b
  1516   00E732                     
  1517                           ; BSR set to: 5
  1518                           ;main.c: 256:                     LATAbits.LATA5 = !LATAbits.LATA5;
  1519   00E732  AABE               	btfss	190,5,c	;volatile
  1520   00E734  EF9E  F073         	goto	u3371
  1521   00E738  EFA2  F073         	goto	u3370
  1522   00E73C                     u3371:
  1523   00E73C  6A2F               	clrf	??_main^(0+1280),c
  1524   00E73E  2A2F               	incf	??_main^(0+1280),f,c
  1525   00E740  EFA3  F073         	goto	u3388
  1526   00E744                     u3370:
  1527   00E744  6A2F               	clrf	??_main^(0+1280),c
  1528   00E746                     u3388:
  1529   00E746  3A2F               	swapf	??_main^(0+1280),f,c
  1530   00E748  462F               	rlncf	??_main^(0+1280),f,c
  1531   00E74A  50BE               	movf	190,w,c	;volatile
  1532   00E74C  182F               	xorwf	??_main^(0+1280),w,c
  1533   00E74E  0BDF               	andlw	-33
  1534   00E750  182F               	xorwf	??_main^(0+1280),w,c
  1535   00E752  6EBE               	movwf	190,c	;volatile
  1536   00E754                     l3058:
  1537                           
  1538                           ;main.c: 259:                 if(led4Blink && ++timeout500ms == 12)
  1539   00E754  0105               	movlb	5	; () banked
  1540   00E756  518B               	movf	main@led4Blink& (0+255),w,b
  1541   00E758  B4D8               	btfsc	status,2,c
  1542   00E75A  EFB1  F073         	goto	u3391
  1543   00E75E  EFB3  F073         	goto	u3390
  1544   00E762                     u3391:
  1545   00E762  EFD1  F073         	goto	l3066
  1546   00E766                     u3390:
  1547   00E766                     
  1548                           ; BSR set to: 5
  1549   00E766  2B75               	incf	main@timeout500ms& (0+255),f,b
  1550   00E768  0E0C               	movlw	12
  1551   00E76A  1975               	xorwf	main@timeout500ms& (0+255),w,b
  1552   00E76C  A4D8               	btfss	status,2,c
  1553   00E76E  EFBB  F073         	goto	u3401
  1554   00E772  EFBD  F073         	goto	u3400
  1555   00E776                     u3401:
  1556   00E776  EFD1  F073         	goto	l3066
  1557   00E77A                     u3400:
  1558   00E77A                     
  1559                           ; BSR set to: 5
  1560                           ;main.c: 260:                 {;main.c: 261:                     timeout500ms = 0;
  1561   00E77A  0E00               	movlw	0
  1562   00E77C  6F75               	movwf	main@timeout500ms& (0+255),b
  1563   00E77E                     
  1564                           ; BSR set to: 5
  1565                           ;main.c: 262:                     LATCbits.LATC3 = !LATCbits.LATC3;
  1566   00E77E  A6C0               	btfss	192,3,c	;volatile
  1567   00E780  EFC4  F073         	goto	u3411
  1568   00E784  EFC8  F073         	goto	u3410
  1569   00E788                     u3411:
  1570   00E788  6A2F               	clrf	??_main^(0+1280),c
  1571   00E78A  2A2F               	incf	??_main^(0+1280),f,c
  1572   00E78C  EFC9  F073         	goto	u3428
  1573   00E790                     u3410:
  1574   00E790  6A2F               	clrf	??_main^(0+1280),c
  1575   00E792                     u3428:
  1576   00E792  462F               	rlncf	??_main^(0+1280),f,c
  1577   00E794  462F               	rlncf	??_main^(0+1280),f,c
  1578   00E796  462F               	rlncf	??_main^(0+1280),f,c
  1579   00E798  50C0               	movf	192,w,c	;volatile
  1580   00E79A  182F               	xorwf	??_main^(0+1280),w,c
  1581   00E79C  0BF7               	andlw	-9
  1582   00E79E  182F               	xorwf	??_main^(0+1280),w,c
  1583   00E7A0  6EC0               	movwf	192,c	;volatile
  1584   00E7A2                     l3066:
  1585                           
  1586                           ;main.c: 265:                 if(!(led1Blink || led2Blink || led3Blink || led4Blink))
  1587   00E7A2  0105               	movlb	5	; () banked
  1588   00E7A4  5188               	movf	main@led1Blink& (0+255),w,b
  1589   00E7A6  A4D8               	btfss	status,2,c
  1590   00E7A8  EFD8  F073         	goto	u3431
  1591   00E7AC  EFDA  F073         	goto	u3430
  1592   00E7B0                     u3431:
  1593   00E7B0  EFF8  F073         	goto	l386
  1594   00E7B4                     u3430:
  1595   00E7B4                     
  1596                           ; BSR set to: 5
  1597   00E7B4  5189               	movf	main@led2Blink& (0+255),w,b
  1598   00E7B6  A4D8               	btfss	status,2,c
  1599   00E7B8  EFE0  F073         	goto	u3441
  1600   00E7BC  EFE2  F073         	goto	u3440
  1601   00E7C0                     u3441:
  1602   00E7C0  EFF8  F073         	goto	l386
  1603   00E7C4                     u3440:
  1604   00E7C4                     
  1605                           ; BSR set to: 5
  1606   00E7C4  518A               	movf	main@led3Blink& (0+255),w,b
  1607   00E7C6  A4D8               	btfss	status,2,c
  1608   00E7C8  EFE8  F073         	goto	u3451
  1609   00E7CC  EFEA  F073         	goto	u3450
  1610   00E7D0                     u3451:
  1611   00E7D0  EFF8  F073         	goto	l386
  1612   00E7D4                     u3450:
  1613   00E7D4                     
  1614                           ; BSR set to: 5
  1615   00E7D4  518B               	movf	main@led4Blink& (0+255),w,b
  1616   00E7D6  A4D8               	btfss	status,2,c
  1617   00E7D8  EFF0  F073         	goto	u3461
  1618   00E7DC  EFF2  F073         	goto	u3460
  1619   00E7E0                     u3461:
  1620   00E7E0  EFF8  F073         	goto	l386
  1621   00E7E4                     u3460:
  1622   00E7E4                     
  1623                           ; BSR set to: 5
  1624                           ;main.c: 266:                 {;main.c: 267:                     timeout500ms = 0;
  1625   00E7E4  0E00               	movlw	0
  1626   00E7E6  6F75               	movwf	main@timeout500ms& (0+255),b
  1627   00E7E8                     
  1628                           ; BSR set to: 5
  1629                           ;main.c: 269:                     LATCbits.LATC7 = 0;
  1630   00E7E8  9EC0               	bcf	192,7,c	;volatile
  1631   00E7EA                     
  1632                           ; BSR set to: 5
  1633                           ;main.c: 270:                     LATCbits.LATC5 = 0;
  1634   00E7EA  9AC0               	bcf	192,5,c	;volatile
  1635   00E7EC                     
  1636                           ; BSR set to: 5
  1637                           ;main.c: 271:                     LATAbits.LATA5 = 0;
  1638   00E7EC  9ABE               	bcf	190,5,c	;volatile
  1639   00E7EE                     
  1640                           ; BSR set to: 5
  1641                           ;main.c: 272:                     LATCbits.LATC3 = 0;
  1642   00E7EE  96C0               	bcf	192,3,c	;volatile
  1643   00E7F0                     l386:
  1644                           
  1645                           ; BSR set to: 5
  1646                           ;main.c: 277:                 if(led1Blink && !PORTCbits.RC6 && taster1Flag)
  1647   00E7F0  5188               	movf	main@led1Blink& (0+255),w,b
  1648   00E7F2  B4D8               	btfsc	status,2,c
  1649   00E7F4  EFFE  F073         	goto	u3471
  1650   00E7F8  EF00  F074         	goto	u3470
  1651   00E7FC                     u3471:
  1652   00E7FC  EF41  F074         	goto	l3102
  1653   00E800                     u3470:
  1654   00E800                     
  1655                           ; BSR set to: 5
  1656   00E800  BCD0               	btfsc	208,6,c	;volatile
  1657   00E802  EF05  F074         	goto	u3481
  1658   00E806  EF07  F074         	goto	u3480
  1659   00E80A                     u3481:
  1660   00E80A  EF41  F074         	goto	l3102
  1661   00E80E                     u3480:
  1662   00E80E                     
  1663                           ; BSR set to: 5
  1664   00E80E  517A               	movf	main@taster1Flag& (0+255),w,b
  1665   00E810  B4D8               	btfsc	status,2,c
  1666   00E812  EF0D  F074         	goto	u3491
  1667   00E816  EF0F  F074         	goto	u3490
  1668   00E81A                     u3491:
  1669   00E81A  EF41  F074         	goto	l3102
  1670   00E81E                     u3490:
  1671   00E81E                     
  1672                           ; BSR set to: 5
  1673                           ;main.c: 278:                 {;main.c: 279:                     redMode1 = red;
  1674   00E81E  C590  F58C         	movff	main@red,main@redMode1
  1675                           
  1676                           ;main.c: 280:                     greenMode1 = green;
  1677   00E822  C591  F58D         	movff	main@green,main@greenMode1
  1678                           
  1679                           ;main.c: 281:                     blueMode1 = blue;
  1680   00E826  C592  F58E         	movff	main@blue,main@blueMode1
  1681                           
  1682                           ;main.c: 282:                     whiteMode1 = white;
  1683   00E82A  C58F  F57E         	movff	main@white,main@whiteMode1
  1684   00E82E                     
  1685                           ; BSR set to: 5
  1686                           ;main.c: 283:                     led1Blink = 0;
  1687   00E82E  0E00               	movlw	0
  1688   00E830  6F88               	movwf	main@led1Blink& (0+255),b
  1689   00E832                     
  1690                           ; BSR set to: 5
  1691                           ;main.c: 284:                     DATAEE_WriteByte(15, blueMode1);
  1692   00E832  0E00               	movlw	0
  1693   00E834  6E02               	movwf	(DATAEE_WriteByte@bAdd+1)^(0+1280),c
  1694   00E836  0E0F               	movlw	15
  1695   00E838  6E01               	movwf	DATAEE_WriteByte@bAdd^(0+1280),c
  1696   00E83A  C58E  F503         	movff	main@blueMode1,DATAEE_WriteByte@bData
  1697   00E83E  EC4B  F06D         	call	_DATAEE_WriteByte	;wreg free
  1698   00E842                     
  1699                           ;main.c: 285:                     DATAEE_WriteByte(12, greenMode1);
  1700   00E842  0E00               	movlw	0
  1701   00E844  6E02               	movwf	(DATAEE_WriteByte@bAdd+1)^(0+1280),c
  1702   00E846  0E0C               	movlw	12
  1703   00E848  6E01               	movwf	DATAEE_WriteByte@bAdd^(0+1280),c
  1704   00E84A  C58D  F503         	movff	main@greenMode1,DATAEE_WriteByte@bData
  1705   00E84E  EC4B  F06D         	call	_DATAEE_WriteByte	;wreg free
  1706   00E852                     
  1707                           ;main.c: 286:                     DATAEE_WriteByte(11, redMode1);
  1708   00E852  0E00               	movlw	0
  1709   00E854  6E02               	movwf	(DATAEE_WriteByte@bAdd+1)^(0+1280),c
  1710   00E856  0E0B               	movlw	11
  1711   00E858  6E01               	movwf	DATAEE_WriteByte@bAdd^(0+1280),c
  1712   00E85A  C58C  F503         	movff	main@redMode1,DATAEE_WriteByte@bData
  1713   00E85E  EC4B  F06D         	call	_DATAEE_WriteByte	;wreg free
  1714   00E862                     
  1715                           ;main.c: 287:                     DATAEE_WriteByte(17, whiteMode1);
  1716   00E862  0E00               	movlw	0
  1717   00E864  6E02               	movwf	(DATAEE_WriteByte@bAdd+1)^(0+1280),c
  1718   00E866  0E11               	movlw	17
  1719   00E868  6E01               	movwf	DATAEE_WriteByte@bAdd^(0+1280),c
  1720   00E86A  C57E  F503         	movff	main@whiteMode1,DATAEE_WriteByte@bData
  1721   00E86E  EC4B  F06D         	call	_DATAEE_WriteByte	;wreg free
  1722   00E872                     
  1723                           ;main.c: 288:                     DATAEE_WriteByte(3, 69);
  1724   00E872  0E00               	movlw	0
  1725   00E874  6E02               	movwf	(DATAEE_WriteByte@bAdd+1)^(0+1280),c
  1726   00E876  0E03               	movlw	3
  1727   00E878  6E01               	movwf	DATAEE_WriteByte@bAdd^(0+1280),c
  1728   00E87A  0E45               	movlw	69
  1729   00E87C  6E03               	movwf	DATAEE_WriteByte@bData^(0+1280),c
  1730   00E87E  EC4B  F06D         	call	_DATAEE_WriteByte	;wreg free
  1731   00E882                     l3102:
  1732                           
  1733                           ;main.c: 291:                 if(led2Blink && !PORTAbits.RA4 && taster2Flag)
  1734   00E882  0105               	movlb	5	; () banked
  1735   00E884  5189               	movf	main@led2Blink& (0+255),w,b
  1736   00E886  B4D8               	btfsc	status,2,c
  1737   00E888  EF48  F074         	goto	u3501
  1738   00E88C  EF4A  F074         	goto	u3500
  1739   00E890                     u3501:
  1740   00E890  EF8B  F074         	goto	l3122
  1741   00E894                     u3500:
  1742   00E894                     
  1743                           ; BSR set to: 5
  1744   00E894  B8CE               	btfsc	206,4,c	;volatile
  1745   00E896  EF4F  F074         	goto	u3511
  1746   00E89A  EF51  F074         	goto	u3510
  1747   00E89E                     u3511:
  1748   00E89E  EF8B  F074         	goto	l3122
  1749   00E8A2                     u3510:
  1750   00E8A2                     
  1751                           ; BSR set to: 5
  1752   00E8A2  517B               	movf	main@taster2Flag& (0+255),w,b
  1753   00E8A4  B4D8               	btfsc	status,2,c
  1754   00E8A6  EF57  F074         	goto	u3521
  1755   00E8AA  EF59  F074         	goto	u3520
  1756   00E8AE                     u3521:
  1757   00E8AE  EF8B  F074         	goto	l3122
  1758   00E8B2                     u3520:
  1759   00E8B2                     
  1760                           ; BSR set to: 5
  1761                           ;main.c: 292:                 {;main.c: 293:                     redMode2 = red;
  1762   00E8B2  C590  F57F         	movff	main@red,main@redMode2
  1763                           
  1764                           ;main.c: 294:                     greenMode2 = green;
  1765   00E8B6  C591  F580         	movff	main@green,main@greenMode2
  1766                           
  1767                           ;main.c: 295:                     blueMode2 = blue;
  1768   00E8BA  C592  F581         	movff	main@blue,main@blueMode2
  1769                           
  1770                           ;main.c: 296:                     whiteMode2 = white;
  1771   00E8BE  C58F  F56D         	movff	main@white,main@whiteMode2
  1772   00E8C2                     
  1773                           ; BSR set to: 5
  1774                           ;main.c: 297:                     led2Blink = 0;
  1775   00E8C2  0E00               	movlw	0
  1776   00E8C4  6F89               	movwf	main@led2Blink& (0+255),b
  1777   00E8C6                     
  1778                           ; BSR set to: 5
  1779                           ;main.c: 298:                     DATAEE_WriteByte(20, blueMode2);
  1780   00E8C6  0E00               	movlw	0
  1781   00E8C8  6E02               	movwf	(DATAEE_WriteByte@bAdd+1)^(0+1280),c
  1782   00E8CA  0E14               	movlw	20
  1783   00E8CC  6E01               	movwf	DATAEE_WriteByte@bAdd^(0+1280),c
  1784   00E8CE  C581  F503         	movff	main@blueMode2,DATAEE_WriteByte@bData
  1785   00E8D2  EC4B  F06D         	call	_DATAEE_WriteByte	;wreg free
  1786   00E8D6                     
  1787                           ;main.c: 299:                     DATAEE_WriteByte(19, greenMode2);
  1788   00E8D6  0E00               	movlw	0
  1789   00E8D8  6E02               	movwf	(DATAEE_WriteByte@bAdd+1)^(0+1280),c
  1790   00E8DA  0E13               	movlw	19
  1791   00E8DC  6E01               	movwf	DATAEE_WriteByte@bAdd^(0+1280),c
  1792   00E8DE  C580  F503         	movff	main@greenMode2,DATAEE_WriteByte@bData
  1793   00E8E2  EC4B  F06D         	call	_DATAEE_WriteByte	;wreg free
  1794   00E8E6                     
  1795                           ;main.c: 300:                     DATAEE_WriteByte(18, redMode2);
  1796   00E8E6  0E00               	movlw	0
  1797   00E8E8  6E02               	movwf	(DATAEE_WriteByte@bAdd+1)^(0+1280),c
  1798   00E8EA  0E12               	movlw	18
  1799   00E8EC  6E01               	movwf	DATAEE_WriteByte@bAdd^(0+1280),c
  1800   00E8EE  C57F  F503         	movff	main@redMode2,DATAEE_WriteByte@bData
  1801   00E8F2  EC4B  F06D         	call	_DATAEE_WriteByte	;wreg free
  1802   00E8F6                     
  1803                           ;main.c: 301:                     DATAEE_WriteByte(21, whiteMode2);
  1804   00E8F6  0E00               	movlw	0
  1805   00E8F8  6E02               	movwf	(DATAEE_WriteByte@bAdd+1)^(0+1280),c
  1806   00E8FA  0E15               	movlw	21
  1807   00E8FC  6E01               	movwf	DATAEE_WriteByte@bAdd^(0+1280),c
  1808   00E8FE  C56D  F503         	movff	main@whiteMode2,DATAEE_WriteByte@bData
  1809   00E902  EC4B  F06D         	call	_DATAEE_WriteByte	;wreg free
  1810   00E906                     
  1811                           ;main.c: 302:                     DATAEE_WriteByte(4, 69);
  1812   00E906  0E00               	movlw	0
  1813   00E908  6E02               	movwf	(DATAEE_WriteByte@bAdd+1)^(0+1280),c
  1814   00E90A  0E04               	movlw	4
  1815   00E90C  6E01               	movwf	DATAEE_WriteByte@bAdd^(0+1280),c
  1816   00E90E  0E45               	movlw	69
  1817   00E910  6E03               	movwf	DATAEE_WriteByte@bData^(0+1280),c
  1818   00E912  EC4B  F06D         	call	_DATAEE_WriteByte	;wreg free
  1819   00E916                     l3122:
  1820                           
  1821                           ;main.c: 305:                 if(led3Blink && !PORTCbits.RC4 && taster3Flag)
  1822   00E916  0105               	movlb	5	; () banked
  1823   00E918  518A               	movf	main@led3Blink& (0+255),w,b
  1824   00E91A  B4D8               	btfsc	status,2,c
  1825   00E91C  EF92  F074         	goto	u3531
  1826   00E920  EF94  F074         	goto	u3530
  1827   00E924                     u3531:
  1828   00E924  EFD5  F074         	goto	l3142
  1829   00E928                     u3530:
  1830   00E928                     
  1831                           ; BSR set to: 5
  1832   00E928  B8D0               	btfsc	208,4,c	;volatile
  1833   00E92A  EF99  F074         	goto	u3541
  1834   00E92E  EF9B  F074         	goto	u3540
  1835   00E932                     u3541:
  1836   00E932  EFD5  F074         	goto	l3142
  1837   00E936                     u3540:
  1838   00E936                     
  1839                           ; BSR set to: 5
  1840   00E936  517D               	movf	main@taster3Flag& (0+255),w,b
  1841   00E938  B4D8               	btfsc	status,2,c
  1842   00E93A  EFA1  F074         	goto	u3551
  1843   00E93E  EFA3  F074         	goto	u3550
  1844   00E942                     u3551:
  1845   00E942  EFD5  F074         	goto	l3142
  1846   00E946                     u3550:
  1847   00E946                     
  1848                           ; BSR set to: 5
  1849                           ;main.c: 306:                 {;main.c: 307:                     redMode3 = red;
  1850   00E946  C590  F582         	movff	main@red,main@redMode3
  1851                           
  1852                           ;main.c: 308:                     greenMode3 = green;
  1853   00E94A  C591  F583         	movff	main@green,main@greenMode3
  1854                           
  1855                           ;main.c: 309:                     blueMode3 = blue;
  1856   00E94E  C592  F584         	movff	main@blue,main@blueMode3
  1857                           
  1858                           ;main.c: 310:                     whiteMode3 = white;
  1859   00E952  C58F  F56E         	movff	main@white,main@whiteMode3
  1860   00E956                     
  1861                           ; BSR set to: 5
  1862                           ;main.c: 311:                     led3Blink = 0;
  1863   00E956  0E00               	movlw	0
  1864   00E958  6F8A               	movwf	main@led3Blink& (0+255),b
  1865   00E95A                     
  1866                           ; BSR set to: 5
  1867                           ;main.c: 312:                     DATAEE_WriteByte(25, blueMode3);
  1868   00E95A  0E00               	movlw	0
  1869   00E95C  6E02               	movwf	(DATAEE_WriteByte@bAdd+1)^(0+1280),c
  1870   00E95E  0E19               	movlw	25
  1871   00E960  6E01               	movwf	DATAEE_WriteByte@bAdd^(0+1280),c
  1872   00E962  C584  F503         	movff	main@blueMode3,DATAEE_WriteByte@bData
  1873   00E966  EC4B  F06D         	call	_DATAEE_WriteByte	;wreg free
  1874   00E96A                     
  1875                           ;main.c: 313:                     DATAEE_WriteByte(24, greenMode3);
  1876   00E96A  0E00               	movlw	0
  1877   00E96C  6E02               	movwf	(DATAEE_WriteByte@bAdd+1)^(0+1280),c
  1878   00E96E  0E18               	movlw	24
  1879   00E970  6E01               	movwf	DATAEE_WriteByte@bAdd^(0+1280),c
  1880   00E972  C583  F503         	movff	main@greenMode3,DATAEE_WriteByte@bData
  1881   00E976  EC4B  F06D         	call	_DATAEE_WriteByte	;wreg free
  1882   00E97A                     
  1883                           ;main.c: 314:                     DATAEE_WriteByte(22, redMode3);
  1884   00E97A  0E00               	movlw	0
  1885   00E97C  6E02               	movwf	(DATAEE_WriteByte@bAdd+1)^(0+1280),c
  1886   00E97E  0E16               	movlw	22
  1887   00E980  6E01               	movwf	DATAEE_WriteByte@bAdd^(0+1280),c
  1888   00E982  C582  F503         	movff	main@redMode3,DATAEE_WriteByte@bData
  1889   00E986  EC4B  F06D         	call	_DATAEE_WriteByte	;wreg free
  1890   00E98A                     
  1891                           ;main.c: 315:                     DATAEE_WriteByte(27, whiteMode3);
  1892   00E98A  0E00               	movlw	0
  1893   00E98C  6E02               	movwf	(DATAEE_WriteByte@bAdd+1)^(0+1280),c
  1894   00E98E  0E1B               	movlw	27
  1895   00E990  6E01               	movwf	DATAEE_WriteByte@bAdd^(0+1280),c
  1896   00E992  C56E  F503         	movff	main@whiteMode3,DATAEE_WriteByte@bData
  1897   00E996  EC4B  F06D         	call	_DATAEE_WriteByte	;wreg free
  1898   00E99A                     
  1899                           ;main.c: 316:                     DATAEE_WriteByte(6, 69);
  1900   00E99A  0E00               	movlw	0
  1901   00E99C  6E02               	movwf	(DATAEE_WriteByte@bAdd+1)^(0+1280),c
  1902   00E99E  0E06               	movlw	6
  1903   00E9A0  6E01               	movwf	DATAEE_WriteByte@bAdd^(0+1280),c
  1904   00E9A2  0E45               	movlw	69
  1905   00E9A4  6E03               	movwf	DATAEE_WriteByte@bData^(0+1280),c
  1906   00E9A6  EC4B  F06D         	call	_DATAEE_WriteByte	;wreg free
  1907   00E9AA                     l3142:
  1908                           
  1909                           ;main.c: 319:                 if(led4Blink && !PORTBbits.RB7 && taster4Flag)
  1910   00E9AA  0105               	movlb	5	; () banked
  1911   00E9AC  518B               	movf	main@led4Blink& (0+255),w,b
  1912   00E9AE  B4D8               	btfsc	status,2,c
  1913   00E9B0  EFDC  F074         	goto	u3561
  1914   00E9B4  EFDE  F074         	goto	u3560
  1915   00E9B8                     u3561:
  1916   00E9B8  EF1F  F075         	goto	l3162
  1917   00E9BC                     u3560:
  1918   00E9BC                     
  1919                           ; BSR set to: 5
  1920   00E9BC  BECF               	btfsc	207,7,c	;volatile
  1921   00E9BE  EFE3  F074         	goto	u3571
  1922   00E9C2  EFE5  F074         	goto	u3570
  1923   00E9C6                     u3571:
  1924   00E9C6  EF1F  F075         	goto	l3162
  1925   00E9CA                     u3570:
  1926   00E9CA                     
  1927                           ; BSR set to: 5
  1928   00E9CA  517C               	movf	main@taster4Flag& (0+255),w,b
  1929   00E9CC  B4D8               	btfsc	status,2,c
  1930   00E9CE  EFEB  F074         	goto	u3581
  1931   00E9D2  EFED  F074         	goto	u3580
  1932   00E9D6                     u3581:
  1933   00E9D6  EF1F  F075         	goto	l3162
  1934   00E9DA                     u3580:
  1935   00E9DA                     
  1936                           ; BSR set to: 5
  1937                           ;main.c: 320:                 {;main.c: 321:                     redMode4 = red;
  1938   00E9DA  C590  F585         	movff	main@red,main@redMode4
  1939                           
  1940                           ;main.c: 322:                     greenMode4 = green;
  1941   00E9DE  C591  F586         	movff	main@green,main@greenMode4
  1942                           
  1943                           ;main.c: 323:                     blueMode4 = blue;
  1944   00E9E2  C592  F587         	movff	main@blue,main@blueMode4
  1945                           
  1946                           ;main.c: 324:                     whiteMode4 = white;
  1947   00E9E6  C58F  F56F         	movff	main@white,main@whiteMode4
  1948   00E9EA                     
  1949                           ; BSR set to: 5
  1950                           ;main.c: 325:                     led4Blink = 0;
  1951   00E9EA  0E00               	movlw	0
  1952   00E9EC  6F8B               	movwf	main@led4Blink& (0+255),b
  1953   00E9EE                     
  1954                           ; BSR set to: 5
  1955                           ;main.c: 326:                     DATAEE_WriteByte(32, blueMode4);
  1956   00E9EE  0E00               	movlw	0
  1957   00E9F0  6E02               	movwf	(DATAEE_WriteByte@bAdd+1)^(0+1280),c
  1958   00E9F2  0E20               	movlw	32
  1959   00E9F4  6E01               	movwf	DATAEE_WriteByte@bAdd^(0+1280),c
  1960   00E9F6  C587  F503         	movff	main@blueMode4,DATAEE_WriteByte@bData
  1961   00E9FA  EC4B  F06D         	call	_DATAEE_WriteByte	;wreg free
  1962   00E9FE                     
  1963                           ;main.c: 327:                     DATAEE_WriteByte(31, greenMode4);
  1964   00E9FE  0E00               	movlw	0
  1965   00EA00  6E02               	movwf	(DATAEE_WriteByte@bAdd+1)^(0+1280),c
  1966   00EA02  0E1F               	movlw	31
  1967   00EA04  6E01               	movwf	DATAEE_WriteByte@bAdd^(0+1280),c
  1968   00EA06  C586  F503         	movff	main@greenMode4,DATAEE_WriteByte@bData
  1969   00EA0A  EC4B  F06D         	call	_DATAEE_WriteByte	;wreg free
  1970   00EA0E                     
  1971                           ;main.c: 328:                     DATAEE_WriteByte(30, redMode4);
  1972   00EA0E  0E00               	movlw	0
  1973   00EA10  6E02               	movwf	(DATAEE_WriteByte@bAdd+1)^(0+1280),c
  1974   00EA12  0E1E               	movlw	30
  1975   00EA14  6E01               	movwf	DATAEE_WriteByte@bAdd^(0+1280),c
  1976   00EA16  C585  F503         	movff	main@redMode4,DATAEE_WriteByte@bData
  1977   00EA1A  EC4B  F06D         	call	_DATAEE_WriteByte	;wreg free
  1978   00EA1E                     
  1979                           ;main.c: 329:                     DATAEE_WriteByte(34, whiteMode4);
  1980   00EA1E  0E00               	movlw	0
  1981   00EA20  6E02               	movwf	(DATAEE_WriteByte@bAdd+1)^(0+1280),c
  1982   00EA22  0E22               	movlw	34
  1983   00EA24  6E01               	movwf	DATAEE_WriteByte@bAdd^(0+1280),c
  1984   00EA26  C56F  F503         	movff	main@whiteMode4,DATAEE_WriteByte@bData
  1985   00EA2A  EC4B  F06D         	call	_DATAEE_WriteByte	;wreg free
  1986   00EA2E                     
  1987                           ;main.c: 330:                     DATAEE_WriteByte(8, 69);
  1988   00EA2E  0E00               	movlw	0
  1989   00EA30  6E02               	movwf	(DATAEE_WriteByte@bAdd+1)^(0+1280),c
  1990   00EA32  0E08               	movlw	8
  1991   00EA34  6E01               	movwf	DATAEE_WriteByte@bAdd^(0+1280),c
  1992   00EA36  0E45               	movlw	69
  1993   00EA38  6E03               	movwf	DATAEE_WriteByte@bData^(0+1280),c
  1994   00EA3A  EC4B  F06D         	call	_DATAEE_WriteByte	;wreg free
  1995   00EA3E                     l3162:
  1996                           
  1997                           ;main.c: 335:                 if(PORTCbits.RC6)
  1998   00EA3E  ACD0               	btfss	208,6,c	;volatile
  1999   00EA40  EF24  F075         	goto	u3591
  2000   00EA44  EF26  F075         	goto	u3590
  2001   00EA48                     u3591:
  2002   00EA48  EF2B  F075         	goto	l3166
  2003   00EA4C                     u3590:
  2004   00EA4C                     
  2005                           ;main.c: 336:                 {;main.c: 337:                     timeout5sPressed1 = 0;
  2006   00EA4C  0E00               	movlw	0
  2007   00EA4E  0105               	movlb	5	; () banked
  2008   00EA50  6F66               	movwf	(main@timeout5sPressed1+1)& (0+255),b
  2009   00EA52  0E00               	movlw	0
  2010   00EA54  6F65               	movwf	main@timeout5sPressed1& (0+255),b
  2011   00EA56                     l3166:
  2012                           
  2013                           ;main.c: 340:                 if(PORTAbits.RA4)
  2014   00EA56  A8CE               	btfss	206,4,c	;volatile
  2015   00EA58  EF30  F075         	goto	u3601
  2016   00EA5C  EF32  F075         	goto	u3600
  2017   00EA60                     u3601:
  2018   00EA60  EF37  F075         	goto	l3170
  2019   00EA64                     u3600:
  2020   00EA64                     
  2021                           ;main.c: 341:                 {;main.c: 342:                     timeout5sPressed2 = 0;
  2022   00EA64  0E00               	movlw	0
  2023   00EA66  0105               	movlb	5	; () banked
  2024   00EA68  6F68               	movwf	(main@timeout5sPressed2+1)& (0+255),b
  2025   00EA6A  0E00               	movlw	0
  2026   00EA6C  6F67               	movwf	main@timeout5sPressed2& (0+255),b
  2027   00EA6E                     l3170:
  2028                           
  2029                           ;main.c: 345:                 if(PORTCbits.RC4)
  2030   00EA6E  A8D0               	btfss	208,4,c	;volatile
  2031   00EA70  EF3C  F075         	goto	u3611
  2032   00EA74  EF3E  F075         	goto	u3610
  2033   00EA78                     u3611:
  2034   00EA78  EF43  F075         	goto	l3174
  2035   00EA7C                     u3610:
  2036   00EA7C                     
  2037                           ;main.c: 346:                 {;main.c: 347:                     timeout5sPressed3 = 0;
  2038   00EA7C  0E00               	movlw	0
  2039   00EA7E  0105               	movlb	5	; () banked
  2040   00EA80  6F6A               	movwf	(main@timeout5sPressed3+1)& (0+255),b
  2041   00EA82  0E00               	movlw	0
  2042   00EA84  6F69               	movwf	main@timeout5sPressed3& (0+255),b
  2043   00EA86                     l3174:
  2044                           
  2045                           ;main.c: 350:                 if(PORTBbits.RB7)
  2046   00EA86  AECF               	btfss	207,7,c	;volatile
  2047   00EA88  EF48  F075         	goto	u3621
  2048   00EA8C  EF4A  F075         	goto	u3620
  2049   00EA90                     u3621:
  2050   00EA90  EF78  F071         	goto	l2944
  2051   00EA94                     u3620:
  2052   00EA94                     
  2053                           ;main.c: 351:                 {;main.c: 352:                     timeout5sPressed4 = 0;
  2054   00EA94  0E00               	movlw	0
  2055   00EA96  0105               	movlb	5	; () banked
  2056   00EA98  6F6C               	movwf	(main@timeout5sPressed4+1)& (0+255),b
  2057   00EA9A  0E00               	movlw	0
  2058   00EA9C  6F6B               	movwf	main@timeout5sPressed4& (0+255),b
  2059   00EA9E  EF78  F071         	goto	l2944
  2060   00EAA2                     l396:
  2061                           
  2062                           ; BSR set to: 5
  2063                           ;main.c: 360:                 if(PORTCbits.RC6)
  2064   00EAA2  ACD0               	btfss	208,6,c	;volatile
  2065   00EAA4  EF56  F075         	goto	u3631
  2066   00EAA8  EF58  F075         	goto	u3630
  2067   00EAAC                     u3631:
  2068   00EAAC  EF79  F075         	goto	l3188
  2069   00EAB0                     u3630:
  2070   00EAB0                     
  2071                           ; BSR set to: 5
  2072                           ;main.c: 361:                 {;main.c: 362:                     LATCbits.LATC7 = 1;
  2073   00EAB0  8EC0               	bsf	192,7,c	;volatile
  2074   00EAB2                     
  2075                           ; BSR set to: 5
  2076                           ;main.c: 363:                     LED_WriteFull(redMode1, greenMode1, blueMode1, 300);
  2077   00EAB2  C58D  F50B         	movff	main@greenMode1,LED_WriteFull@green
  2078   00EAB6  C58E  F50C         	movff	main@blueMode1,LED_WriteFull@blue
  2079   00EABA  0E2C               	movlw	44
  2080   00EABC  6E0D               	movwf	LED_WriteFull@ledcount^(0+1280),c
  2081   00EABE  0E01               	movlw	1
  2082   00EAC0  6E0E               	movwf	(LED_WriteFull@ledcount+1)^(0+1280),c
  2083   00EAC2  0E00               	movlw	0
  2084   00EAC4  6E0F               	movwf	(LED_WriteFull@ledcount+2)^(0+1280),c
  2085   00EAC6  518C               	movf	main@redMode1& (0+255),w,b
  2086   00EAC8  ECFF  F06D         	call	_LED_WriteFull
  2087   00EACC                     
  2088                           ;main.c: 364:                     state = T1;
  2089   00EACC  0E01               	movlw	1
  2090   00EACE  0105               	movlb	5	; () banked
  2091   00EAD0  6F93               	movwf	main@state& (0+255),b
  2092   00EAD2                     
  2093                           ; BSR set to: 5
  2094                           ;main.c: 365:                     DATAEE_WriteByte(36, state);
  2095   00EAD2  0E00               	movlw	0
  2096   00EAD4  6E02               	movwf	(DATAEE_WriteByte@bAdd+1)^(0+1280),c
  2097   00EAD6  0E24               	movlw	36
  2098   00EAD8  6E01               	movwf	DATAEE_WriteByte@bAdd^(0+1280),c
  2099   00EADA  C593  F503         	movff	main@state,DATAEE_WriteByte@bData
  2100   00EADE  EC4B  F06D         	call	_DATAEE_WriteByte	;wreg free
  2101   00EAE2                     
  2102                           ;main.c: 366:                     DATAEE_WriteByte(2, 69);
  2103   00EAE2  0E00               	movlw	0
  2104   00EAE4  6E02               	movwf	(DATAEE_WriteByte@bAdd+1)^(0+1280),c
  2105   00EAE6  0E02               	movlw	2
  2106   00EAE8  6E01               	movwf	DATAEE_WriteByte@bAdd^(0+1280),c
  2107   00EAEA  0E45               	movlw	69
  2108   00EAEC  6E03               	movwf	DATAEE_WriteByte@bData^(0+1280),c
  2109   00EAEE  EC4B  F06D         	call	_DATAEE_WriteByte	;wreg free
  2110   00EAF2                     l3188:
  2111                           
  2112                           ;main.c: 369:                 if(!PORTCbits.RC6 && (++timeout5sPressed1 == 250))
  2113   00EAF2  BCD0               	btfsc	208,6,c	;volatile
  2114   00EAF4  EF7E  F075         	goto	u3641
  2115   00EAF8  EF80  F075         	goto	u3640
  2116   00EAFC                     u3641:
  2117   00EAFC  EF78  F071         	goto	l2944
  2118   00EB00                     u3640:
  2119   00EB00  0105               	movlb	5	; () banked
  2120   00EB02  4B65               	infsnz	main@timeout5sPressed1& (0+255),f,b
  2121   00EB04  2B66               	incf	(main@timeout5sPressed1+1)& (0+255),f,b
  2122   00EB06  0EFA               	movlw	250
  2123   00EB08  1965               	xorwf	main@timeout5sPressed1& (0+255),w,b
  2124   00EB0A  1166               	iorwf	(main@timeout5sPressed1+1)& (0+255),w,b
  2125   00EB0C  A4D8               	btfss	status,2,c
  2126   00EB0E  EF8B  F075         	goto	u3651
  2127   00EB12  EF8D  F075         	goto	u3650
  2128   00EB16                     u3651:
  2129   00EB16  EF78  F071         	goto	l2944
  2130   00EB1A                     u3650:
  2131   00EB1A                     
  2132                           ; BSR set to: 5
  2133                           ;main.c: 370:                 {;main.c: 371:                     timeout5sPressed1 = 0;
  2134   00EB1A  0E00               	movlw	0
  2135   00EB1C  6F66               	movwf	(main@timeout5sPressed1+1)& (0+255),b
  2136   00EB1E  0E00               	movlw	0
  2137   00EB20  6F65               	movwf	main@timeout5sPressed1& (0+255),b
  2138                           
  2139                           ;main.c: 372:                     led1Blink = 1;
  2140   00EB22  0E01               	movlw	1
  2141   00EB24  6F88               	movwf	main@led1Blink& (0+255),b
  2142                           
  2143                           ;main.c: 373:                     state = MANUAL;
  2144   00EB26  0E00               	movlw	0
  2145   00EB28  6F93               	movwf	main@state& (0+255),b
  2146   00EB2A                     l3194:
  2147                           
  2148                           ; BSR set to: 5
  2149                           ;main.c: 374:                     DATAEE_WriteByte(36, state);
  2150   00EB2A  0E00               	movlw	0
  2151   00EB2C  6E02               	movwf	(DATAEE_WriteByte@bAdd+1)^(0+1280),c
  2152   00EB2E  0E24               	movlw	36
  2153   00EB30  6E01               	movwf	DATAEE_WriteByte@bAdd^(0+1280),c
  2154   00EB32  C593  F503         	movff	main@state,DATAEE_WriteByte@bData
  2155   00EB36  EC4B  F06D         	call	_DATAEE_WriteByte	;wreg free
  2156   00EB3A                     
  2157                           ;main.c: 375:                     DATAEE_WriteByte(2, 69);
  2158   00EB3A  0E00               	movlw	0
  2159   00EB3C  6E02               	movwf	(DATAEE_WriteByte@bAdd+1)^(0+1280),c
  2160   00EB3E  0E02               	movlw	2
  2161   00EB40  6E01               	movwf	DATAEE_WriteByte@bAdd^(0+1280),c
  2162   00EB42  0E45               	movlw	69
  2163   00EB44  6E03               	movwf	DATAEE_WriteByte@bData^(0+1280),c
  2164   00EB46  EC4B  F06D         	call	_DATAEE_WriteByte	;wreg free
  2165   00EB4A  EF78  F071         	goto	l2944
  2166   00EB4E                     l399:
  2167                           
  2168                           ; BSR set to: 5
  2169                           ;main.c: 383:                 if(PORTAbits.RA4)
  2170   00EB4E  A8CE               	btfss	206,4,c	;volatile
  2171   00EB50  EFAC  F075         	goto	u3661
  2172   00EB54  EFAE  F075         	goto	u3660
  2173   00EB58                     u3661:
  2174   00EB58  EFCF  F075         	goto	l3208
  2175   00EB5C                     u3660:
  2176   00EB5C                     
  2177                           ; BSR set to: 5
  2178                           ;main.c: 384:                 {;main.c: 385:                     LATCbits.LATC5 = 1;
  2179   00EB5C  8AC0               	bsf	192,5,c	;volatile
  2180   00EB5E                     
  2181                           ; BSR set to: 5
  2182                           ;main.c: 386:                     LED_WriteFull(redMode2, greenMode2, blueMode2, 300);
  2183   00EB5E  C580  F50B         	movff	main@greenMode2,LED_WriteFull@green
  2184   00EB62  C581  F50C         	movff	main@blueMode2,LED_WriteFull@blue
  2185   00EB66  0E2C               	movlw	44
  2186   00EB68  6E0D               	movwf	LED_WriteFull@ledcount^(0+1280),c
  2187   00EB6A  0E01               	movlw	1
  2188   00EB6C  6E0E               	movwf	(LED_WriteFull@ledcount+1)^(0+1280),c
  2189   00EB6E  0E00               	movlw	0
  2190   00EB70  6E0F               	movwf	(LED_WriteFull@ledcount+2)^(0+1280),c
  2191   00EB72  517F               	movf	main@redMode2& (0+255),w,b
  2192   00EB74  ECFF  F06D         	call	_LED_WriteFull
  2193   00EB78                     
  2194                           ;main.c: 387:                     state = T2;
  2195   00EB78  0E02               	movlw	2
  2196   00EB7A  0105               	movlb	5	; () banked
  2197   00EB7C  6F93               	movwf	main@state& (0+255),b
  2198   00EB7E                     
  2199                           ; BSR set to: 5
  2200                           ;main.c: 388:                     DATAEE_WriteByte(36, state);
  2201   00EB7E  0E00               	movlw	0
  2202   00EB80  6E02               	movwf	(DATAEE_WriteByte@bAdd+1)^(0+1280),c
  2203   00EB82  0E24               	movlw	36
  2204   00EB84  6E01               	movwf	DATAEE_WriteByte@bAdd^(0+1280),c
  2205   00EB86  C593  F503         	movff	main@state,DATAEE_WriteByte@bData
  2206   00EB8A  EC4B  F06D         	call	_DATAEE_WriteByte	;wreg free
  2207   00EB8E                     
  2208                           ;main.c: 389:                     DATAEE_WriteByte(2, 69);
  2209   00EB8E  0E00               	movlw	0
  2210   00EB90  6E02               	movwf	(DATAEE_WriteByte@bAdd+1)^(0+1280),c
  2211   00EB92  0E02               	movlw	2
  2212   00EB94  6E01               	movwf	DATAEE_WriteByte@bAdd^(0+1280),c
  2213   00EB96  0E45               	movlw	69
  2214   00EB98  6E03               	movwf	DATAEE_WriteByte@bData^(0+1280),c
  2215   00EB9A  EC4B  F06D         	call	_DATAEE_WriteByte	;wreg free
  2216   00EB9E                     l3208:
  2217                           
  2218                           ;main.c: 392:                 if(!PORTAbits.RA4 && (++timeout5sPressed2 == 250))
  2219   00EB9E  B8CE               	btfsc	206,4,c	;volatile
  2220   00EBA0  EFD4  F075         	goto	u3671
  2221   00EBA4  EFD6  F075         	goto	u3670
  2222   00EBA8                     u3671:
  2223   00EBA8  EF78  F071         	goto	l2944
  2224   00EBAC                     u3670:
  2225   00EBAC  0105               	movlb	5	; () banked
  2226   00EBAE  4B67               	infsnz	main@timeout5sPressed2& (0+255),f,b
  2227   00EBB0  2B68               	incf	(main@timeout5sPressed2+1)& (0+255),f,b
  2228   00EBB2  0EFA               	movlw	250
  2229   00EBB4  1967               	xorwf	main@timeout5sPressed2& (0+255),w,b
  2230   00EBB6  1168               	iorwf	(main@timeout5sPressed2+1)& (0+255),w,b
  2231   00EBB8  A4D8               	btfss	status,2,c
  2232   00EBBA  EFE1  F075         	goto	u3681
  2233   00EBBE  EFE3  F075         	goto	u3680
  2234   00EBC2                     u3681:
  2235   00EBC2  EF78  F071         	goto	l2944
  2236   00EBC6                     u3680:
  2237   00EBC6                     
  2238                           ; BSR set to: 5
  2239                           ;main.c: 393:                 {;main.c: 394:                     timeout5sPressed2 = 0;
  2240   00EBC6  0E00               	movlw	0
  2241   00EBC8  6F68               	movwf	(main@timeout5sPressed2+1)& (0+255),b
  2242   00EBCA  0E00               	movlw	0
  2243   00EBCC  6F67               	movwf	main@timeout5sPressed2& (0+255),b
  2244                           
  2245                           ;main.c: 395:                     led2Blink = 1;
  2246   00EBCE  0E01               	movlw	1
  2247   00EBD0  6F89               	movwf	main@led2Blink& (0+255),b
  2248                           
  2249                           ;main.c: 396:                     state = MANUAL;
  2250   00EBD2  0E00               	movlw	0
  2251   00EBD4  6F93               	movwf	main@state& (0+255),b
  2252   00EBD6  EF95  F075         	goto	l3194
  2253   00EBDA                     l402:
  2254                           
  2255                           ; BSR set to: 5
  2256                           ;main.c: 405:                 if(PORTCbits.RC4)
  2257   00EBDA  A8D0               	btfss	208,4,c	;volatile
  2258   00EBDC  EFF2  F075         	goto	u3691
  2259   00EBE0  EFF4  F075         	goto	u3690
  2260   00EBE4                     u3691:
  2261   00EBE4  EF15  F076         	goto	l3228
  2262   00EBE8                     u3690:
  2263   00EBE8                     
  2264                           ; BSR set to: 5
  2265                           ;main.c: 406:                 {;main.c: 407:                     LATAbits.LATA5 = 1;
  2266   00EBE8  8ABE               	bsf	190,5,c	;volatile
  2267   00EBEA                     
  2268                           ; BSR set to: 5
  2269                           ;main.c: 408:                     LED_WriteFull(redMode3, greenMode3, blueMode3, 300);
  2270   00EBEA  C583  F50B         	movff	main@greenMode3,LED_WriteFull@green
  2271   00EBEE  C584  F50C         	movff	main@blueMode3,LED_WriteFull@blue
  2272   00EBF2  0E2C               	movlw	44
  2273   00EBF4  6E0D               	movwf	LED_WriteFull@ledcount^(0+1280),c
  2274   00EBF6  0E01               	movlw	1
  2275   00EBF8  6E0E               	movwf	(LED_WriteFull@ledcount+1)^(0+1280),c
  2276   00EBFA  0E00               	movlw	0
  2277   00EBFC  6E0F               	movwf	(LED_WriteFull@ledcount+2)^(0+1280),c
  2278   00EBFE  5182               	movf	main@redMode3& (0+255),w,b
  2279   00EC00  ECFF  F06D         	call	_LED_WriteFull
  2280   00EC04                     
  2281                           ;main.c: 409:                     state = T3;
  2282   00EC04  0E03               	movlw	3
  2283   00EC06  0105               	movlb	5	; () banked
  2284   00EC08  6F93               	movwf	main@state& (0+255),b
  2285   00EC0A                     
  2286                           ; BSR set to: 5
  2287                           ;main.c: 410:                     DATAEE_WriteByte(36, state);
  2288   00EC0A  0E00               	movlw	0
  2289   00EC0C  6E02               	movwf	(DATAEE_WriteByte@bAdd+1)^(0+1280),c
  2290   00EC0E  0E24               	movlw	36
  2291   00EC10  6E01               	movwf	DATAEE_WriteByte@bAdd^(0+1280),c
  2292   00EC12  C593  F503         	movff	main@state,DATAEE_WriteByte@bData
  2293   00EC16  EC4B  F06D         	call	_DATAEE_WriteByte	;wreg free
  2294   00EC1A                     
  2295                           ;main.c: 411:                     DATAEE_WriteByte(2, 69);
  2296   00EC1A  0E00               	movlw	0
  2297   00EC1C  6E02               	movwf	(DATAEE_WriteByte@bAdd+1)^(0+1280),c
  2298   00EC1E  0E02               	movlw	2
  2299   00EC20  6E01               	movwf	DATAEE_WriteByte@bAdd^(0+1280),c
  2300   00EC22  0E45               	movlw	69
  2301   00EC24  6E03               	movwf	DATAEE_WriteByte@bData^(0+1280),c
  2302   00EC26  EC4B  F06D         	call	_DATAEE_WriteByte	;wreg free
  2303   00EC2A                     l3228:
  2304                           
  2305                           ;main.c: 414:                 if(!PORTCbits.RC4 && (++timeout5sPressed3 == 250))
  2306   00EC2A  B8D0               	btfsc	208,4,c	;volatile
  2307   00EC2C  EF1A  F076         	goto	u3701
  2308   00EC30  EF1C  F076         	goto	u3700
  2309   00EC34                     u3701:
  2310   00EC34  EF78  F071         	goto	l2944
  2311   00EC38                     u3700:
  2312   00EC38  0105               	movlb	5	; () banked
  2313   00EC3A  4B69               	infsnz	main@timeout5sPressed3& (0+255),f,b
  2314   00EC3C  2B6A               	incf	(main@timeout5sPressed3+1)& (0+255),f,b
  2315   00EC3E  0EFA               	movlw	250
  2316   00EC40  1969               	xorwf	main@timeout5sPressed3& (0+255),w,b
  2317   00EC42  116A               	iorwf	(main@timeout5sPressed3+1)& (0+255),w,b
  2318   00EC44  A4D8               	btfss	status,2,c
  2319   00EC46  EF27  F076         	goto	u3711
  2320   00EC4A  EF29  F076         	goto	u3710
  2321   00EC4E                     u3711:
  2322   00EC4E  EF78  F071         	goto	l2944
  2323   00EC52                     u3710:
  2324   00EC52                     
  2325                           ; BSR set to: 5
  2326                           ;main.c: 415:                 {;main.c: 416:                     timeout5sPressed3 = 0;
  2327   00EC52  0E00               	movlw	0
  2328   00EC54  6F6A               	movwf	(main@timeout5sPressed3+1)& (0+255),b
  2329   00EC56  0E00               	movlw	0
  2330   00EC58  6F69               	movwf	main@timeout5sPressed3& (0+255),b
  2331                           
  2332                           ;main.c: 417:                     led3Blink = 1;
  2333   00EC5A  0E01               	movlw	1
  2334   00EC5C  6F8A               	movwf	main@led3Blink& (0+255),b
  2335                           
  2336                           ;main.c: 418:                     state = MANUAL;
  2337   00EC5E  0E00               	movlw	0
  2338   00EC60  6F93               	movwf	main@state& (0+255),b
  2339   00EC62  EF95  F075         	goto	l3194
  2340   00EC66                     l405:
  2341                           
  2342                           ; BSR set to: 5
  2343                           ;main.c: 428:                 if(PORTBbits.RB7)
  2344   00EC66  AECF               	btfss	207,7,c	;volatile
  2345   00EC68  EF38  F076         	goto	u3721
  2346   00EC6C  EF3A  F076         	goto	u3720
  2347   00EC70                     u3721:
  2348   00EC70  EF5B  F076         	goto	l3248
  2349   00EC74                     u3720:
  2350   00EC74                     
  2351                           ; BSR set to: 5
  2352                           ;main.c: 429:                 {;main.c: 430:                     LATCbits.LATC3 = 1;
  2353   00EC74  86C0               	bsf	192,3,c	;volatile
  2354   00EC76                     
  2355                           ; BSR set to: 5
  2356                           ;main.c: 431:                     LED_WriteFull(redMode4, greenMode4, blueMode4, 300);
  2357   00EC76  C586  F50B         	movff	main@greenMode4,LED_WriteFull@green
  2358   00EC7A  C587  F50C         	movff	main@blueMode4,LED_WriteFull@blue
  2359   00EC7E  0E2C               	movlw	44
  2360   00EC80  6E0D               	movwf	LED_WriteFull@ledcount^(0+1280),c
  2361   00EC82  0E01               	movlw	1
  2362   00EC84  6E0E               	movwf	(LED_WriteFull@ledcount+1)^(0+1280),c
  2363   00EC86  0E00               	movlw	0
  2364   00EC88  6E0F               	movwf	(LED_WriteFull@ledcount+2)^(0+1280),c
  2365   00EC8A  5185               	movf	main@redMode4& (0+255),w,b
  2366   00EC8C  ECFF  F06D         	call	_LED_WriteFull
  2367   00EC90                     
  2368                           ;main.c: 432:                     state = T4;
  2369   00EC90  0E04               	movlw	4
  2370   00EC92  0105               	movlb	5	; () banked
  2371   00EC94  6F93               	movwf	main@state& (0+255),b
  2372   00EC96                     
  2373                           ; BSR set to: 5
  2374                           ;main.c: 433:                     DATAEE_WriteByte(36, state);
  2375   00EC96  0E00               	movlw	0
  2376   00EC98  6E02               	movwf	(DATAEE_WriteByte@bAdd+1)^(0+1280),c
  2377   00EC9A  0E24               	movlw	36
  2378   00EC9C  6E01               	movwf	DATAEE_WriteByte@bAdd^(0+1280),c
  2379   00EC9E  C593  F503         	movff	main@state,DATAEE_WriteByte@bData
  2380   00ECA2  EC4B  F06D         	call	_DATAEE_WriteByte	;wreg free
  2381   00ECA6                     
  2382                           ;main.c: 434:                     DATAEE_WriteByte(2, 69);
  2383   00ECA6  0E00               	movlw	0
  2384   00ECA8  6E02               	movwf	(DATAEE_WriteByte@bAdd+1)^(0+1280),c
  2385   00ECAA  0E02               	movlw	2
  2386   00ECAC  6E01               	movwf	DATAEE_WriteByte@bAdd^(0+1280),c
  2387   00ECAE  0E45               	movlw	69
  2388   00ECB0  6E03               	movwf	DATAEE_WriteByte@bData^(0+1280),c
  2389   00ECB2  EC4B  F06D         	call	_DATAEE_WriteByte	;wreg free
  2390   00ECB6                     l3248:
  2391                           
  2392                           ;main.c: 437:                 if(!PORTBbits.RB7 && (++timeout5sPressed4 == 250))
  2393   00ECB6  BECF               	btfsc	207,7,c	;volatile
  2394   00ECB8  EF60  F076         	goto	u3731
  2395   00ECBC  EF62  F076         	goto	u3730
  2396   00ECC0                     u3731:
  2397   00ECC0  EF78  F071         	goto	l2944
  2398   00ECC4                     u3730:
  2399   00ECC4  0105               	movlb	5	; () banked
  2400   00ECC6  4B6B               	infsnz	main@timeout5sPressed4& (0+255),f,b
  2401   00ECC8  2B6C               	incf	(main@timeout5sPressed4+1)& (0+255),f,b
  2402   00ECCA  0EFA               	movlw	250
  2403   00ECCC  196B               	xorwf	main@timeout5sPressed4& (0+255),w,b
  2404   00ECCE  116C               	iorwf	(main@timeout5sPressed4+1)& (0+255),w,b
  2405   00ECD0  A4D8               	btfss	status,2,c
  2406   00ECD2  EF6D  F076         	goto	u3741
  2407   00ECD6  EF6F  F076         	goto	u3740
  2408   00ECDA                     u3741:
  2409   00ECDA  EF78  F071         	goto	l2944
  2410   00ECDE                     u3740:
  2411   00ECDE                     
  2412                           ; BSR set to: 5
  2413                           ;main.c: 438:                 {;main.c: 439:                     timeout5sPressed4 = 0;
  2414   00ECDE  0E00               	movlw	0
  2415   00ECE0  6F6C               	movwf	(main@timeout5sPressed4+1)& (0+255),b
  2416   00ECE2  0E00               	movlw	0
  2417   00ECE4  6F6B               	movwf	main@timeout5sPressed4& (0+255),b
  2418                           
  2419                           ;main.c: 440:                     led4Blink = 1;
  2420   00ECE6  0E01               	movlw	1
  2421   00ECE8  6F8B               	movwf	main@led4Blink& (0+255),b
  2422                           
  2423                           ;main.c: 441:                     state = MANUAL;
  2424   00ECEA  0E00               	movlw	0
  2425   00ECEC  6F93               	movwf	main@state& (0+255),b
  2426   00ECEE  EF95  F075         	goto	l3194
  2427   00ECF2                     l408:
  2428                           
  2429                           ; BSR set to: 5
  2430                           ;main.c: 452:                 if(PORTCbits.RC6)
  2431   00ECF2  ACD0               	btfss	208,6,c	;volatile
  2432   00ECF4  EF7E  F076         	goto	u3751
  2433   00ECF8  EF80  F076         	goto	u3750
  2434   00ECFC                     u3751:
  2435   00ECFC  EF93  F076         	goto	l3266
  2436   00ED00                     u3750:
  2437   00ED00                     
  2438                           ; BSR set to: 5
  2439                           ;main.c: 453:                 {;main.c: 454:                     LATCbits.LATC7 = 0;
  2440   00ED00  9EC0               	bcf	192,7,c	;volatile
  2441   00ED02                     
  2442                           ; BSR set to: 5
  2443                           ;main.c: 455:                     state = MANUAL;
  2444   00ED02  0E00               	movlw	0
  2445   00ED04  6F93               	movwf	main@state& (0+255),b
  2446   00ED06                     
  2447                           ; BSR set to: 5
  2448                           ;main.c: 456:                     DATAEE_WriteByte(36, state);
  2449   00ED06  0E00               	movlw	0
  2450   00ED08  6E02               	movwf	(DATAEE_WriteByte@bAdd+1)^(0+1280),c
  2451   00ED0A  0E24               	movlw	36
  2452   00ED0C  6E01               	movwf	DATAEE_WriteByte@bAdd^(0+1280),c
  2453   00ED0E  C593  F503         	movff	main@state,DATAEE_WriteByte@bData
  2454   00ED12  EC4B  F06D         	call	_DATAEE_WriteByte	;wreg free
  2455   00ED16                     
  2456                           ;main.c: 457:                     DATAEE_WriteByte(2, 69);
  2457   00ED16  0E00               	movlw	0
  2458   00ED18  6E02               	movwf	(DATAEE_WriteByte@bAdd+1)^(0+1280),c
  2459   00ED1A  0E02               	movlw	2
  2460   00ED1C  6E01               	movwf	DATAEE_WriteByte@bAdd^(0+1280),c
  2461   00ED1E  0E45               	movlw	69
  2462   00ED20  6E03               	movwf	DATAEE_WriteByte@bData^(0+1280),c
  2463   00ED22  EC4B  F06D         	call	_DATAEE_WriteByte	;wreg free
  2464   00ED26                     l3266:
  2465                           
  2466                           ;main.c: 460:                 if(!PORTCbits.RC6 && (++timeout5sPressed1 == 250))
  2467   00ED26  BCD0               	btfsc	208,6,c	;volatile
  2468   00ED28  EF98  F076         	goto	u3761
  2469   00ED2C  EF9A  F076         	goto	u3760
  2470   00ED30                     u3761:
  2471   00ED30  EF78  F071         	goto	l2944
  2472   00ED34                     u3760:
  2473   00ED34  0105               	movlb	5	; () banked
  2474   00ED36  4B65               	infsnz	main@timeout5sPressed1& (0+255),f,b
  2475   00ED38  2B66               	incf	(main@timeout5sPressed1+1)& (0+255),f,b
  2476   00ED3A  0EFA               	movlw	250
  2477   00ED3C  1965               	xorwf	main@timeout5sPressed1& (0+255),w,b
  2478   00ED3E  1166               	iorwf	(main@timeout5sPressed1+1)& (0+255),w,b
  2479   00ED40  A4D8               	btfss	status,2,c
  2480   00ED42  EFA5  F076         	goto	u3771
  2481   00ED46  EFA7  F076         	goto	u3770
  2482   00ED4A                     u3771:
  2483   00ED4A  EF78  F071         	goto	l2944
  2484   00ED4E                     u3770:
  2485   00ED4E                     
  2486                           ; BSR set to: 5
  2487                           ;main.c: 461:                 {;main.c: 462:                     timeout5sPressed1 = 0;
  2488   00ED4E  0E00               	movlw	0
  2489   00ED50  6F66               	movwf	(main@timeout5sPressed1+1)& (0+255),b
  2490   00ED52  0E00               	movlw	0
  2491   00ED54  6F65               	movwf	main@timeout5sPressed1& (0+255),b
  2492                           
  2493                           ;main.c: 463:                     led1StateBlink = 1;
  2494   00ED56  0E01               	movlw	1
  2495   00ED58  6F70               	movwf	main@led1StateBlink& (0+255),b
  2496                           
  2497                           ;main.c: 464:                     state = T1;
  2498   00ED5A  0E01               	movlw	1
  2499   00ED5C  6F93               	movwf	main@state& (0+255),b
  2500   00ED5E  EF78  F071         	goto	l2944
  2501   00ED62                     l411:
  2502                           
  2503                           ; BSR set to: 5
  2504                           ;main.c: 473:                 if(PORTAbits.RA4)
  2505   00ED62  A8CE               	btfss	206,4,c	;volatile
  2506   00ED64  EFB6  F076         	goto	u3781
  2507   00ED68  EFB8  F076         	goto	u3780
  2508   00ED6C                     u3781:
  2509   00ED6C  EFCB  F076         	goto	l3280
  2510   00ED70                     u3780:
  2511   00ED70                     
  2512                           ; BSR set to: 5
  2513                           ;main.c: 474:                 {;main.c: 475:                     LATCbits.LATC5 = 0;
  2514   00ED70  9AC0               	bcf	192,5,c	;volatile
  2515   00ED72                     
  2516                           ; BSR set to: 5
  2517                           ;main.c: 476:                     state = MANUAL;
  2518   00ED72  0E00               	movlw	0
  2519   00ED74  6F93               	movwf	main@state& (0+255),b
  2520   00ED76                     
  2521                           ; BSR set to: 5
  2522                           ;main.c: 477:                     DATAEE_WriteByte(36, state);
  2523   00ED76  0E00               	movlw	0
  2524   00ED78  6E02               	movwf	(DATAEE_WriteByte@bAdd+1)^(0+1280),c
  2525   00ED7A  0E24               	movlw	36
  2526   00ED7C  6E01               	movwf	DATAEE_WriteByte@bAdd^(0+1280),c
  2527   00ED7E  C593  F503         	movff	main@state,DATAEE_WriteByte@bData
  2528   00ED82  EC4B  F06D         	call	_DATAEE_WriteByte	;wreg free
  2529   00ED86                     
  2530                           ;main.c: 478:                     DATAEE_WriteByte(2, 69);
  2531   00ED86  0E00               	movlw	0
  2532   00ED88  6E02               	movwf	(DATAEE_WriteByte@bAdd+1)^(0+1280),c
  2533   00ED8A  0E02               	movlw	2
  2534   00ED8C  6E01               	movwf	DATAEE_WriteByte@bAdd^(0+1280),c
  2535   00ED8E  0E45               	movlw	69
  2536   00ED90  6E03               	movwf	DATAEE_WriteByte@bData^(0+1280),c
  2537   00ED92  EC4B  F06D         	call	_DATAEE_WriteByte	;wreg free
  2538   00ED96                     l3280:
  2539                           
  2540                           ;main.c: 481:                 if(!PORTAbits.RA4 && (++timeout5sPressed2 == 250))
  2541   00ED96  B8CE               	btfsc	206,4,c	;volatile
  2542   00ED98  EFD0  F076         	goto	u3791
  2543   00ED9C  EFD2  F076         	goto	u3790
  2544   00EDA0                     u3791:
  2545   00EDA0  EF78  F071         	goto	l2944
  2546   00EDA4                     u3790:
  2547   00EDA4  0105               	movlb	5	; () banked
  2548   00EDA6  4B67               	infsnz	main@timeout5sPressed2& (0+255),f,b
  2549   00EDA8  2B68               	incf	(main@timeout5sPressed2+1)& (0+255),f,b
  2550   00EDAA  0EFA               	movlw	250
  2551   00EDAC  1967               	xorwf	main@timeout5sPressed2& (0+255),w,b
  2552   00EDAE  1168               	iorwf	(main@timeout5sPressed2+1)& (0+255),w,b
  2553   00EDB0  A4D8               	btfss	status,2,c
  2554   00EDB2  EFDD  F076         	goto	u3801
  2555   00EDB6  EFDF  F076         	goto	u3800
  2556   00EDBA                     u3801:
  2557   00EDBA  EF78  F071         	goto	l2944
  2558   00EDBE                     u3800:
  2559   00EDBE                     
  2560                           ; BSR set to: 5
  2561                           ;main.c: 482:                 {;main.c: 483:                     timeout5sPressed2 = 0;
  2562   00EDBE  0E00               	movlw	0
  2563   00EDC0  6F68               	movwf	(main@timeout5sPressed2+1)& (0+255),b
  2564   00EDC2  0E00               	movlw	0
  2565   00EDC4  6F67               	movwf	main@timeout5sPressed2& (0+255),b
  2566                           
  2567                           ;main.c: 484:                     led2StateBlink = 1;
  2568   00EDC6  0E01               	movlw	1
  2569   00EDC8  6F71               	movwf	main@led2StateBlink& (0+255),b
  2570                           
  2571                           ;main.c: 485:                     state = T2;
  2572   00EDCA  0E02               	movlw	2
  2573   00EDCC  6F93               	movwf	main@state& (0+255),b
  2574   00EDCE  EF78  F071         	goto	l2944
  2575   00EDD2                     l414:
  2576                           
  2577                           ; BSR set to: 5
  2578                           ;main.c: 494:                 if(PORTCbits.RC4)
  2579   00EDD2  A8D0               	btfss	208,4,c	;volatile
  2580   00EDD4  EFEE  F076         	goto	u3811
  2581   00EDD8  EFF0  F076         	goto	u3810
  2582   00EDDC                     u3811:
  2583   00EDDC  EF03  F077         	goto	l3294
  2584   00EDE0                     u3810:
  2585   00EDE0                     
  2586                           ; BSR set to: 5
  2587                           ;main.c: 495:                 {;main.c: 496:                     LATAbits.LATA5 = 0;
  2588   00EDE0  9ABE               	bcf	190,5,c	;volatile
  2589   00EDE2                     
  2590                           ; BSR set to: 5
  2591                           ;main.c: 497:                     state = MANUAL;
  2592   00EDE2  0E00               	movlw	0
  2593   00EDE4  6F93               	movwf	main@state& (0+255),b
  2594   00EDE6                     
  2595                           ; BSR set to: 5
  2596                           ;main.c: 498:                     DATAEE_WriteByte(36, state);
  2597   00EDE6  0E00               	movlw	0
  2598   00EDE8  6E02               	movwf	(DATAEE_WriteByte@bAdd+1)^(0+1280),c
  2599   00EDEA  0E24               	movlw	36
  2600   00EDEC  6E01               	movwf	DATAEE_WriteByte@bAdd^(0+1280),c
  2601   00EDEE  C593  F503         	movff	main@state,DATAEE_WriteByte@bData
  2602   00EDF2  EC4B  F06D         	call	_DATAEE_WriteByte	;wreg free
  2603   00EDF6                     
  2604                           ;main.c: 499:                     DATAEE_WriteByte(2, 69);
  2605   00EDF6  0E00               	movlw	0
  2606   00EDF8  6E02               	movwf	(DATAEE_WriteByte@bAdd+1)^(0+1280),c
  2607   00EDFA  0E02               	movlw	2
  2608   00EDFC  6E01               	movwf	DATAEE_WriteByte@bAdd^(0+1280),c
  2609   00EDFE  0E45               	movlw	69
  2610   00EE00  6E03               	movwf	DATAEE_WriteByte@bData^(0+1280),c
  2611   00EE02  EC4B  F06D         	call	_DATAEE_WriteByte	;wreg free
  2612   00EE06                     l3294:
  2613                           
  2614                           ;main.c: 502:                 if(!PORTCbits.RC4 && (++timeout5sPressed3 == 250))
  2615   00EE06  B8D0               	btfsc	208,4,c	;volatile
  2616   00EE08  EF08  F077         	goto	u3821
  2617   00EE0C  EF0A  F077         	goto	u3820
  2618   00EE10                     u3821:
  2619   00EE10  EF78  F071         	goto	l2944
  2620   00EE14                     u3820:
  2621   00EE14  0105               	movlb	5	; () banked
  2622   00EE16  4B69               	infsnz	main@timeout5sPressed3& (0+255),f,b
  2623   00EE18  2B6A               	incf	(main@timeout5sPressed3+1)& (0+255),f,b
  2624   00EE1A  0EFA               	movlw	250
  2625   00EE1C  1969               	xorwf	main@timeout5sPressed3& (0+255),w,b
  2626   00EE1E  116A               	iorwf	(main@timeout5sPressed3+1)& (0+255),w,b
  2627   00EE20  A4D8               	btfss	status,2,c
  2628   00EE22  EF15  F077         	goto	u3831
  2629   00EE26  EF17  F077         	goto	u3830
  2630   00EE2A                     u3831:
  2631   00EE2A  EF78  F071         	goto	l2944
  2632   00EE2E                     u3830:
  2633   00EE2E                     
  2634                           ; BSR set to: 5
  2635                           ;main.c: 503:                 {;main.c: 504:                     timeout5sPressed3 = 0;
  2636   00EE2E  0E00               	movlw	0
  2637   00EE30  6F6A               	movwf	(main@timeout5sPressed3+1)& (0+255),b
  2638   00EE32  0E00               	movlw	0
  2639   00EE34  6F69               	movwf	main@timeout5sPressed3& (0+255),b
  2640                           
  2641                           ;main.c: 505:                     led3StateBlink = 1;
  2642   00EE36  0E01               	movlw	1
  2643   00EE38  6F72               	movwf	main@led3StateBlink& (0+255),b
  2644                           
  2645                           ;main.c: 506:                     state = T3;
  2646   00EE3A  0E03               	movlw	3
  2647   00EE3C  6F93               	movwf	main@state& (0+255),b
  2648   00EE3E  EF78  F071         	goto	l2944
  2649   00EE42                     l417:
  2650                           
  2651                           ; BSR set to: 5
  2652                           ;main.c: 515:                 if(PORTBbits.RB7)
  2653   00EE42  AECF               	btfss	207,7,c	;volatile
  2654   00EE44  EF26  F077         	goto	u3841
  2655   00EE48  EF28  F077         	goto	u3840
  2656   00EE4C                     u3841:
  2657   00EE4C  EF3B  F077         	goto	l3308
  2658   00EE50                     u3840:
  2659   00EE50                     
  2660                           ; BSR set to: 5
  2661                           ;main.c: 516:                 {;main.c: 517:                     LATCbits.LATC3 = 0;
  2662   00EE50  96C0               	bcf	192,3,c	;volatile
  2663   00EE52                     
  2664                           ; BSR set to: 5
  2665                           ;main.c: 518:                     state = MANUAL;
  2666   00EE52  0E00               	movlw	0
  2667   00EE54  6F93               	movwf	main@state& (0+255),b
  2668   00EE56                     
  2669                           ; BSR set to: 5
  2670                           ;main.c: 519:                     DATAEE_WriteByte(36, state);
  2671   00EE56  0E00               	movlw	0
  2672   00EE58  6E02               	movwf	(DATAEE_WriteByte@bAdd+1)^(0+1280),c
  2673   00EE5A  0E24               	movlw	36
  2674   00EE5C  6E01               	movwf	DATAEE_WriteByte@bAdd^(0+1280),c
  2675   00EE5E  C593  F503         	movff	main@state,DATAEE_WriteByte@bData
  2676   00EE62  EC4B  F06D         	call	_DATAEE_WriteByte	;wreg free
  2677   00EE66                     
  2678                           ;main.c: 520:                     DATAEE_WriteByte(2, 69);
  2679   00EE66  0E00               	movlw	0
  2680   00EE68  6E02               	movwf	(DATAEE_WriteByte@bAdd+1)^(0+1280),c
  2681   00EE6A  0E02               	movlw	2
  2682   00EE6C  6E01               	movwf	DATAEE_WriteByte@bAdd^(0+1280),c
  2683   00EE6E  0E45               	movlw	69
  2684   00EE70  6E03               	movwf	DATAEE_WriteByte@bData^(0+1280),c
  2685   00EE72  EC4B  F06D         	call	_DATAEE_WriteByte	;wreg free
  2686   00EE76                     l3308:
  2687                           
  2688                           ;main.c: 523:                 if(!PORTBbits.RB7 && (++timeout5sPressed4 == 250))
  2689   00EE76  BECF               	btfsc	207,7,c	;volatile
  2690   00EE78  EF40  F077         	goto	u3851
  2691   00EE7C  EF42  F077         	goto	u3850
  2692   00EE80                     u3851:
  2693   00EE80  EF78  F071         	goto	l2944
  2694   00EE84                     u3850:
  2695   00EE84  0105               	movlb	5	; () banked
  2696   00EE86  4B6B               	infsnz	main@timeout5sPressed4& (0+255),f,b
  2697   00EE88  2B6C               	incf	(main@timeout5sPressed4+1)& (0+255),f,b
  2698   00EE8A  0EFA               	movlw	250
  2699   00EE8C  196B               	xorwf	main@timeout5sPressed4& (0+255),w,b
  2700   00EE8E  116C               	iorwf	(main@timeout5sPressed4+1)& (0+255),w,b
  2701   00EE90  A4D8               	btfss	status,2,c
  2702   00EE92  EF4D  F077         	goto	u3861
  2703   00EE96  EF4F  F077         	goto	u3860
  2704   00EE9A                     u3861:
  2705   00EE9A  EF78  F071         	goto	l2944
  2706   00EE9E                     u3860:
  2707   00EE9E                     
  2708                           ; BSR set to: 5
  2709                           ;main.c: 524:                 {;main.c: 525:                     timeout5sPressed4 = 0;
  2710   00EE9E  0E00               	movlw	0
  2711   00EEA0  6F6C               	movwf	(main@timeout5sPressed4+1)& (0+255),b
  2712   00EEA2  0E00               	movlw	0
  2713   00EEA4  6F6B               	movwf	main@timeout5sPressed4& (0+255),b
  2714                           
  2715                           ;main.c: 526:                     led4StateBlink = 1;
  2716   00EEA6  0E01               	movlw	1
  2717   00EEA8  6F73               	movwf	main@led4StateBlink& (0+255),b
  2718                           
  2719                           ;main.c: 527:                     state = T4;
  2720   00EEAA  0E04               	movlw	4
  2721   00EEAC  6F93               	movwf	main@state& (0+255),b
  2722   00EEAE  EF78  F071         	goto	l2944
  2723   00EEB2                     l3314:
  2724                           
  2725                           ; BSR set to: 5
  2726                           ;main.c: 536:                 LED_WriteFull(redMode1,greenMode1,blueMode1, 300);
  2727   00EEB2  C58D  F50B         	movff	main@greenMode1,LED_WriteFull@green
  2728   00EEB6  C58E  F50C         	movff	main@blueMode1,LED_WriteFull@blue
  2729   00EEBA  0E2C               	movlw	44
  2730   00EEBC  6E0D               	movwf	LED_WriteFull@ledcount^(0+1280),c
  2731   00EEBE  0E01               	movlw	1
  2732   00EEC0  6E0E               	movwf	(LED_WriteFull@ledcount+1)^(0+1280),c
  2733   00EEC2  0E00               	movlw	0
  2734   00EEC4  6E0F               	movwf	(LED_WriteFull@ledcount+2)^(0+1280),c
  2735   00EEC6  518C               	movf	main@redMode1& (0+255),w,b
  2736   00EEC8  ECFF  F06D         	call	_LED_WriteFull
  2737   00EECC                     
  2738                           ;main.c: 540:                 if(led1StateBlink && (++timeout250ms == 12))
  2739   00EECC  0105               	movlb	5	; () banked
  2740   00EECE  5170               	movf	main@led1StateBlink& (0+255),w,b
  2741   00EED0  B4D8               	btfsc	status,2,c
  2742   00EED2  EF6D  F077         	goto	u3871
  2743   00EED6  EF6F  F077         	goto	u3870
  2744   00EEDA                     u3871:
  2745   00EEDA  EF8C  F077         	goto	l3324
  2746   00EEDE                     u3870:
  2747   00EEDE                     
  2748                           ; BSR set to: 5
  2749   00EEDE  2B74               	incf	main@timeout250ms& (0+255),f,b
  2750   00EEE0  0E0C               	movlw	12
  2751   00EEE2  1974               	xorwf	main@timeout250ms& (0+255),w,b
  2752   00EEE4  A4D8               	btfss	status,2,c
  2753   00EEE6  EF77  F077         	goto	u3881
  2754   00EEEA  EF79  F077         	goto	u3880
  2755   00EEEE                     u3881:
  2756   00EEEE  EF8C  F077         	goto	l3324
  2757   00EEF2                     u3880:
  2758   00EEF2                     
  2759                           ; BSR set to: 5
  2760                           ;main.c: 541:                 {;main.c: 542:                     timeout250ms = 0;
  2761   00EEF2  0E00               	movlw	0
  2762   00EEF4  6F74               	movwf	main@timeout250ms& (0+255),b
  2763   00EEF6                     
  2764                           ; BSR set to: 5
  2765                           ;main.c: 543:                     LATCbits.LATC7 = !LATCbits.LATC7;
  2766   00EEF6  AEC0               	btfss	192,7,c	;volatile
  2767   00EEF8  EF80  F077         	goto	u3891
  2768   00EEFC  EF84  F077         	goto	u3890
  2769   00EF00                     u3891:
  2770   00EF00  6A2F               	clrf	??_main^(0+1280),c
  2771   00EF02  2A2F               	incf	??_main^(0+1280),f,c
  2772   00EF04  EF85  F077         	goto	u3908
  2773   00EF08                     u3890:
  2774   00EF08  6A2F               	clrf	??_main^(0+1280),c
  2775   00EF0A                     u3908:
  2776   00EF0A  322F               	rrcf	??_main^(0+1280),f,c
  2777   00EF0C  322F               	rrcf	??_main^(0+1280),f,c
  2778   00EF0E  50C0               	movf	192,w,c	;volatile
  2779   00EF10  182F               	xorwf	??_main^(0+1280),w,c
  2780   00EF12  0B7F               	andlw	-129
  2781   00EF14  182F               	xorwf	??_main^(0+1280),w,c
  2782   00EF16  6EC0               	movwf	192,c	;volatile
  2783   00EF18                     l3324:
  2784                           
  2785                           ;main.c: 546:                 if(!PORTCbits.RC6 && taster1Flag && !led1StateBlink)
  2786   00EF18  BCD0               	btfsc	208,6,c	;volatile
  2787   00EF1A  EF91  F077         	goto	u3911
  2788   00EF1E  EF93  F077         	goto	u3910
  2789   00EF22                     u3911:
  2790   00EF22  EFA6  F077         	goto	l3332
  2791   00EF26                     u3910:
  2792   00EF26  0105               	movlb	5	; () banked
  2793   00EF28  517A               	movf	main@taster1Flag& (0+255),w,b
  2794   00EF2A  B4D8               	btfsc	status,2,c
  2795   00EF2C  EF9A  F077         	goto	u3921
  2796   00EF30  EF9C  F077         	goto	u3920
  2797   00EF34                     u3921:
  2798   00EF34  EFA6  F077         	goto	l3332
  2799   00EF38                     u3920:
  2800   00EF38                     
  2801                           ; BSR set to: 5
  2802   00EF38  5170               	movf	main@led1StateBlink& (0+255),w,b
  2803   00EF3A  A4D8               	btfss	status,2,c
  2804   00EF3C  EFA2  F077         	goto	u3931
  2805   00EF40  EFA4  F077         	goto	u3930
  2806   00EF44                     u3931:
  2807   00EF44  EFA6  F077         	goto	l3332
  2808   00EF48                     u3930:
  2809   00EF48                     
  2810                           ; BSR set to: 5
  2811                           ;main.c: 547:                 {;main.c: 548:                     state = T1StateDummy;
  2812   00EF48  0E09               	movlw	9
  2813   00EF4A  6F93               	movwf	main@state& (0+255),b
  2814   00EF4C                     l3332:
  2815                           
  2816                           ;main.c: 551:                 if(!PORTCbits.RC6 && taster1Flag && led1StateBlink)
  2817   00EF4C  BCD0               	btfsc	208,6,c	;volatile
  2818   00EF4E  EFAB  F077         	goto	u3941
  2819   00EF52  EFAD  F077         	goto	u3940
  2820   00EF56                     u3941:
  2821   00EF56  EFF1  F077         	goto	l3352
  2822   00EF5A                     u3940:
  2823   00EF5A  0105               	movlb	5	; () banked
  2824   00EF5C  517A               	movf	main@taster1Flag& (0+255),w,b
  2825   00EF5E  B4D8               	btfsc	status,2,c
  2826   00EF60  EFB4  F077         	goto	u3951
  2827   00EF64  EFB6  F077         	goto	u3950
  2828   00EF68                     u3951:
  2829   00EF68  EFF1  F077         	goto	l3352
  2830   00EF6C                     u3950:
  2831   00EF6C                     
  2832                           ; BSR set to: 5
  2833   00EF6C  5170               	movf	main@led1StateBlink& (0+255),w,b
  2834   00EF6E  B4D8               	btfsc	status,2,c
  2835   00EF70  EFBC  F077         	goto	u3961
  2836   00EF74  EFBE  F077         	goto	u3960
  2837   00EF78                     u3961:
  2838   00EF78  EFF1  F077         	goto	l3352
  2839   00EF7C                     u3960:
  2840   00EF7C                     
  2841                           ; BSR set to: 5
  2842                           ;main.c: 552:                 {;main.c: 553:                     LATCbits.LATC7 = 1;
  2843   00EF7C  8EC0               	bsf	192,7,c	;volatile
  2844   00EF7E                     
  2845                           ; BSR set to: 5
  2846                           ;main.c: 554:                     led1StateBlink = 0;
  2847   00EF7E  0E00               	movlw	0
  2848   00EF80  6F70               	movwf	main@led1StateBlink& (0+255),b
  2849                           
  2850                           ;main.c: 555:                     redAdj = 0;
  2851   00EF82  0E00               	movlw	0
  2852   00EF84  6F76               	movwf	main@redAdj& (0+255),b
  2853                           
  2854                           ;main.c: 556:                     greenAdj = 0;
  2855   00EF86  0E00               	movlw	0
  2856   00EF88  6F77               	movwf	main@greenAdj& (0+255),b
  2857                           
  2858                           ;main.c: 557:                     blueAdj = 0;
  2859   00EF8A  0E00               	movlw	0
  2860   00EF8C  6F78               	movwf	main@blueAdj& (0+255),b
  2861                           
  2862                           ;main.c: 558:                     whiteAdj = 0;
  2863   00EF8E  0E00               	movlw	0
  2864   00EF90  6F79               	movwf	main@whiteAdj& (0+255),b
  2865   00EF92                     
  2866                           ; BSR set to: 5
  2867                           ;main.c: 559:                     DATAEE_WriteByte(15, blueMode1);
  2868   00EF92  0E00               	movlw	0
  2869   00EF94  6E02               	movwf	(DATAEE_WriteByte@bAdd+1)^(0+1280),c
  2870   00EF96  0E0F               	movlw	15
  2871   00EF98  6E01               	movwf	DATAEE_WriteByte@bAdd^(0+1280),c
  2872   00EF9A  C58E  F503         	movff	main@blueMode1,DATAEE_WriteByte@bData
  2873   00EF9E  EC4B  F06D         	call	_DATAEE_WriteByte	;wreg free
  2874   00EFA2                     
  2875                           ;main.c: 560:                     DATAEE_WriteByte(12, greenMode1);
  2876   00EFA2  0E00               	movlw	0
  2877   00EFA4  6E02               	movwf	(DATAEE_WriteByte@bAdd+1)^(0+1280),c
  2878   00EFA6  0E0C               	movlw	12
  2879   00EFA8  6E01               	movwf	DATAEE_WriteByte@bAdd^(0+1280),c
  2880   00EFAA  C58D  F503         	movff	main@greenMode1,DATAEE_WriteByte@bData
  2881   00EFAE  EC4B  F06D         	call	_DATAEE_WriteByte	;wreg free
  2882   00EFB2                     
  2883                           ;main.c: 561:                     DATAEE_WriteByte(11, redMode1);
  2884   00EFB2  0E00               	movlw	0
  2885   00EFB4  6E02               	movwf	(DATAEE_WriteByte@bAdd+1)^(0+1280),c
  2886   00EFB6  0E0B               	movlw	11
  2887   00EFB8  6E01               	movwf	DATAEE_WriteByte@bAdd^(0+1280),c
  2888   00EFBA  C58C  F503         	movff	main@redMode1,DATAEE_WriteByte@bData
  2889   00EFBE  EC4B  F06D         	call	_DATAEE_WriteByte	;wreg free
  2890   00EFC2                     
  2891                           ;main.c: 562:                     DATAEE_WriteByte(17, whiteMode1);
  2892   00EFC2  0E00               	movlw	0
  2893   00EFC4  6E02               	movwf	(DATAEE_WriteByte@bAdd+1)^(0+1280),c
  2894   00EFC6  0E11               	movlw	17
  2895   00EFC8  6E01               	movwf	DATAEE_WriteByte@bAdd^(0+1280),c
  2896   00EFCA  C57E  F503         	movff	main@whiteMode1,DATAEE_WriteByte@bData
  2897   00EFCE  EC4B  F06D         	call	_DATAEE_WriteByte	;wreg free
  2898   00EFD2                     
  2899                           ;main.c: 563:                     DATAEE_WriteByte(3, 69);
  2900   00EFD2  0E00               	movlw	0
  2901   00EFD4  6E02               	movwf	(DATAEE_WriteByte@bAdd+1)^(0+1280),c
  2902   00EFD6  0E03               	movlw	3
  2903   00EFD8  6E01               	movwf	DATAEE_WriteByte@bAdd^(0+1280),c
  2904   00EFDA  0E45               	movlw	69
  2905   00EFDC  6E03               	movwf	DATAEE_WriteByte@bData^(0+1280),c
  2906   00EFDE  EC4B  F06D         	call	_DATAEE_WriteByte	;wreg free
  2907   00EFE2                     l3352:
  2908                           
  2909                           ;main.c: 566:                 if(led1StateBlink)
  2910   00EFE2  0105               	movlb	5	; () banked
  2911   00EFE4  5170               	movf	main@led1StateBlink& (0+255),w,b
  2912   00EFE6  B4D8               	btfsc	status,2,c
  2913   00EFE8  EFF8  F077         	goto	u3971
  2914   00EFEC  EFFA  F077         	goto	u3970
  2915   00EFF0                     u3971:
  2916   00EFF0  EFEE  F078         	goto	l424
  2917   00EFF4                     u3970:
  2918   00EFF4                     
  2919                           ; BSR set to: 5
  2920                           ;main.c: 567:                 {;main.c: 568:                     if((red >= (redMode1 - 
      +                          5) && red <= redMode1 + 5))
  2921   00EFF4  0EFB               	movlw	251
  2922   00EFF6  258C               	addwf	main@redMode1& (0+255),w,b
  2923   00EFF8  6E2F               	movwf	??_main^(0+1280),c
  2924   00EFFA  6A30               	clrf	(??_main+1)^(0+1280),c
  2925   00EFFC  0EFF               	movlw	255
  2926   00EFFE  2230               	addwfc	(??_main+1)^(0+1280),f,c
  2927   00F000  5190               	movf	main@red& (0+255),w,b
  2928   00F002  6E31               	movwf	(??_main+2)^(0+1280),c
  2929   00F004  6A32               	clrf	(??_main+3)^(0+1280),c
  2930   00F006  502F               	movf	??_main^(0+1280),w,c
  2931   00F008  5C31               	subwf	(??_main+2)^(0+1280),w,c
  2932   00F00A  5032               	movf	(??_main+3)^(0+1280),w,c
  2933   00F00C  0A80               	xorlw	128
  2934   00F00E  6E33               	movwf	(??_main+4)^(0+1280),c
  2935   00F010  5030               	movf	(??_main+1)^(0+1280),w,c
  2936   00F012  0A80               	xorlw	128
  2937   00F014  5833               	subwfb	(??_main+4)^(0+1280),w,c
  2938   00F016  A0D8               	btfss	status,0,c
  2939   00F018  EF10  F078         	goto	u3981
  2940   00F01C  EF12  F078         	goto	u3980
  2941   00F020                     u3981:
  2942   00F020  EF2D  F078         	goto	l425
  2943   00F024                     u3980:
  2944   00F024                     
  2945                           ; BSR set to: 5
  2946   00F024  5190               	movf	main@red& (0+255),w,b
  2947   00F026  6E2F               	movwf	??_main^(0+1280),c
  2948   00F028  6A30               	clrf	(??_main+1)^(0+1280),c
  2949   00F02A  518C               	movf	main@redMode1& (0+255),w,b
  2950   00F02C  6E31               	movwf	(??_main+2)^(0+1280),c
  2951   00F02E  6A32               	clrf	(??_main+3)^(0+1280),c
  2952   00F030  0E05               	movlw	5
  2953   00F032  2631               	addwf	(??_main+2)^(0+1280),f,c
  2954   00F034  0E00               	movlw	0
  2955   00F036  2232               	addwfc	(??_main+3)^(0+1280),f,c
  2956   00F038  502F               	movf	??_main^(0+1280),w,c
  2957   00F03A  5C31               	subwf	(??_main+2)^(0+1280),w,c
  2958   00F03C  5032               	movf	(??_main+3)^(0+1280),w,c
  2959   00F03E  0A80               	xorlw	128
  2960   00F040  6E33               	movwf	(??_main+4)^(0+1280),c
  2961   00F042  5030               	movf	(??_main+1)^(0+1280),w,c
  2962   00F044  0A80               	xorlw	128
  2963   00F046  5833               	subwfb	(??_main+4)^(0+1280),w,c
  2964   00F048  A0D8               	btfss	status,0,c
  2965   00F04A  EF29  F078         	goto	u3991
  2966   00F04E  EF2B  F078         	goto	u3990
  2967   00F052                     u3991:
  2968   00F052  EF2D  F078         	goto	l425
  2969   00F056                     u3990:
  2970   00F056                     
  2971                           ; BSR set to: 5
  2972                           ;main.c: 569:                     {;main.c: 570:                         redAdj = 1;
  2973   00F056  0E01               	movlw	1
  2974   00F058  6F76               	movwf	main@redAdj& (0+255),b
  2975   00F05A                     l425:
  2976                           
  2977                           ; BSR set to: 5
  2978                           ;main.c: 573:                     if(redAdj)
  2979   00F05A  5176               	movf	main@redAdj& (0+255),w,b
  2980   00F05C  B4D8               	btfsc	status,2,c
  2981   00F05E  EF33  F078         	goto	u4001
  2982   00F062  EF35  F078         	goto	u4000
  2983   00F066                     u4001:
  2984   00F066  EF37  F078         	goto	l3362
  2985   00F06A                     u4000:
  2986   00F06A                     
  2987                           ; BSR set to: 5
  2988                           ;main.c: 574:                     {;main.c: 575:                         redMode1 = red;
  2989   00F06A  C590  F58C         	movff	main@red,main@redMode1
  2990   00F06E                     l3362:
  2991                           
  2992                           ; BSR set to: 5
  2993                           ;main.c: 578:                     if((white >= (whiteMode1 - 5) && white <= whiteMode1 +
      +                           5))
  2994   00F06E  0EFB               	movlw	251
  2995   00F070  257E               	addwf	main@whiteMode1& (0+255),w,b
  2996   00F072  6E2F               	movwf	??_main^(0+1280),c
  2997   00F074  6A30               	clrf	(??_main+1)^(0+1280),c
  2998   00F076  0EFF               	movlw	255
  2999   00F078  2230               	addwfc	(??_main+1)^(0+1280),f,c
  3000   00F07A  518F               	movf	main@white& (0+255),w,b
  3001   00F07C  6E31               	movwf	(??_main+2)^(0+1280),c
  3002   00F07E  6A32               	clrf	(??_main+3)^(0+1280),c
  3003   00F080  502F               	movf	??_main^(0+1280),w,c
  3004   00F082  5C31               	subwf	(??_main+2)^(0+1280),w,c
  3005   00F084  5032               	movf	(??_main+3)^(0+1280),w,c
  3006   00F086  0A80               	xorlw	128
  3007   00F088  6E33               	movwf	(??_main+4)^(0+1280),c
  3008   00F08A  5030               	movf	(??_main+1)^(0+1280),w,c
  3009   00F08C  0A80               	xorlw	128
  3010   00F08E  5833               	subwfb	(??_main+4)^(0+1280),w,c
  3011   00F090  A0D8               	btfss	status,0,c
  3012   00F092  EF4D  F078         	goto	u4011
  3013   00F096  EF4F  F078         	goto	u4010
  3014   00F09A                     u4011:
  3015   00F09A  EF6A  F078         	goto	l427
  3016   00F09E                     u4010:
  3017   00F09E                     
  3018                           ; BSR set to: 5
  3019   00F09E  518F               	movf	main@white& (0+255),w,b
  3020   00F0A0  6E2F               	movwf	??_main^(0+1280),c
  3021   00F0A2  6A30               	clrf	(??_main+1)^(0+1280),c
  3022   00F0A4  517E               	movf	main@whiteMode1& (0+255),w,b
  3023   00F0A6  6E31               	movwf	(??_main+2)^(0+1280),c
  3024   00F0A8  6A32               	clrf	(??_main+3)^(0+1280),c
  3025   00F0AA  0E05               	movlw	5
  3026   00F0AC  2631               	addwf	(??_main+2)^(0+1280),f,c
  3027   00F0AE  0E00               	movlw	0
  3028   00F0B0  2232               	addwfc	(??_main+3)^(0+1280),f,c
  3029   00F0B2  502F               	movf	??_main^(0+1280),w,c
  3030   00F0B4  5C31               	subwf	(??_main+2)^(0+1280),w,c
  3031   00F0B6  5032               	movf	(??_main+3)^(0+1280),w,c
  3032   00F0B8  0A80               	xorlw	128
  3033   00F0BA  6E33               	movwf	(??_main+4)^(0+1280),c
  3034   00F0BC  5030               	movf	(??_main+1)^(0+1280),w,c
  3035   00F0BE  0A80               	xorlw	128
  3036   00F0C0  5833               	subwfb	(??_main+4)^(0+1280),w,c
  3037   00F0C2  A0D8               	btfss	status,0,c
  3038   00F0C4  EF66  F078         	goto	u4021
  3039   00F0C8  EF68  F078         	goto	u4020
  3040   00F0CC                     u4021:
  3041   00F0CC  EF6A  F078         	goto	l427
  3042   00F0D0                     u4020:
  3043   00F0D0                     
  3044                           ; BSR set to: 5
  3045                           ;main.c: 579:                     {;main.c: 580:                         whiteAdj = 1;
  3046   00F0D0  0E01               	movlw	1
  3047   00F0D2  6F79               	movwf	main@whiteAdj& (0+255),b
  3048   00F0D4                     l427:
  3049                           
  3050                           ; BSR set to: 5
  3051                           ;main.c: 583:                     if(whiteAdj)
  3052   00F0D4  5179               	movf	main@whiteAdj& (0+255),w,b
  3053   00F0D6  B4D8               	btfsc	status,2,c
  3054   00F0D8  EF70  F078         	goto	u4031
  3055   00F0DC  EF72  F078         	goto	u4030
  3056   00F0E0                     u4031:
  3057   00F0E0  EF74  F078         	goto	l3370
  3058   00F0E4                     u4030:
  3059   00F0E4                     
  3060                           ; BSR set to: 5
  3061                           ;main.c: 584:                     {;main.c: 585:                         whiteMode1 = wh
      +                          ite;
  3062   00F0E4  C58F  F57E         	movff	main@white,main@whiteMode1
  3063   00F0E8                     l3370:
  3064                           
  3065                           ; BSR set to: 5
  3066                           ;main.c: 588:                     if((green >= (greenMode1 - 5) && green <= greenMode1 +
      +                           5))
  3067   00F0E8  0EFB               	movlw	251
  3068   00F0EA  258D               	addwf	main@greenMode1& (0+255),w,b
  3069   00F0EC  6E2F               	movwf	??_main^(0+1280),c
  3070   00F0EE  6A30               	clrf	(??_main+1)^(0+1280),c
  3071   00F0F0  0EFF               	movlw	255
  3072   00F0F2  2230               	addwfc	(??_main+1)^(0+1280),f,c
  3073   00F0F4  5191               	movf	main@green& (0+255),w,b
  3074   00F0F6  6E31               	movwf	(??_main+2)^(0+1280),c
  3075   00F0F8  6A32               	clrf	(??_main+3)^(0+1280),c
  3076   00F0FA  502F               	movf	??_main^(0+1280),w,c
  3077   00F0FC  5C31               	subwf	(??_main+2)^(0+1280),w,c
  3078   00F0FE  5032               	movf	(??_main+3)^(0+1280),w,c
  3079   00F100  0A80               	xorlw	128
  3080   00F102  6E33               	movwf	(??_main+4)^(0+1280),c
  3081   00F104  5030               	movf	(??_main+1)^(0+1280),w,c
  3082   00F106  0A80               	xorlw	128
  3083   00F108  5833               	subwfb	(??_main+4)^(0+1280),w,c
  3084   00F10A  A0D8               	btfss	status,0,c
  3085   00F10C  EF8A  F078         	goto	u4041
  3086   00F110  EF8C  F078         	goto	u4040
  3087   00F114                     u4041:
  3088   00F114  EFA7  F078         	goto	l429
  3089   00F118                     u4040:
  3090   00F118                     
  3091                           ; BSR set to: 5
  3092   00F118  5191               	movf	main@green& (0+255),w,b
  3093   00F11A  6E2F               	movwf	??_main^(0+1280),c
  3094   00F11C  6A30               	clrf	(??_main+1)^(0+1280),c
  3095   00F11E  518D               	movf	main@greenMode1& (0+255),w,b
  3096   00F120  6E31               	movwf	(??_main+2)^(0+1280),c
  3097   00F122  6A32               	clrf	(??_main+3)^(0+1280),c
  3098   00F124  0E05               	movlw	5
  3099   00F126  2631               	addwf	(??_main+2)^(0+1280),f,c
  3100   00F128  0E00               	movlw	0
  3101   00F12A  2232               	addwfc	(??_main+3)^(0+1280),f,c
  3102   00F12C  502F               	movf	??_main^(0+1280),w,c
  3103   00F12E  5C31               	subwf	(??_main+2)^(0+1280),w,c
  3104   00F130  5032               	movf	(??_main+3)^(0+1280),w,c
  3105   00F132  0A80               	xorlw	128
  3106   00F134  6E33               	movwf	(??_main+4)^(0+1280),c
  3107   00F136  5030               	movf	(??_main+1)^(0+1280),w,c
  3108   00F138  0A80               	xorlw	128
  3109   00F13A  5833               	subwfb	(??_main+4)^(0+1280),w,c
  3110   00F13C  A0D8               	btfss	status,0,c
  3111   00F13E  EFA3  F078         	goto	u4051
  3112   00F142  EFA5  F078         	goto	u4050
  3113   00F146                     u4051:
  3114   00F146  EFA7  F078         	goto	l429
  3115   00F14A                     u4050:
  3116   00F14A                     
  3117                           ; BSR set to: 5
  3118                           ;main.c: 589:                     {;main.c: 590:                        greenAdj = 1;
  3119   00F14A  0E01               	movlw	1
  3120   00F14C  6F77               	movwf	main@greenAdj& (0+255),b
  3121   00F14E                     l429:
  3122                           
  3123                           ; BSR set to: 5
  3124                           ;main.c: 593:                     if(greenAdj)
  3125   00F14E  5177               	movf	main@greenAdj& (0+255),w,b
  3126   00F150  B4D8               	btfsc	status,2,c
  3127   00F152  EFAD  F078         	goto	u4061
  3128   00F156  EFAF  F078         	goto	u4060
  3129   00F15A                     u4061:
  3130   00F15A  EFB1  F078         	goto	l3378
  3131   00F15E                     u4060:
  3132   00F15E                     
  3133                           ; BSR set to: 5
  3134                           ;main.c: 594:                     {;main.c: 595:                         greenMode1 = gr
      +                          een;
  3135   00F15E  C591  F58D         	movff	main@green,main@greenMode1
  3136   00F162                     l3378:
  3137                           
  3138                           ; BSR set to: 5
  3139                           ;main.c: 598:                     if((blue >= (blueMode1 - 5) && blue <= blueMode1 + 5))
  3140   00F162  0EFB               	movlw	251
  3141   00F164  258E               	addwf	main@blueMode1& (0+255),w,b
  3142   00F166  6E2F               	movwf	??_main^(0+1280),c
  3143   00F168  6A30               	clrf	(??_main+1)^(0+1280),c
  3144   00F16A  0EFF               	movlw	255
  3145   00F16C  2230               	addwfc	(??_main+1)^(0+1280),f,c
  3146   00F16E  5192               	movf	main@blue& (0+255),w,b
  3147   00F170  6E31               	movwf	(??_main+2)^(0+1280),c
  3148   00F172  6A32               	clrf	(??_main+3)^(0+1280),c
  3149   00F174  502F               	movf	??_main^(0+1280),w,c
  3150   00F176  5C31               	subwf	(??_main+2)^(0+1280),w,c
  3151   00F178  5032               	movf	(??_main+3)^(0+1280),w,c
  3152   00F17A  0A80               	xorlw	128
  3153   00F17C  6E33               	movwf	(??_main+4)^(0+1280),c
  3154   00F17E  5030               	movf	(??_main+1)^(0+1280),w,c
  3155   00F180  0A80               	xorlw	128
  3156   00F182  5833               	subwfb	(??_main+4)^(0+1280),w,c
  3157   00F184  A0D8               	btfss	status,0,c
  3158   00F186  EFC7  F078         	goto	u4071
  3159   00F18A  EFC9  F078         	goto	u4070
  3160   00F18E                     u4071:
  3161   00F18E  EFE4  F078         	goto	l431
  3162   00F192                     u4070:
  3163   00F192                     
  3164                           ; BSR set to: 5
  3165   00F192  5192               	movf	main@blue& (0+255),w,b
  3166   00F194  6E2F               	movwf	??_main^(0+1280),c
  3167   00F196  6A30               	clrf	(??_main+1)^(0+1280),c
  3168   00F198  518E               	movf	main@blueMode1& (0+255),w,b
  3169   00F19A  6E31               	movwf	(??_main+2)^(0+1280),c
  3170   00F19C  6A32               	clrf	(??_main+3)^(0+1280),c
  3171   00F19E  0E05               	movlw	5
  3172   00F1A0  2631               	addwf	(??_main+2)^(0+1280),f,c
  3173   00F1A2  0E00               	movlw	0
  3174   00F1A4  2232               	addwfc	(??_main+3)^(0+1280),f,c
  3175   00F1A6  502F               	movf	??_main^(0+1280),w,c
  3176   00F1A8  5C31               	subwf	(??_main+2)^(0+1280),w,c
  3177   00F1AA  5032               	movf	(??_main+3)^(0+1280),w,c
  3178   00F1AC  0A80               	xorlw	128
  3179   00F1AE  6E33               	movwf	(??_main+4)^(0+1280),c
  3180   00F1B0  5030               	movf	(??_main+1)^(0+1280),w,c
  3181   00F1B2  0A80               	xorlw	128
  3182   00F1B4  5833               	subwfb	(??_main+4)^(0+1280),w,c
  3183   00F1B6  A0D8               	btfss	status,0,c
  3184   00F1B8  EFE0  F078         	goto	u4081
  3185   00F1BC  EFE2  F078         	goto	u4080
  3186   00F1C0                     u4081:
  3187   00F1C0  EFE4  F078         	goto	l431
  3188   00F1C4                     u4080:
  3189   00F1C4                     
  3190                           ; BSR set to: 5
  3191                           ;main.c: 599:                     {;main.c: 600:                         blueAdj = 1;
  3192   00F1C4  0E01               	movlw	1
  3193   00F1C6  6F78               	movwf	main@blueAdj& (0+255),b
  3194   00F1C8                     l431:
  3195                           
  3196                           ; BSR set to: 5
  3197                           ;main.c: 603:                     if(blueAdj)
  3198   00F1C8  5178               	movf	main@blueAdj& (0+255),w,b
  3199   00F1CA  B4D8               	btfsc	status,2,c
  3200   00F1CC  EFEA  F078         	goto	u4091
  3201   00F1D0  EFEC  F078         	goto	u4090
  3202   00F1D4                     u4091:
  3203   00F1D4  EFEE  F078         	goto	l424
  3204   00F1D8                     u4090:
  3205   00F1D8                     
  3206                           ; BSR set to: 5
  3207                           ;main.c: 604:                     {;main.c: 605:                         blueMode1 = blu
      +                          e;
  3208   00F1D8  C592  F58E         	movff	main@blue,main@blueMode1
  3209   00F1DC                     l424:
  3210                           
  3211                           ; BSR set to: 5
  3212                           ;main.c: 611:                 if(!PORTAbits.RA4 && taster2Flag)
  3213   00F1DC  B8CE               	btfsc	206,4,c	;volatile
  3214   00F1DE  EFF3  F078         	goto	u4101
  3215   00F1E2  EFF5  F078         	goto	u4100
  3216   00F1E6                     u4101:
  3217   00F1E6  EF1F  F079         	goto	l3398
  3218   00F1EA                     u4100:
  3219   00F1EA                     
  3220                           ; BSR set to: 5
  3221   00F1EA  517B               	movf	main@taster2Flag& (0+255),w,b
  3222   00F1EC  B4D8               	btfsc	status,2,c
  3223   00F1EE  EFFB  F078         	goto	u4111
  3224   00F1F2  EFFD  F078         	goto	u4110
  3225   00F1F6                     u4111:
  3226   00F1F6  EF1F  F079         	goto	l3398
  3227   00F1FA                     u4110:
  3228   00F1FA                     
  3229                           ; BSR set to: 5
  3230                           ;main.c: 612:                 {;main.c: 613:                     LATCbits.LATC7 = 0;
  3231   00F1FA  9EC0               	bcf	192,7,c	;volatile
  3232                           
  3233                           ;main.c: 614:                     LATCbits.LATC5 = 1;
  3234   00F1FC  8AC0               	bsf	192,5,c	;volatile
  3235   00F1FE                     
  3236                           ; BSR set to: 5
  3237                           ;main.c: 615:                     LED_WriteFull(redMode2, greenMode2, blueMode2, 300);
  3238   00F1FE  C580  F50B         	movff	main@greenMode2,LED_WriteFull@green
  3239   00F202  C581  F50C         	movff	main@blueMode2,LED_WriteFull@blue
  3240   00F206  0E2C               	movlw	44
  3241   00F208  6E0D               	movwf	LED_WriteFull@ledcount^(0+1280),c
  3242   00F20A  0E01               	movlw	1
  3243   00F20C  6E0E               	movwf	(LED_WriteFull@ledcount+1)^(0+1280),c
  3244   00F20E  0E00               	movlw	0
  3245   00F210  6E0F               	movwf	(LED_WriteFull@ledcount+2)^(0+1280),c
  3246   00F212  517F               	movf	main@redMode2& (0+255),w,b
  3247   00F214  ECFF  F06D         	call	_LED_WriteFull
  3248   00F218                     
  3249                           ;main.c: 616:                     state = T2;
  3250   00F218  0E02               	movlw	2
  3251   00F21A  0105               	movlb	5	; () banked
  3252   00F21C  6F93               	movwf	main@state& (0+255),b
  3253   00F21E                     
  3254                           ; BSR set to: 5
  3255                           ;main.c: 617:                     DATAEE_WriteByte(36, state);
  3256   00F21E  0E00               	movlw	0
  3257   00F220  6E02               	movwf	(DATAEE_WriteByte@bAdd+1)^(0+1280),c
  3258   00F222  0E24               	movlw	36
  3259   00F224  6E01               	movwf	DATAEE_WriteByte@bAdd^(0+1280),c
  3260   00F226  C593  F503         	movff	main@state,DATAEE_WriteByte@bData
  3261   00F22A  EC4B  F06D         	call	_DATAEE_WriteByte	;wreg free
  3262   00F22E                     
  3263                           ;main.c: 618:                     DATAEE_WriteByte(2, 69);
  3264   00F22E  0E00               	movlw	0
  3265   00F230  6E02               	movwf	(DATAEE_WriteByte@bAdd+1)^(0+1280),c
  3266   00F232  0E02               	movlw	2
  3267   00F234  6E01               	movwf	DATAEE_WriteByte@bAdd^(0+1280),c
  3268   00F236  0E45               	movlw	69
  3269   00F238  6E03               	movwf	DATAEE_WriteByte@bData^(0+1280),c
  3270   00F23A  EC4B  F06D         	call	_DATAEE_WriteByte	;wreg free
  3271   00F23E                     l3398:
  3272                           
  3273                           ;main.c: 621:                 if(!PORTCbits.RC4 && taster3Flag)
  3274   00F23E  B8D0               	btfsc	208,4,c	;volatile
  3275   00F240  EF24  F079         	goto	u4121
  3276   00F244  EF26  F079         	goto	u4120
  3277   00F248                     u4121:
  3278   00F248  EF51  F079         	goto	l3412
  3279   00F24C                     u4120:
  3280   00F24C  0105               	movlb	5	; () banked
  3281   00F24E  517D               	movf	main@taster3Flag& (0+255),w,b
  3282   00F250  B4D8               	btfsc	status,2,c
  3283   00F252  EF2D  F079         	goto	u4131
  3284   00F256  EF2F  F079         	goto	u4130
  3285   00F25A                     u4131:
  3286   00F25A  EF51  F079         	goto	l3412
  3287   00F25E                     u4130:
  3288   00F25E                     
  3289                           ; BSR set to: 5
  3290                           ;main.c: 622:                 {;main.c: 623:                     LATCbits.LATC7 = 0;
  3291   00F25E  9EC0               	bcf	192,7,c	;volatile
  3292                           
  3293                           ;main.c: 624:                     LATAbits.LATA5 = 1;
  3294   00F260  8ABE               	bsf	190,5,c	;volatile
  3295   00F262                     
  3296                           ; BSR set to: 5
  3297                           ;main.c: 625:                     LED_WriteFull(redMode3, greenMode3, blueMode3, 300);
  3298   00F262  C583  F50B         	movff	main@greenMode3,LED_WriteFull@green
  3299   00F266  C584  F50C         	movff	main@blueMode3,LED_WriteFull@blue
  3300   00F26A  0E2C               	movlw	44
  3301   00F26C  6E0D               	movwf	LED_WriteFull@ledcount^(0+1280),c
  3302   00F26E  0E01               	movlw	1
  3303   00F270  6E0E               	movwf	(LED_WriteFull@ledcount+1)^(0+1280),c
  3304   00F272  0E00               	movlw	0
  3305   00F274  6E0F               	movwf	(LED_WriteFull@ledcount+2)^(0+1280),c
  3306   00F276  5182               	movf	main@redMode3& (0+255),w,b
  3307   00F278  ECFF  F06D         	call	_LED_WriteFull
  3308   00F27C                     
  3309                           ;main.c: 626:                     state = T3 ;
  3310   00F27C  0E03               	movlw	3
  3311   00F27E  0105               	movlb	5	; () banked
  3312   00F280  6F93               	movwf	main@state& (0+255),b
  3313   00F282                     
  3314                           ; BSR set to: 5
  3315                           ;main.c: 627:                     DATAEE_WriteByte(36, state);
  3316   00F282  0E00               	movlw	0
  3317   00F284  6E02               	movwf	(DATAEE_WriteByte@bAdd+1)^(0+1280),c
  3318   00F286  0E24               	movlw	36
  3319   00F288  6E01               	movwf	DATAEE_WriteByte@bAdd^(0+1280),c
  3320   00F28A  C593  F503         	movff	main@state,DATAEE_WriteByte@bData
  3321   00F28E  EC4B  F06D         	call	_DATAEE_WriteByte	;wreg free
  3322   00F292                     
  3323                           ;main.c: 628:                     DATAEE_WriteByte(2, 69);
  3324   00F292  0E00               	movlw	0
  3325   00F294  6E02               	movwf	(DATAEE_WriteByte@bAdd+1)^(0+1280),c
  3326   00F296  0E02               	movlw	2
  3327   00F298  6E01               	movwf	DATAEE_WriteByte@bAdd^(0+1280),c
  3328   00F29A  0E45               	movlw	69
  3329   00F29C  6E03               	movwf	DATAEE_WriteByte@bData^(0+1280),c
  3330   00F29E  EC4B  F06D         	call	_DATAEE_WriteByte	;wreg free
  3331   00F2A2                     l3412:
  3332                           
  3333                           ;main.c: 631:                 if(!PORTBbits.RB7 && taster4Flag)
  3334   00F2A2  BECF               	btfsc	207,7,c	;volatile
  3335   00F2A4  EF56  F079         	goto	u4141
  3336   00F2A8  EF58  F079         	goto	u4140
  3337   00F2AC                     u4141:
  3338   00F2AC  EF78  F071         	goto	l2944
  3339   00F2B0                     u4140:
  3340   00F2B0  0105               	movlb	5	; () banked
  3341   00F2B2  517C               	movf	main@taster4Flag& (0+255),w,b
  3342   00F2B4  B4D8               	btfsc	status,2,c
  3343   00F2B6  EF5F  F079         	goto	u4151
  3344   00F2BA  EF61  F079         	goto	u4150
  3345   00F2BE                     u4151:
  3346   00F2BE  EF78  F071         	goto	l2944
  3347   00F2C2                     u4150:
  3348   00F2C2                     
  3349                           ; BSR set to: 5
  3350                           ;main.c: 632:                 {;main.c: 633:                     LATCbits.LATC7 = 0;
  3351   00F2C2  9EC0               	bcf	192,7,c	;volatile
  3352                           
  3353                           ;main.c: 634:                     LATCbits.LATC3 = 1;
  3354   00F2C4  86C0               	bsf	192,3,c	;volatile
  3355   00F2C6                     
  3356                           ; BSR set to: 5
  3357                           ;main.c: 635:                     LED_WriteFull(redMode4, greenMode4, blueMode4, 300);
  3358   00F2C6  C586  F50B         	movff	main@greenMode4,LED_WriteFull@green
  3359   00F2CA  C587  F50C         	movff	main@blueMode4,LED_WriteFull@blue
  3360   00F2CE  0E2C               	movlw	44
  3361   00F2D0  6E0D               	movwf	LED_WriteFull@ledcount^(0+1280),c
  3362   00F2D2  0E01               	movlw	1
  3363   00F2D4  6E0E               	movwf	(LED_WriteFull@ledcount+1)^(0+1280),c
  3364   00F2D6  0E00               	movlw	0
  3365   00F2D8  6E0F               	movwf	(LED_WriteFull@ledcount+2)^(0+1280),c
  3366   00F2DA  5185               	movf	main@redMode4& (0+255),w,b
  3367   00F2DC  ECFF  F06D         	call	_LED_WriteFull
  3368   00F2E0                     l3420:
  3369                           
  3370                           ;main.c: 636:                     state = T4 ;
  3371   00F2E0  0E04               	movlw	4
  3372   00F2E2  0105               	movlb	5	; () banked
  3373   00F2E4  6F93               	movwf	main@state& (0+255),b
  3374   00F2E6  EF95  F075         	goto	l3194
  3375   00F2EA                     l3426:
  3376                           
  3377                           ; BSR set to: 5
  3378                           ;main.c: 649:                 LED_WriteFull(redMode2,greenMode2,blueMode2, 300);
  3379   00F2EA  C580  F50B         	movff	main@greenMode2,LED_WriteFull@green
  3380   00F2EE  C581  F50C         	movff	main@blueMode2,LED_WriteFull@blue
  3381   00F2F2  0E2C               	movlw	44
  3382   00F2F4  6E0D               	movwf	LED_WriteFull@ledcount^(0+1280),c
  3383   00F2F6  0E01               	movlw	1
  3384   00F2F8  6E0E               	movwf	(LED_WriteFull@ledcount+1)^(0+1280),c
  3385   00F2FA  0E00               	movlw	0
  3386   00F2FC  6E0F               	movwf	(LED_WriteFull@ledcount+2)^(0+1280),c
  3387   00F2FE  517F               	movf	main@redMode2& (0+255),w,b
  3388   00F300  ECFF  F06D         	call	_LED_WriteFull
  3389   00F304                     
  3390                           ;main.c: 653:                 if(led2StateBlink && (++timeout250ms == 12))
  3391   00F304  0105               	movlb	5	; () banked
  3392   00F306  5171               	movf	main@led2StateBlink& (0+255),w,b
  3393   00F308  B4D8               	btfsc	status,2,c
  3394   00F30A  EF89  F079         	goto	u4161
  3395   00F30E  EF8B  F079         	goto	u4160
  3396   00F312                     u4161:
  3397   00F312  EFA8  F079         	goto	l3436
  3398   00F316                     u4160:
  3399   00F316                     
  3400                           ; BSR set to: 5
  3401   00F316  2B74               	incf	main@timeout250ms& (0+255),f,b
  3402   00F318  0E0C               	movlw	12
  3403   00F31A  1974               	xorwf	main@timeout250ms& (0+255),w,b
  3404   00F31C  A4D8               	btfss	status,2,c
  3405   00F31E  EF93  F079         	goto	u4171
  3406   00F322  EF95  F079         	goto	u4170
  3407   00F326                     u4171:
  3408   00F326  EFA8  F079         	goto	l3436
  3409   00F32A                     u4170:
  3410   00F32A                     
  3411                           ; BSR set to: 5
  3412                           ;main.c: 654:                 {;main.c: 655:                     timeout250ms = 0;
  3413   00F32A  0E00               	movlw	0
  3414   00F32C  6F74               	movwf	main@timeout250ms& (0+255),b
  3415   00F32E                     
  3416                           ; BSR set to: 5
  3417                           ;main.c: 656:                     LATCbits.LATC5 = !LATCbits.LATC5;
  3418   00F32E  AAC0               	btfss	192,5,c	;volatile
  3419   00F330  EF9C  F079         	goto	u4181
  3420   00F334  EFA0  F079         	goto	u4180
  3421   00F338                     u4181:
  3422   00F338  6A2F               	clrf	??_main^(0+1280),c
  3423   00F33A  2A2F               	incf	??_main^(0+1280),f,c
  3424   00F33C  EFA1  F079         	goto	u4198
  3425   00F340                     u4180:
  3426   00F340  6A2F               	clrf	??_main^(0+1280),c
  3427   00F342                     u4198:
  3428   00F342  3A2F               	swapf	??_main^(0+1280),f,c
  3429   00F344  462F               	rlncf	??_main^(0+1280),f,c
  3430   00F346  50C0               	movf	192,w,c	;volatile
  3431   00F348  182F               	xorwf	??_main^(0+1280),w,c
  3432   00F34A  0BDF               	andlw	-33
  3433   00F34C  182F               	xorwf	??_main^(0+1280),w,c
  3434   00F34E  6EC0               	movwf	192,c	;volatile
  3435   00F350                     l3436:
  3436                           
  3437                           ;main.c: 659:                 if(!PORTAbits.RA4 && taster2Flag && !led2StateBlink)
  3438   00F350  B8CE               	btfsc	206,4,c	;volatile
  3439   00F352  EFAD  F079         	goto	u4201
  3440   00F356  EFAF  F079         	goto	u4200
  3441   00F35A                     u4201:
  3442   00F35A  EFC2  F079         	goto	l3444
  3443   00F35E                     u4200:
  3444   00F35E  0105               	movlb	5	; () banked
  3445   00F360  517B               	movf	main@taster2Flag& (0+255),w,b
  3446   00F362  B4D8               	btfsc	status,2,c
  3447   00F364  EFB6  F079         	goto	u4211
  3448   00F368  EFB8  F079         	goto	u4210
  3449   00F36C                     u4211:
  3450   00F36C  EFC2  F079         	goto	l3444
  3451   00F370                     u4210:
  3452   00F370                     
  3453                           ; BSR set to: 5
  3454   00F370  5171               	movf	main@led2StateBlink& (0+255),w,b
  3455   00F372  A4D8               	btfss	status,2,c
  3456   00F374  EFBE  F079         	goto	u4221
  3457   00F378  EFC0  F079         	goto	u4220
  3458   00F37C                     u4221:
  3459   00F37C  EFC2  F079         	goto	l3444
  3460   00F380                     u4220:
  3461   00F380                     
  3462                           ; BSR set to: 5
  3463                           ;main.c: 660:                 {;main.c: 661:                     state = T2StateDummy;
  3464   00F380  0E0A               	movlw	10
  3465   00F382  6F93               	movwf	main@state& (0+255),b
  3466   00F384                     l3444:
  3467                           
  3468                           ;main.c: 664:                 if(!PORTAbits.RA4 && taster2Flag && led2StateBlink)
  3469   00F384  B8CE               	btfsc	206,4,c	;volatile
  3470   00F386  EFC7  F079         	goto	u4231
  3471   00F38A  EFC9  F079         	goto	u4230
  3472   00F38E                     u4231:
  3473   00F38E  EF0D  F07A         	goto	l3464
  3474   00F392                     u4230:
  3475   00F392  0105               	movlb	5	; () banked
  3476   00F394  517B               	movf	main@taster2Flag& (0+255),w,b
  3477   00F396  B4D8               	btfsc	status,2,c
  3478   00F398  EFD0  F079         	goto	u4241
  3479   00F39C  EFD2  F079         	goto	u4240
  3480   00F3A0                     u4241:
  3481   00F3A0  EF0D  F07A         	goto	l3464
  3482   00F3A4                     u4240:
  3483   00F3A4                     
  3484                           ; BSR set to: 5
  3485   00F3A4  5171               	movf	main@led2StateBlink& (0+255),w,b
  3486   00F3A6  B4D8               	btfsc	status,2,c
  3487   00F3A8  EFD8  F079         	goto	u4251
  3488   00F3AC  EFDA  F079         	goto	u4250
  3489   00F3B0                     u4251:
  3490   00F3B0  EF0D  F07A         	goto	l3464
  3491   00F3B4                     u4250:
  3492   00F3B4                     
  3493                           ; BSR set to: 5
  3494                           ;main.c: 665:                 {;main.c: 666:                     LATCbits.LATC5 = 1;
  3495   00F3B4  8AC0               	bsf	192,5,c	;volatile
  3496   00F3B6                     
  3497                           ; BSR set to: 5
  3498                           ;main.c: 667:                     led2StateBlink = 0;
  3499   00F3B6  0E00               	movlw	0
  3500   00F3B8  6F71               	movwf	main@led2StateBlink& (0+255),b
  3501                           
  3502                           ;main.c: 668:                     redAdj = 0;
  3503   00F3BA  0E00               	movlw	0
  3504   00F3BC  6F76               	movwf	main@redAdj& (0+255),b
  3505                           
  3506                           ;main.c: 669:                     greenAdj = 0;
  3507   00F3BE  0E00               	movlw	0
  3508   00F3C0  6F77               	movwf	main@greenAdj& (0+255),b
  3509                           
  3510                           ;main.c: 670:                     blueAdj = 0;
  3511   00F3C2  0E00               	movlw	0
  3512   00F3C4  6F78               	movwf	main@blueAdj& (0+255),b
  3513                           
  3514                           ;main.c: 671:                     whiteAdj = 0;
  3515   00F3C6  0E00               	movlw	0
  3516   00F3C8  6F79               	movwf	main@whiteAdj& (0+255),b
  3517   00F3CA                     
  3518                           ; BSR set to: 5
  3519                           ;main.c: 672:                     DATAEE_WriteByte(20, blueMode1);
  3520   00F3CA  0E00               	movlw	0
  3521   00F3CC  6E02               	movwf	(DATAEE_WriteByte@bAdd+1)^(0+1280),c
  3522   00F3CE  0E14               	movlw	20
  3523   00F3D0  6E01               	movwf	DATAEE_WriteByte@bAdd^(0+1280),c
  3524   00F3D2  C58E  F503         	movff	main@blueMode1,DATAEE_WriteByte@bData
  3525   00F3D6  EC4B  F06D         	call	_DATAEE_WriteByte	;wreg free
  3526   00F3DA                     
  3527                           ;main.c: 673:                     DATAEE_WriteByte(19, greenMode1);
  3528   00F3DA  0E00               	movlw	0
  3529   00F3DC  6E02               	movwf	(DATAEE_WriteByte@bAdd+1)^(0+1280),c
  3530   00F3DE  0E13               	movlw	19
  3531   00F3E0  6E01               	movwf	DATAEE_WriteByte@bAdd^(0+1280),c
  3532   00F3E2  C58D  F503         	movff	main@greenMode1,DATAEE_WriteByte@bData
  3533   00F3E6  EC4B  F06D         	call	_DATAEE_WriteByte	;wreg free
  3534   00F3EA                     
  3535                           ;main.c: 674:                     DATAEE_WriteByte(18, redMode1);
  3536   00F3EA  0E00               	movlw	0
  3537   00F3EC  6E02               	movwf	(DATAEE_WriteByte@bAdd+1)^(0+1280),c
  3538   00F3EE  0E12               	movlw	18
  3539   00F3F0  6E01               	movwf	DATAEE_WriteByte@bAdd^(0+1280),c
  3540   00F3F2  C58C  F503         	movff	main@redMode1,DATAEE_WriteByte@bData
  3541   00F3F6  EC4B  F06D         	call	_DATAEE_WriteByte	;wreg free
  3542   00F3FA                     
  3543                           ;main.c: 675:                     DATAEE_WriteByte(21, whiteMode1);
  3544   00F3FA  0E00               	movlw	0
  3545   00F3FC  6E02               	movwf	(DATAEE_WriteByte@bAdd+1)^(0+1280),c
  3546   00F3FE  0E15               	movlw	21
  3547   00F400  6E01               	movwf	DATAEE_WriteByte@bAdd^(0+1280),c
  3548   00F402  C57E  F503         	movff	main@whiteMode1,DATAEE_WriteByte@bData
  3549   00F406  EC4B  F06D         	call	_DATAEE_WriteByte	;wreg free
  3550   00F40A                     
  3551                           ;main.c: 676:                     DATAEE_WriteByte(4, 69);
  3552   00F40A  0E00               	movlw	0
  3553   00F40C  6E02               	movwf	(DATAEE_WriteByte@bAdd+1)^(0+1280),c
  3554   00F40E  0E04               	movlw	4
  3555   00F410  6E01               	movwf	DATAEE_WriteByte@bAdd^(0+1280),c
  3556   00F412  0E45               	movlw	69
  3557   00F414  6E03               	movwf	DATAEE_WriteByte@bData^(0+1280),c
  3558   00F416  EC4B  F06D         	call	_DATAEE_WriteByte	;wreg free
  3559   00F41A                     l3464:
  3560                           
  3561                           ;main.c: 679:                 if(led2StateBlink)
  3562   00F41A  0105               	movlb	5	; () banked
  3563   00F41C  5171               	movf	main@led2StateBlink& (0+255),w,b
  3564   00F41E  B4D8               	btfsc	status,2,c
  3565   00F420  EF14  F07A         	goto	u4261
  3566   00F424  EF16  F07A         	goto	u4260
  3567   00F428                     u4261:
  3568   00F428  EF0A  F07B         	goto	l440
  3569   00F42C                     u4260:
  3570   00F42C                     
  3571                           ; BSR set to: 5
  3572                           ;main.c: 680:                 {;main.c: 681:                     if((red >= (redMode2 - 
      +                          5) && red <= redMode2 + 5))
  3573   00F42C  0EFB               	movlw	251
  3574   00F42E  257F               	addwf	main@redMode2& (0+255),w,b
  3575   00F430  6E2F               	movwf	??_main^(0+1280),c
  3576   00F432  6A30               	clrf	(??_main+1)^(0+1280),c
  3577   00F434  0EFF               	movlw	255
  3578   00F436  2230               	addwfc	(??_main+1)^(0+1280),f,c
  3579   00F438  5190               	movf	main@red& (0+255),w,b
  3580   00F43A  6E31               	movwf	(??_main+2)^(0+1280),c
  3581   00F43C  6A32               	clrf	(??_main+3)^(0+1280),c
  3582   00F43E  502F               	movf	??_main^(0+1280),w,c
  3583   00F440  5C31               	subwf	(??_main+2)^(0+1280),w,c
  3584   00F442  5032               	movf	(??_main+3)^(0+1280),w,c
  3585   00F444  0A80               	xorlw	128
  3586   00F446  6E33               	movwf	(??_main+4)^(0+1280),c
  3587   00F448  5030               	movf	(??_main+1)^(0+1280),w,c
  3588   00F44A  0A80               	xorlw	128
  3589   00F44C  5833               	subwfb	(??_main+4)^(0+1280),w,c
  3590   00F44E  A0D8               	btfss	status,0,c
  3591   00F450  EF2C  F07A         	goto	u4271
  3592   00F454  EF2E  F07A         	goto	u4270
  3593   00F458                     u4271:
  3594   00F458  EF49  F07A         	goto	l441
  3595   00F45C                     u4270:
  3596   00F45C                     
  3597                           ; BSR set to: 5
  3598   00F45C  5190               	movf	main@red& (0+255),w,b
  3599   00F45E  6E2F               	movwf	??_main^(0+1280),c
  3600   00F460  6A30               	clrf	(??_main+1)^(0+1280),c
  3601   00F462  517F               	movf	main@redMode2& (0+255),w,b
  3602   00F464  6E31               	movwf	(??_main+2)^(0+1280),c
  3603   00F466  6A32               	clrf	(??_main+3)^(0+1280),c
  3604   00F468  0E05               	movlw	5
  3605   00F46A  2631               	addwf	(??_main+2)^(0+1280),f,c
  3606   00F46C  0E00               	movlw	0
  3607   00F46E  2232               	addwfc	(??_main+3)^(0+1280),f,c
  3608   00F470  502F               	movf	??_main^(0+1280),w,c
  3609   00F472  5C31               	subwf	(??_main+2)^(0+1280),w,c
  3610   00F474  5032               	movf	(??_main+3)^(0+1280),w,c
  3611   00F476  0A80               	xorlw	128
  3612   00F478  6E33               	movwf	(??_main+4)^(0+1280),c
  3613   00F47A  5030               	movf	(??_main+1)^(0+1280),w,c
  3614   00F47C  0A80               	xorlw	128
  3615   00F47E  5833               	subwfb	(??_main+4)^(0+1280),w,c
  3616   00F480  A0D8               	btfss	status,0,c
  3617   00F482  EF45  F07A         	goto	u4281
  3618   00F486  EF47  F07A         	goto	u4280
  3619   00F48A                     u4281:
  3620   00F48A  EF49  F07A         	goto	l441
  3621   00F48E                     u4280:
  3622   00F48E                     
  3623                           ; BSR set to: 5
  3624                           ;main.c: 682:                     {;main.c: 683:                         redAdj = 1;
  3625   00F48E  0E01               	movlw	1
  3626   00F490  6F76               	movwf	main@redAdj& (0+255),b
  3627   00F492                     l441:
  3628                           
  3629                           ; BSR set to: 5
  3630                           ;main.c: 686:                     if(redAdj)
  3631   00F492  5176               	movf	main@redAdj& (0+255),w,b
  3632   00F494  B4D8               	btfsc	status,2,c
  3633   00F496  EF4F  F07A         	goto	u4291
  3634   00F49A  EF51  F07A         	goto	u4290
  3635   00F49E                     u4291:
  3636   00F49E  EF53  F07A         	goto	l3474
  3637   00F4A2                     u4290:
  3638   00F4A2                     
  3639                           ; BSR set to: 5
  3640                           ;main.c: 687:                     {;main.c: 688:                         redMode2 = red;
  3641   00F4A2  C590  F57F         	movff	main@red,main@redMode2
  3642   00F4A6                     l3474:
  3643                           
  3644                           ; BSR set to: 5
  3645                           ;main.c: 691:                     if((white >= (whiteMode2 - 5) && white <= whiteMode2 +
      +                           5))
  3646   00F4A6  0EFB               	movlw	251
  3647   00F4A8  256D               	addwf	main@whiteMode2& (0+255),w,b
  3648   00F4AA  6E2F               	movwf	??_main^(0+1280),c
  3649   00F4AC  6A30               	clrf	(??_main+1)^(0+1280),c
  3650   00F4AE  0EFF               	movlw	255
  3651   00F4B0  2230               	addwfc	(??_main+1)^(0+1280),f,c
  3652   00F4B2  518F               	movf	main@white& (0+255),w,b
  3653   00F4B4  6E31               	movwf	(??_main+2)^(0+1280),c
  3654   00F4B6  6A32               	clrf	(??_main+3)^(0+1280),c
  3655   00F4B8  502F               	movf	??_main^(0+1280),w,c
  3656   00F4BA  5C31               	subwf	(??_main+2)^(0+1280),w,c
  3657   00F4BC  5032               	movf	(??_main+3)^(0+1280),w,c
  3658   00F4BE  0A80               	xorlw	128
  3659   00F4C0  6E33               	movwf	(??_main+4)^(0+1280),c
  3660   00F4C2  5030               	movf	(??_main+1)^(0+1280),w,c
  3661   00F4C4  0A80               	xorlw	128
  3662   00F4C6  5833               	subwfb	(??_main+4)^(0+1280),w,c
  3663   00F4C8  A0D8               	btfss	status,0,c
  3664   00F4CA  EF69  F07A         	goto	u4301
  3665   00F4CE  EF6B  F07A         	goto	u4300
  3666   00F4D2                     u4301:
  3667   00F4D2  EF86  F07A         	goto	l443
  3668   00F4D6                     u4300:
  3669   00F4D6                     
  3670                           ; BSR set to: 5
  3671   00F4D6  518F               	movf	main@white& (0+255),w,b
  3672   00F4D8  6E2F               	movwf	??_main^(0+1280),c
  3673   00F4DA  6A30               	clrf	(??_main+1)^(0+1280),c
  3674   00F4DC  516D               	movf	main@whiteMode2& (0+255),w,b
  3675   00F4DE  6E31               	movwf	(??_main+2)^(0+1280),c
  3676   00F4E0  6A32               	clrf	(??_main+3)^(0+1280),c
  3677   00F4E2  0E05               	movlw	5
  3678   00F4E4  2631               	addwf	(??_main+2)^(0+1280),f,c
  3679   00F4E6  0E00               	movlw	0
  3680   00F4E8  2232               	addwfc	(??_main+3)^(0+1280),f,c
  3681   00F4EA  502F               	movf	??_main^(0+1280),w,c
  3682   00F4EC  5C31               	subwf	(??_main+2)^(0+1280),w,c
  3683   00F4EE  5032               	movf	(??_main+3)^(0+1280),w,c
  3684   00F4F0  0A80               	xorlw	128
  3685   00F4F2  6E33               	movwf	(??_main+4)^(0+1280),c
  3686   00F4F4  5030               	movf	(??_main+1)^(0+1280),w,c
  3687   00F4F6  0A80               	xorlw	128
  3688   00F4F8  5833               	subwfb	(??_main+4)^(0+1280),w,c
  3689   00F4FA  A0D8               	btfss	status,0,c
  3690   00F4FC  EF82  F07A         	goto	u4311
  3691   00F500  EF84  F07A         	goto	u4310
  3692   00F504                     u4311:
  3693   00F504  EF86  F07A         	goto	l443
  3694   00F508                     u4310:
  3695   00F508                     
  3696                           ; BSR set to: 5
  3697                           ;main.c: 692:                     {;main.c: 693:                         whiteAdj = 1;
  3698   00F508  0E01               	movlw	1
  3699   00F50A  6F79               	movwf	main@whiteAdj& (0+255),b
  3700   00F50C                     l443:
  3701                           
  3702                           ; BSR set to: 5
  3703                           ;main.c: 696:                     if(whiteAdj)
  3704   00F50C  5179               	movf	main@whiteAdj& (0+255),w,b
  3705   00F50E  B4D8               	btfsc	status,2,c
  3706   00F510  EF8C  F07A         	goto	u4321
  3707   00F514  EF8E  F07A         	goto	u4320
  3708   00F518                     u4321:
  3709   00F518  EF90  F07A         	goto	l3482
  3710   00F51C                     u4320:
  3711   00F51C                     
  3712                           ; BSR set to: 5
  3713                           ;main.c: 697:                     {;main.c: 698:                         whiteMode2 = wh
      +                          ite;
  3714   00F51C  C58F  F56D         	movff	main@white,main@whiteMode2
  3715   00F520                     l3482:
  3716                           
  3717                           ; BSR set to: 5
  3718                           ;main.c: 701:                     if((green >= (greenMode2 - 5) && green <= greenMode2 +
      +                           5))
  3719   00F520  0EFB               	movlw	251
  3720   00F522  2580               	addwf	main@greenMode2& (0+255),w,b
  3721   00F524  6E2F               	movwf	??_main^(0+1280),c
  3722   00F526  6A30               	clrf	(??_main+1)^(0+1280),c
  3723   00F528  0EFF               	movlw	255
  3724   00F52A  2230               	addwfc	(??_main+1)^(0+1280),f,c
  3725   00F52C  5191               	movf	main@green& (0+255),w,b
  3726   00F52E  6E31               	movwf	(??_main+2)^(0+1280),c
  3727   00F530  6A32               	clrf	(??_main+3)^(0+1280),c
  3728   00F532  502F               	movf	??_main^(0+1280),w,c
  3729   00F534  5C31               	subwf	(??_main+2)^(0+1280),w,c
  3730   00F536  5032               	movf	(??_main+3)^(0+1280),w,c
  3731   00F538  0A80               	xorlw	128
  3732   00F53A  6E33               	movwf	(??_main+4)^(0+1280),c
  3733   00F53C  5030               	movf	(??_main+1)^(0+1280),w,c
  3734   00F53E  0A80               	xorlw	128
  3735   00F540  5833               	subwfb	(??_main+4)^(0+1280),w,c
  3736   00F542  A0D8               	btfss	status,0,c
  3737   00F544  EFA6  F07A         	goto	u4331
  3738   00F548  EFA8  F07A         	goto	u4330
  3739   00F54C                     u4331:
  3740   00F54C  EFC3  F07A         	goto	l445
  3741   00F550                     u4330:
  3742   00F550                     
  3743                           ; BSR set to: 5
  3744   00F550  5191               	movf	main@green& (0+255),w,b
  3745   00F552  6E2F               	movwf	??_main^(0+1280),c
  3746   00F554  6A30               	clrf	(??_main+1)^(0+1280),c
  3747   00F556  5180               	movf	main@greenMode2& (0+255),w,b
  3748   00F558  6E31               	movwf	(??_main+2)^(0+1280),c
  3749   00F55A  6A32               	clrf	(??_main+3)^(0+1280),c
  3750   00F55C  0E05               	movlw	5
  3751   00F55E  2631               	addwf	(??_main+2)^(0+1280),f,c
  3752   00F560  0E00               	movlw	0
  3753   00F562  2232               	addwfc	(??_main+3)^(0+1280),f,c
  3754   00F564  502F               	movf	??_main^(0+1280),w,c
  3755   00F566  5C31               	subwf	(??_main+2)^(0+1280),w,c
  3756   00F568  5032               	movf	(??_main+3)^(0+1280),w,c
  3757   00F56A  0A80               	xorlw	128
  3758   00F56C  6E33               	movwf	(??_main+4)^(0+1280),c
  3759   00F56E  5030               	movf	(??_main+1)^(0+1280),w,c
  3760   00F570  0A80               	xorlw	128
  3761   00F572  5833               	subwfb	(??_main+4)^(0+1280),w,c
  3762   00F574  A0D8               	btfss	status,0,c
  3763   00F576  EFBF  F07A         	goto	u4341
  3764   00F57A  EFC1  F07A         	goto	u4340
  3765   00F57E                     u4341:
  3766   00F57E  EFC3  F07A         	goto	l445
  3767   00F582                     u4340:
  3768   00F582                     
  3769                           ; BSR set to: 5
  3770                           ;main.c: 702:                     {;main.c: 703:                        greenAdj = 1;
  3771   00F582  0E01               	movlw	1
  3772   00F584  6F77               	movwf	main@greenAdj& (0+255),b
  3773   00F586                     l445:
  3774                           
  3775                           ; BSR set to: 5
  3776                           ;main.c: 706:                     if(greenAdj)
  3777   00F586  5177               	movf	main@greenAdj& (0+255),w,b
  3778   00F588  B4D8               	btfsc	status,2,c
  3779   00F58A  EFC9  F07A         	goto	u4351
  3780   00F58E  EFCB  F07A         	goto	u4350
  3781   00F592                     u4351:
  3782   00F592  EFCD  F07A         	goto	l3490
  3783   00F596                     u4350:
  3784   00F596                     
  3785                           ; BSR set to: 5
  3786                           ;main.c: 707:                     {;main.c: 708:                         greenMode2 = gr
      +                          een;
  3787   00F596  C591  F580         	movff	main@green,main@greenMode2
  3788   00F59A                     l3490:
  3789                           
  3790                           ; BSR set to: 5
  3791                           ;main.c: 711:                     if((blue >= (blueMode2 - 5) && blue <= blueMode2 + 5))
  3792   00F59A  0EFB               	movlw	251
  3793   00F59C  2581               	addwf	main@blueMode2& (0+255),w,b
  3794   00F59E  6E2F               	movwf	??_main^(0+1280),c
  3795   00F5A0  6A30               	clrf	(??_main+1)^(0+1280),c
  3796   00F5A2  0EFF               	movlw	255
  3797   00F5A4  2230               	addwfc	(??_main+1)^(0+1280),f,c
  3798   00F5A6  5192               	movf	main@blue& (0+255),w,b
  3799   00F5A8  6E31               	movwf	(??_main+2)^(0+1280),c
  3800   00F5AA  6A32               	clrf	(??_main+3)^(0+1280),c
  3801   00F5AC  502F               	movf	??_main^(0+1280),w,c
  3802   00F5AE  5C31               	subwf	(??_main+2)^(0+1280),w,c
  3803   00F5B0  5032               	movf	(??_main+3)^(0+1280),w,c
  3804   00F5B2  0A80               	xorlw	128
  3805   00F5B4  6E33               	movwf	(??_main+4)^(0+1280),c
  3806   00F5B6  5030               	movf	(??_main+1)^(0+1280),w,c
  3807   00F5B8  0A80               	xorlw	128
  3808   00F5BA  5833               	subwfb	(??_main+4)^(0+1280),w,c
  3809   00F5BC  A0D8               	btfss	status,0,c
  3810   00F5BE  EFE3  F07A         	goto	u4361
  3811   00F5C2  EFE5  F07A         	goto	u4360
  3812   00F5C6                     u4361:
  3813   00F5C6  EF00  F07B         	goto	l447
  3814   00F5CA                     u4360:
  3815   00F5CA                     
  3816                           ; BSR set to: 5
  3817   00F5CA  5192               	movf	main@blue& (0+255),w,b
  3818   00F5CC  6E2F               	movwf	??_main^(0+1280),c
  3819   00F5CE  6A30               	clrf	(??_main+1)^(0+1280),c
  3820   00F5D0  5181               	movf	main@blueMode2& (0+255),w,b
  3821   00F5D2  6E31               	movwf	(??_main+2)^(0+1280),c
  3822   00F5D4  6A32               	clrf	(??_main+3)^(0+1280),c
  3823   00F5D6  0E05               	movlw	5
  3824   00F5D8  2631               	addwf	(??_main+2)^(0+1280),f,c
  3825   00F5DA  0E00               	movlw	0
  3826   00F5DC  2232               	addwfc	(??_main+3)^(0+1280),f,c
  3827   00F5DE  502F               	movf	??_main^(0+1280),w,c
  3828   00F5E0  5C31               	subwf	(??_main+2)^(0+1280),w,c
  3829   00F5E2  5032               	movf	(??_main+3)^(0+1280),w,c
  3830   00F5E4  0A80               	xorlw	128
  3831   00F5E6  6E33               	movwf	(??_main+4)^(0+1280),c
  3832   00F5E8  5030               	movf	(??_main+1)^(0+1280),w,c
  3833   00F5EA  0A80               	xorlw	128
  3834   00F5EC  5833               	subwfb	(??_main+4)^(0+1280),w,c
  3835   00F5EE  A0D8               	btfss	status,0,c
  3836   00F5F0  EFFC  F07A         	goto	u4371
  3837   00F5F4  EFFE  F07A         	goto	u4370
  3838   00F5F8                     u4371:
  3839   00F5F8  EF00  F07B         	goto	l447
  3840   00F5FC                     u4370:
  3841   00F5FC                     
  3842                           ; BSR set to: 5
  3843                           ;main.c: 712:                     {;main.c: 713:                         blueAdj = 1;
  3844   00F5FC  0E01               	movlw	1
  3845   00F5FE  6F78               	movwf	main@blueAdj& (0+255),b
  3846   00F600                     l447:
  3847                           
  3848                           ; BSR set to: 5
  3849                           ;main.c: 716:                     if(blueAdj)
  3850   00F600  5178               	movf	main@blueAdj& (0+255),w,b
  3851   00F602  B4D8               	btfsc	status,2,c
  3852   00F604  EF06  F07B         	goto	u4381
  3853   00F608  EF08  F07B         	goto	u4380
  3854   00F60C                     u4381:
  3855   00F60C  EF0A  F07B         	goto	l440
  3856   00F610                     u4380:
  3857   00F610                     
  3858                           ; BSR set to: 5
  3859                           ;main.c: 717:                     {;main.c: 718:                         blueMode2 = blu
      +                          e;
  3860   00F610  C592  F581         	movff	main@blue,main@blueMode2
  3861   00F614                     l440:
  3862                           
  3863                           ; BSR set to: 5
  3864                           ;main.c: 725:                 if(!PORTCbits.RC6 && taster1Flag)
  3865   00F614  BCD0               	btfsc	208,6,c	;volatile
  3866   00F616  EF0F  F07B         	goto	u4391
  3867   00F61A  EF11  F07B         	goto	u4390
  3868   00F61E                     u4391:
  3869   00F61E  EF3B  F07B         	goto	l3510
  3870   00F622                     u4390:
  3871   00F622                     
  3872                           ; BSR set to: 5
  3873   00F622  517A               	movf	main@taster1Flag& (0+255),w,b
  3874   00F624  B4D8               	btfsc	status,2,c
  3875   00F626  EF17  F07B         	goto	u4401
  3876   00F62A  EF19  F07B         	goto	u4400
  3877   00F62E                     u4401:
  3878   00F62E  EF3B  F07B         	goto	l3510
  3879   00F632                     u4400:
  3880   00F632                     
  3881                           ; BSR set to: 5
  3882                           ;main.c: 726:                 {;main.c: 727:                     LATCbits.LATC5 = 0;
  3883   00F632  9AC0               	bcf	192,5,c	;volatile
  3884                           
  3885                           ;main.c: 728:                     LATCbits.LATC7 = 1;
  3886   00F634  8EC0               	bsf	192,7,c	;volatile
  3887   00F636                     
  3888                           ; BSR set to: 5
  3889                           ;main.c: 729:                     LED_WriteFull(redMode1, greenMode1, blueMode1, 300);
  3890   00F636  C58D  F50B         	movff	main@greenMode1,LED_WriteFull@green
  3891   00F63A  C58E  F50C         	movff	main@blueMode1,LED_WriteFull@blue
  3892   00F63E  0E2C               	movlw	44
  3893   00F640  6E0D               	movwf	LED_WriteFull@ledcount^(0+1280),c
  3894   00F642  0E01               	movlw	1
  3895   00F644  6E0E               	movwf	(LED_WriteFull@ledcount+1)^(0+1280),c
  3896   00F646  0E00               	movlw	0
  3897   00F648  6E0F               	movwf	(LED_WriteFull@ledcount+2)^(0+1280),c
  3898   00F64A  518C               	movf	main@redMode1& (0+255),w,b
  3899   00F64C  ECFF  F06D         	call	_LED_WriteFull
  3900   00F650                     
  3901                           ;main.c: 730:                     state = T1;
  3902   00F650  0E01               	movlw	1
  3903   00F652  0105               	movlb	5	; () banked
  3904   00F654  6F93               	movwf	main@state& (0+255),b
  3905   00F656                     
  3906                           ; BSR set to: 5
  3907                           ;main.c: 731:                     DATAEE_WriteByte(36, state);
  3908   00F656  0E00               	movlw	0
  3909   00F658  6E02               	movwf	(DATAEE_WriteByte@bAdd+1)^(0+1280),c
  3910   00F65A  0E24               	movlw	36
  3911   00F65C  6E01               	movwf	DATAEE_WriteByte@bAdd^(0+1280),c
  3912   00F65E  C593  F503         	movff	main@state,DATAEE_WriteByte@bData
  3913   00F662  EC4B  F06D         	call	_DATAEE_WriteByte	;wreg free
  3914   00F666                     
  3915                           ;main.c: 732:                     DATAEE_WriteByte(2, 69);
  3916   00F666  0E00               	movlw	0
  3917   00F668  6E02               	movwf	(DATAEE_WriteByte@bAdd+1)^(0+1280),c
  3918   00F66A  0E02               	movlw	2
  3919   00F66C  6E01               	movwf	DATAEE_WriteByte@bAdd^(0+1280),c
  3920   00F66E  0E45               	movlw	69
  3921   00F670  6E03               	movwf	DATAEE_WriteByte@bData^(0+1280),c
  3922   00F672  EC4B  F06D         	call	_DATAEE_WriteByte	;wreg free
  3923   00F676                     l3510:
  3924                           
  3925                           ;main.c: 736:                 if(!PORTCbits.RC4 && taster3Flag)
  3926   00F676  B8D0               	btfsc	208,4,c	;volatile
  3927   00F678  EF40  F07B         	goto	u4411
  3928   00F67C  EF42  F07B         	goto	u4410
  3929   00F680                     u4411:
  3930   00F680  EF6D  F07B         	goto	l3524
  3931   00F684                     u4410:
  3932   00F684  0105               	movlb	5	; () banked
  3933   00F686  517D               	movf	main@taster3Flag& (0+255),w,b
  3934   00F688  B4D8               	btfsc	status,2,c
  3935   00F68A  EF49  F07B         	goto	u4421
  3936   00F68E  EF4B  F07B         	goto	u4420
  3937   00F692                     u4421:
  3938   00F692  EF6D  F07B         	goto	l3524
  3939   00F696                     u4420:
  3940   00F696                     
  3941                           ; BSR set to: 5
  3942                           ;main.c: 737:                 {;main.c: 738:                     LATCbits.LATC5 = 0;
  3943   00F696  9AC0               	bcf	192,5,c	;volatile
  3944                           
  3945                           ;main.c: 739:                     LATAbits.LATA5 = 1;
  3946   00F698  8ABE               	bsf	190,5,c	;volatile
  3947   00F69A                     
  3948                           ; BSR set to: 5
  3949                           ;main.c: 740:                     LED_WriteFull(redMode3, greenMode3, blueMode3, 300);
  3950   00F69A  C583  F50B         	movff	main@greenMode3,LED_WriteFull@green
  3951   00F69E  C584  F50C         	movff	main@blueMode3,LED_WriteFull@blue
  3952   00F6A2  0E2C               	movlw	44
  3953   00F6A4  6E0D               	movwf	LED_WriteFull@ledcount^(0+1280),c
  3954   00F6A6  0E01               	movlw	1
  3955   00F6A8  6E0E               	movwf	(LED_WriteFull@ledcount+1)^(0+1280),c
  3956   00F6AA  0E00               	movlw	0
  3957   00F6AC  6E0F               	movwf	(LED_WriteFull@ledcount+2)^(0+1280),c
  3958   00F6AE  5182               	movf	main@redMode3& (0+255),w,b
  3959   00F6B0  ECFF  F06D         	call	_LED_WriteFull
  3960   00F6B4                     
  3961                           ;main.c: 741:                     state = T3 ;
  3962   00F6B4  0E03               	movlw	3
  3963   00F6B6  0105               	movlb	5	; () banked
  3964   00F6B8  6F93               	movwf	main@state& (0+255),b
  3965   00F6BA                     
  3966                           ; BSR set to: 5
  3967                           ;main.c: 742:                     DATAEE_WriteByte(36, state);
  3968   00F6BA  0E00               	movlw	0
  3969   00F6BC  6E02               	movwf	(DATAEE_WriteByte@bAdd+1)^(0+1280),c
  3970   00F6BE  0E24               	movlw	36
  3971   00F6C0  6E01               	movwf	DATAEE_WriteByte@bAdd^(0+1280),c
  3972   00F6C2  C593  F503         	movff	main@state,DATAEE_WriteByte@bData
  3973   00F6C6  EC4B  F06D         	call	_DATAEE_WriteByte	;wreg free
  3974   00F6CA                     
  3975                           ;main.c: 743:                     DATAEE_WriteByte(2, 69);
  3976   00F6CA  0E00               	movlw	0
  3977   00F6CC  6E02               	movwf	(DATAEE_WriteByte@bAdd+1)^(0+1280),c
  3978   00F6CE  0E02               	movlw	2
  3979   00F6D0  6E01               	movwf	DATAEE_WriteByte@bAdd^(0+1280),c
  3980   00F6D2  0E45               	movlw	69
  3981   00F6D4  6E03               	movwf	DATAEE_WriteByte@bData^(0+1280),c
  3982   00F6D6  EC4B  F06D         	call	_DATAEE_WriteByte	;wreg free
  3983   00F6DA                     l3524:
  3984                           
  3985                           ;main.c: 746:                 if(!PORTBbits.RB7 && taster4Flag)
  3986   00F6DA  BECF               	btfsc	207,7,c	;volatile
  3987   00F6DC  EF72  F07B         	goto	u4431
  3988   00F6E0  EF74  F07B         	goto	u4430
  3989   00F6E4                     u4431:
  3990   00F6E4  EF78  F071         	goto	l2944
  3991   00F6E8                     u4430:
  3992   00F6E8  0105               	movlb	5	; () banked
  3993   00F6EA  517C               	movf	main@taster4Flag& (0+255),w,b
  3994   00F6EC  B4D8               	btfsc	status,2,c
  3995   00F6EE  EF7B  F07B         	goto	u4441
  3996   00F6F2  EF7D  F07B         	goto	u4440
  3997   00F6F6                     u4441:
  3998   00F6F6  EF78  F071         	goto	l2944
  3999   00F6FA                     u4440:
  4000   00F6FA                     
  4001                           ; BSR set to: 5
  4002                           ;main.c: 747:                 {;main.c: 748:                     LATCbits.LATC5 = 0;
  4003   00F6FA  9AC0               	bcf	192,5,c	;volatile
  4004                           
  4005                           ;main.c: 749:                     LATCbits.LATC3 = 1;
  4006   00F6FC  86C0               	bsf	192,3,c	;volatile
  4007   00F6FE                     
  4008                           ; BSR set to: 5
  4009                           ;main.c: 750:                     LED_WriteFull(redMode4, greenMode4, blueMode4, 300);
  4010   00F6FE  C586  F50B         	movff	main@greenMode4,LED_WriteFull@green
  4011   00F702  C587  F50C         	movff	main@blueMode4,LED_WriteFull@blue
  4012   00F706  0E2C               	movlw	44
  4013   00F708  6E0D               	movwf	LED_WriteFull@ledcount^(0+1280),c
  4014   00F70A  0E01               	movlw	1
  4015   00F70C  6E0E               	movwf	(LED_WriteFull@ledcount+1)^(0+1280),c
  4016   00F70E  0E00               	movlw	0
  4017   00F710  6E0F               	movwf	(LED_WriteFull@ledcount+2)^(0+1280),c
  4018   00F712  5185               	movf	main@redMode4& (0+255),w,b
  4019   00F714  ECFF  F06D         	call	_LED_WriteFull
  4020   00F718  EF70  F079         	goto	l3420
  4021   00F71C                     l3538:
  4022                           
  4023                           ; BSR set to: 5
  4024                           ;main.c: 762:                 LED_WriteFull(redMode3,greenMode3,blueMode3, 300);
  4025   00F71C  C583  F50B         	movff	main@greenMode3,LED_WriteFull@green
  4026   00F720  C584  F50C         	movff	main@blueMode3,LED_WriteFull@blue
  4027   00F724  0E2C               	movlw	44
  4028   00F726  6E0D               	movwf	LED_WriteFull@ledcount^(0+1280),c
  4029   00F728  0E01               	movlw	1
  4030   00F72A  6E0E               	movwf	(LED_WriteFull@ledcount+1)^(0+1280),c
  4031   00F72C  0E00               	movlw	0
  4032   00F72E  6E0F               	movwf	(LED_WriteFull@ledcount+2)^(0+1280),c
  4033   00F730  5182               	movf	main@redMode3& (0+255),w,b
  4034   00F732  ECFF  F06D         	call	_LED_WriteFull
  4035   00F736                     
  4036                           ;main.c: 766:                 if(led3StateBlink && (++timeout250ms == 12))
  4037   00F736  0105               	movlb	5	; () banked
  4038   00F738  5172               	movf	main@led3StateBlink& (0+255),w,b
  4039   00F73A  B4D8               	btfsc	status,2,c
  4040   00F73C  EFA2  F07B         	goto	u4451
  4041   00F740  EFA4  F07B         	goto	u4450
  4042   00F744                     u4451:
  4043   00F744  EFC1  F07B         	goto	l3548
  4044   00F748                     u4450:
  4045   00F748                     
  4046                           ; BSR set to: 5
  4047   00F748  2B74               	incf	main@timeout250ms& (0+255),f,b
  4048   00F74A  0E0C               	movlw	12
  4049   00F74C  1974               	xorwf	main@timeout250ms& (0+255),w,b
  4050   00F74E  A4D8               	btfss	status,2,c
  4051   00F750  EFAC  F07B         	goto	u4461
  4052   00F754  EFAE  F07B         	goto	u4460
  4053   00F758                     u4461:
  4054   00F758  EFC1  F07B         	goto	l3548
  4055   00F75C                     u4460:
  4056   00F75C                     
  4057                           ; BSR set to: 5
  4058                           ;main.c: 767:                 {;main.c: 768:                     timeout250ms = 0;
  4059   00F75C  0E00               	movlw	0
  4060   00F75E  6F74               	movwf	main@timeout250ms& (0+255),b
  4061   00F760                     
  4062                           ; BSR set to: 5
  4063                           ;main.c: 769:                     LATAbits.LATA5 = !LATAbits.LATA5;
  4064   00F760  AABE               	btfss	190,5,c	;volatile
  4065   00F762  EFB5  F07B         	goto	u4471
  4066   00F766  EFB9  F07B         	goto	u4470
  4067   00F76A                     u4471:
  4068   00F76A  6A2F               	clrf	??_main^(0+1280),c
  4069   00F76C  2A2F               	incf	??_main^(0+1280),f,c
  4070   00F76E  EFBA  F07B         	goto	u4488
  4071   00F772                     u4470:
  4072   00F772  6A2F               	clrf	??_main^(0+1280),c
  4073   00F774                     u4488:
  4074   00F774  3A2F               	swapf	??_main^(0+1280),f,c
  4075   00F776  462F               	rlncf	??_main^(0+1280),f,c
  4076   00F778  50BE               	movf	190,w,c	;volatile
  4077   00F77A  182F               	xorwf	??_main^(0+1280),w,c
  4078   00F77C  0BDF               	andlw	-33
  4079   00F77E  182F               	xorwf	??_main^(0+1280),w,c
  4080   00F780  6EBE               	movwf	190,c	;volatile
  4081   00F782                     l3548:
  4082                           
  4083                           ;main.c: 772:                 if(!PORTCbits.RC4 && taster3Flag && !led3StateBlink)
  4084   00F782  B8D0               	btfsc	208,4,c	;volatile
  4085   00F784  EFC6  F07B         	goto	u4491
  4086   00F788  EFC8  F07B         	goto	u4490
  4087   00F78C                     u4491:
  4088   00F78C  EFDB  F07B         	goto	l3556
  4089   00F790                     u4490:
  4090   00F790  0105               	movlb	5	; () banked
  4091   00F792  517D               	movf	main@taster3Flag& (0+255),w,b
  4092   00F794  B4D8               	btfsc	status,2,c
  4093   00F796  EFCF  F07B         	goto	u4501
  4094   00F79A  EFD1  F07B         	goto	u4500
  4095   00F79E                     u4501:
  4096   00F79E  EFDB  F07B         	goto	l3556
  4097   00F7A2                     u4500:
  4098   00F7A2                     
  4099                           ; BSR set to: 5
  4100   00F7A2  5172               	movf	main@led3StateBlink& (0+255),w,b
  4101   00F7A4  A4D8               	btfss	status,2,c
  4102   00F7A6  EFD7  F07B         	goto	u4511
  4103   00F7AA  EFD9  F07B         	goto	u4510
  4104   00F7AE                     u4511:
  4105   00F7AE  EFDB  F07B         	goto	l3556
  4106   00F7B2                     u4510:
  4107   00F7B2                     
  4108                           ; BSR set to: 5
  4109                           ;main.c: 773:                 {;main.c: 774:                     state = T3StateDummy;
  4110   00F7B2  0E0B               	movlw	11
  4111   00F7B4  6F93               	movwf	main@state& (0+255),b
  4112   00F7B6                     l3556:
  4113                           
  4114                           ;main.c: 777:                 if(!PORTCbits.RC4 && taster3Flag && led3StateBlink)
  4115   00F7B6  B8D0               	btfsc	208,4,c	;volatile
  4116   00F7B8  EFE0  F07B         	goto	u4521
  4117   00F7BC  EFE2  F07B         	goto	u4520
  4118   00F7C0                     u4521:
  4119   00F7C0  EF26  F07C         	goto	l3576
  4120   00F7C4                     u4520:
  4121   00F7C4  0105               	movlb	5	; () banked
  4122   00F7C6  517D               	movf	main@taster3Flag& (0+255),w,b
  4123   00F7C8  B4D8               	btfsc	status,2,c
  4124   00F7CA  EFE9  F07B         	goto	u4531
  4125   00F7CE  EFEB  F07B         	goto	u4530
  4126   00F7D2                     u4531:
  4127   00F7D2  EF26  F07C         	goto	l3576
  4128   00F7D6                     u4530:
  4129   00F7D6                     
  4130                           ; BSR set to: 5
  4131   00F7D6  5172               	movf	main@led3StateBlink& (0+255),w,b
  4132   00F7D8  B4D8               	btfsc	status,2,c
  4133   00F7DA  EFF1  F07B         	goto	u4541
  4134   00F7DE  EFF3  F07B         	goto	u4540
  4135   00F7E2                     u4541:
  4136   00F7E2  EF26  F07C         	goto	l3576
  4137   00F7E6                     u4540:
  4138   00F7E6                     
  4139                           ; BSR set to: 5
  4140                           ;main.c: 778:                 {;main.c: 779:                     LATAbits.LATA5 = 1;
  4141   00F7E6  8ABE               	bsf	190,5,c	;volatile
  4142   00F7E8                     
  4143                           ; BSR set to: 5
  4144                           ;main.c: 780:                     led3StateBlink = 0;
  4145   00F7E8  0E00               	movlw	0
  4146   00F7EA  6F72               	movwf	main@led3StateBlink& (0+255),b
  4147                           
  4148                           ;main.c: 781:                     redAdj = 0;
  4149   00F7EC  0E00               	movlw	0
  4150   00F7EE  6F76               	movwf	main@redAdj& (0+255),b
  4151                           
  4152                           ;main.c: 782:                     greenAdj = 0;
  4153   00F7F0  0E00               	movlw	0
  4154   00F7F2  6F77               	movwf	main@greenAdj& (0+255),b
  4155                           
  4156                           ;main.c: 783:                     blueAdj = 0;
  4157   00F7F4  0E00               	movlw	0
  4158   00F7F6  6F78               	movwf	main@blueAdj& (0+255),b
  4159                           
  4160                           ;main.c: 784:                     whiteAdj = 0;
  4161   00F7F8  0E00               	movlw	0
  4162   00F7FA  6F79               	movwf	main@whiteAdj& (0+255),b
  4163   00F7FC                     
  4164                           ; BSR set to: 5
  4165                           ;main.c: 785:                     DATAEE_WriteByte(25, blueMode1);
  4166   00F7FC  0E00               	movlw	0
  4167   00F7FE  6E02               	movwf	(DATAEE_WriteByte@bAdd+1)^(0+1280),c
  4168   00F800  0E19               	movlw	25
  4169   00F802  6E01               	movwf	DATAEE_WriteByte@bAdd^(0+1280),c
  4170   00F804  C58E  F503         	movff	main@blueMode1,DATAEE_WriteByte@bData
  4171   00F808  EC4B  F06D         	call	_DATAEE_WriteByte	;wreg free
  4172   00F80C                     
  4173                           ;main.c: 786:                     DATAEE_WriteByte(24, greenMode1);
  4174   00F80C  0E00               	movlw	0
  4175   00F80E  6E02               	movwf	(DATAEE_WriteByte@bAdd+1)^(0+1280),c
  4176   00F810  0E18               	movlw	24
  4177   00F812  6E01               	movwf	DATAEE_WriteByte@bAdd^(0+1280),c
  4178   00F814  C58D  F503         	movff	main@greenMode1,DATAEE_WriteByte@bData
  4179   00F818  EC4B  F06D         	call	_DATAEE_WriteByte	;wreg free
  4180   00F81C                     
  4181                           ;main.c: 787:                     DATAEE_WriteByte(22, redMode1);
  4182   00F81C  0E00               	movlw	0
  4183   00F81E  6E02               	movwf	(DATAEE_WriteByte@bAdd+1)^(0+1280),c
  4184   00F820  0E16               	movlw	22
  4185   00F822  6E01               	movwf	DATAEE_WriteByte@bAdd^(0+1280),c
  4186   00F824  C58C  F503         	movff	main@redMode1,DATAEE_WriteByte@bData
  4187   00F828  EC4B  F06D         	call	_DATAEE_WriteByte	;wreg free
  4188   00F82C                     
  4189                           ;main.c: 788:                     DATAEE_WriteByte(27, whiteMode1);
  4190   00F82C  0E00               	movlw	0
  4191   00F82E  6E02               	movwf	(DATAEE_WriteByte@bAdd+1)^(0+1280),c
  4192   00F830  0E1B               	movlw	27
  4193   00F832  6E01               	movwf	DATAEE_WriteByte@bAdd^(0+1280),c
  4194   00F834  C57E  F503         	movff	main@whiteMode1,DATAEE_WriteByte@bData
  4195   00F838  EC4B  F06D         	call	_DATAEE_WriteByte	;wreg free
  4196   00F83C                     
  4197                           ;main.c: 789:                     DATAEE_WriteByte(6, 69);
  4198   00F83C  0E00               	movlw	0
  4199   00F83E  6E02               	movwf	(DATAEE_WriteByte@bAdd+1)^(0+1280),c
  4200   00F840  0E06               	movlw	6
  4201   00F842  6E01               	movwf	DATAEE_WriteByte@bAdd^(0+1280),c
  4202   00F844  0E45               	movlw	69
  4203   00F846  6E03               	movwf	DATAEE_WriteByte@bData^(0+1280),c
  4204   00F848  EC4B  F06D         	call	_DATAEE_WriteByte	;wreg free
  4205   00F84C                     l3576:
  4206                           
  4207                           ;main.c: 791:                 taster3Flag = PORTCbits.RC4;
  4208   00F84C  0E00               	movlw	0
  4209   00F84E  B8D0               	btfsc	208,4,c	;volatile
  4210   00F850  0E01               	movlw	1
  4211   00F852  0105               	movlb	5	; () banked
  4212   00F854  6F7D               	movwf	main@taster3Flag& (0+255),b
  4213   00F856                     
  4214                           ; BSR set to: 5
  4215                           ;main.c: 793:                 if(led3StateBlink)
  4216   00F856  5172               	movf	main@led3StateBlink& (0+255),w,b
  4217   00F858  B4D8               	btfsc	status,2,c
  4218   00F85A  EF31  F07C         	goto	u4551
  4219   00F85E  EF33  F07C         	goto	u4550
  4220   00F862                     u4551:
  4221   00F862  EF27  F07D         	goto	l456
  4222   00F866                     u4550:
  4223   00F866                     
  4224                           ; BSR set to: 5
  4225                           ;main.c: 794:                 {;main.c: 795:                     if((red >= (redMode3 - 
      +                          5) && red <= redMode3 + 5))
  4226   00F866  0EFB               	movlw	251
  4227   00F868  2582               	addwf	main@redMode3& (0+255),w,b
  4228   00F86A  6E2F               	movwf	??_main^(0+1280),c
  4229   00F86C  6A30               	clrf	(??_main+1)^(0+1280),c
  4230   00F86E  0EFF               	movlw	255
  4231   00F870  2230               	addwfc	(??_main+1)^(0+1280),f,c
  4232   00F872  5190               	movf	main@red& (0+255),w,b
  4233   00F874  6E31               	movwf	(??_main+2)^(0+1280),c
  4234   00F876  6A32               	clrf	(??_main+3)^(0+1280),c
  4235   00F878  502F               	movf	??_main^(0+1280),w,c
  4236   00F87A  5C31               	subwf	(??_main+2)^(0+1280),w,c
  4237   00F87C  5032               	movf	(??_main+3)^(0+1280),w,c
  4238   00F87E  0A80               	xorlw	128
  4239   00F880  6E33               	movwf	(??_main+4)^(0+1280),c
  4240   00F882  5030               	movf	(??_main+1)^(0+1280),w,c
  4241   00F884  0A80               	xorlw	128
  4242   00F886  5833               	subwfb	(??_main+4)^(0+1280),w,c
  4243   00F888  A0D8               	btfss	status,0,c
  4244   00F88A  EF49  F07C         	goto	u4561
  4245   00F88E  EF4B  F07C         	goto	u4560
  4246   00F892                     u4561:
  4247   00F892  EF66  F07C         	goto	l457
  4248   00F896                     u4560:
  4249   00F896                     
  4250                           ; BSR set to: 5
  4251   00F896  5190               	movf	main@red& (0+255),w,b
  4252   00F898  6E2F               	movwf	??_main^(0+1280),c
  4253   00F89A  6A30               	clrf	(??_main+1)^(0+1280),c
  4254   00F89C  5182               	movf	main@redMode3& (0+255),w,b
  4255   00F89E  6E31               	movwf	(??_main+2)^(0+1280),c
  4256   00F8A0  6A32               	clrf	(??_main+3)^(0+1280),c
  4257   00F8A2  0E05               	movlw	5
  4258   00F8A4  2631               	addwf	(??_main+2)^(0+1280),f,c
  4259   00F8A6  0E00               	movlw	0
  4260   00F8A8  2232               	addwfc	(??_main+3)^(0+1280),f,c
  4261   00F8AA  502F               	movf	??_main^(0+1280),w,c
  4262   00F8AC  5C31               	subwf	(??_main+2)^(0+1280),w,c
  4263   00F8AE  5032               	movf	(??_main+3)^(0+1280),w,c
  4264   00F8B0  0A80               	xorlw	128
  4265   00F8B2  6E33               	movwf	(??_main+4)^(0+1280),c
  4266   00F8B4  5030               	movf	(??_main+1)^(0+1280),w,c
  4267   00F8B6  0A80               	xorlw	128
  4268   00F8B8  5833               	subwfb	(??_main+4)^(0+1280),w,c
  4269   00F8BA  A0D8               	btfss	status,0,c
  4270   00F8BC  EF62  F07C         	goto	u4571
  4271   00F8C0  EF64  F07C         	goto	u4570
  4272   00F8C4                     u4571:
  4273   00F8C4  EF66  F07C         	goto	l457
  4274   00F8C8                     u4570:
  4275   00F8C8                     
  4276                           ; BSR set to: 5
  4277                           ;main.c: 796:                     {;main.c: 797:                         redAdj = 1;
  4278   00F8C8  0E01               	movlw	1
  4279   00F8CA  6F76               	movwf	main@redAdj& (0+255),b
  4280   00F8CC                     l457:
  4281                           
  4282                           ; BSR set to: 5
  4283                           ;main.c: 800:                     if(redAdj)
  4284   00F8CC  5176               	movf	main@redAdj& (0+255),w,b
  4285   00F8CE  B4D8               	btfsc	status,2,c
  4286   00F8D0  EF6C  F07C         	goto	u4581
  4287   00F8D4  EF6E  F07C         	goto	u4580
  4288   00F8D8                     u4581:
  4289   00F8D8  EF70  F07C         	goto	l3588
  4290   00F8DC                     u4580:
  4291   00F8DC                     
  4292                           ; BSR set to: 5
  4293                           ;main.c: 801:                     {;main.c: 802:                         redMode3 = red;
  4294   00F8DC  C590  F582         	movff	main@red,main@redMode3
  4295   00F8E0                     l3588:
  4296                           
  4297                           ; BSR set to: 5
  4298                           ;main.c: 805:                     if((white >= (whiteMode3 - 5) && white <= whiteMode3 +
      +                           5))
  4299   00F8E0  0EFB               	movlw	251
  4300   00F8E2  256E               	addwf	main@whiteMode3& (0+255),w,b
  4301   00F8E4  6E2F               	movwf	??_main^(0+1280),c
  4302   00F8E6  6A30               	clrf	(??_main+1)^(0+1280),c
  4303   00F8E8  0EFF               	movlw	255
  4304   00F8EA  2230               	addwfc	(??_main+1)^(0+1280),f,c
  4305   00F8EC  518F               	movf	main@white& (0+255),w,b
  4306   00F8EE  6E31               	movwf	(??_main+2)^(0+1280),c
  4307   00F8F0  6A32               	clrf	(??_main+3)^(0+1280),c
  4308   00F8F2  502F               	movf	??_main^(0+1280),w,c
  4309   00F8F4  5C31               	subwf	(??_main+2)^(0+1280),w,c
  4310   00F8F6  5032               	movf	(??_main+3)^(0+1280),w,c
  4311   00F8F8  0A80               	xorlw	128
  4312   00F8FA  6E33               	movwf	(??_main+4)^(0+1280),c
  4313   00F8FC  5030               	movf	(??_main+1)^(0+1280),w,c
  4314   00F8FE  0A80               	xorlw	128
  4315   00F900  5833               	subwfb	(??_main+4)^(0+1280),w,c
  4316   00F902  A0D8               	btfss	status,0,c
  4317   00F904  EF86  F07C         	goto	u4591
  4318   00F908  EF88  F07C         	goto	u4590
  4319   00F90C                     u4591:
  4320   00F90C  EFA3  F07C         	goto	l459
  4321   00F910                     u4590:
  4322   00F910                     
  4323                           ; BSR set to: 5
  4324   00F910  518F               	movf	main@white& (0+255),w,b
  4325   00F912  6E2F               	movwf	??_main^(0+1280),c
  4326   00F914  6A30               	clrf	(??_main+1)^(0+1280),c
  4327   00F916  516E               	movf	main@whiteMode3& (0+255),w,b
  4328   00F918  6E31               	movwf	(??_main+2)^(0+1280),c
  4329   00F91A  6A32               	clrf	(??_main+3)^(0+1280),c
  4330   00F91C  0E05               	movlw	5
  4331   00F91E  2631               	addwf	(??_main+2)^(0+1280),f,c
  4332   00F920  0E00               	movlw	0
  4333   00F922  2232               	addwfc	(??_main+3)^(0+1280),f,c
  4334   00F924  502F               	movf	??_main^(0+1280),w,c
  4335   00F926  5C31               	subwf	(??_main+2)^(0+1280),w,c
  4336   00F928  5032               	movf	(??_main+3)^(0+1280),w,c
  4337   00F92A  0A80               	xorlw	128
  4338   00F92C  6E33               	movwf	(??_main+4)^(0+1280),c
  4339   00F92E  5030               	movf	(??_main+1)^(0+1280),w,c
  4340   00F930  0A80               	xorlw	128
  4341   00F932  5833               	subwfb	(??_main+4)^(0+1280),w,c
  4342   00F934  A0D8               	btfss	status,0,c
  4343   00F936  EF9F  F07C         	goto	u4601
  4344   00F93A  EFA1  F07C         	goto	u4600
  4345   00F93E                     u4601:
  4346   00F93E  EFA3  F07C         	goto	l459
  4347   00F942                     u4600:
  4348   00F942                     
  4349                           ; BSR set to: 5
  4350                           ;main.c: 806:                     {;main.c: 807:                         whiteAdj = 1;
  4351   00F942  0E01               	movlw	1
  4352   00F944  6F79               	movwf	main@whiteAdj& (0+255),b
  4353   00F946                     l459:
  4354                           
  4355                           ; BSR set to: 5
  4356                           ;main.c: 810:                     if(whiteAdj)
  4357   00F946  5179               	movf	main@whiteAdj& (0+255),w,b
  4358   00F948  B4D8               	btfsc	status,2,c
  4359   00F94A  EFA9  F07C         	goto	u4611
  4360   00F94E  EFAB  F07C         	goto	u4610
  4361   00F952                     u4611:
  4362   00F952  EFAD  F07C         	goto	l3596
  4363   00F956                     u4610:
  4364   00F956                     
  4365                           ; BSR set to: 5
  4366                           ;main.c: 811:                     {;main.c: 812:                         whiteMode3 = wh
      +                          ite;
  4367   00F956  C58F  F56E         	movff	main@white,main@whiteMode3
  4368   00F95A                     l3596:
  4369                           
  4370                           ; BSR set to: 5
  4371                           ;main.c: 815:                     if((green >= (greenMode3 - 5) && green <= greenMode3 +
      +                           5))
  4372   00F95A  0EFB               	movlw	251
  4373   00F95C  2583               	addwf	main@greenMode3& (0+255),w,b
  4374   00F95E  6E2F               	movwf	??_main^(0+1280),c
  4375   00F960  6A30               	clrf	(??_main+1)^(0+1280),c
  4376   00F962  0EFF               	movlw	255
  4377   00F964  2230               	addwfc	(??_main+1)^(0+1280),f,c
  4378   00F966  5191               	movf	main@green& (0+255),w,b
  4379   00F968  6E31               	movwf	(??_main+2)^(0+1280),c
  4380   00F96A  6A32               	clrf	(??_main+3)^(0+1280),c
  4381   00F96C  502F               	movf	??_main^(0+1280),w,c
  4382   00F96E  5C31               	subwf	(??_main+2)^(0+1280),w,c
  4383   00F970  5032               	movf	(??_main+3)^(0+1280),w,c
  4384   00F972  0A80               	xorlw	128
  4385   00F974  6E33               	movwf	(??_main+4)^(0+1280),c
  4386   00F976  5030               	movf	(??_main+1)^(0+1280),w,c
  4387   00F978  0A80               	xorlw	128
  4388   00F97A  5833               	subwfb	(??_main+4)^(0+1280),w,c
  4389   00F97C  A0D8               	btfss	status,0,c
  4390   00F97E  EFC3  F07C         	goto	u4621
  4391   00F982  EFC5  F07C         	goto	u4620
  4392   00F986                     u4621:
  4393   00F986  EFE0  F07C         	goto	l461
  4394   00F98A                     u4620:
  4395   00F98A                     
  4396                           ; BSR set to: 5
  4397   00F98A  5191               	movf	main@green& (0+255),w,b
  4398   00F98C  6E2F               	movwf	??_main^(0+1280),c
  4399   00F98E  6A30               	clrf	(??_main+1)^(0+1280),c
  4400   00F990  5183               	movf	main@greenMode3& (0+255),w,b
  4401   00F992  6E31               	movwf	(??_main+2)^(0+1280),c
  4402   00F994  6A32               	clrf	(??_main+3)^(0+1280),c
  4403   00F996  0E05               	movlw	5
  4404   00F998  2631               	addwf	(??_main+2)^(0+1280),f,c
  4405   00F99A  0E00               	movlw	0
  4406   00F99C  2232               	addwfc	(??_main+3)^(0+1280),f,c
  4407   00F99E  502F               	movf	??_main^(0+1280),w,c
  4408   00F9A0  5C31               	subwf	(??_main+2)^(0+1280),w,c
  4409   00F9A2  5032               	movf	(??_main+3)^(0+1280),w,c
  4410   00F9A4  0A80               	xorlw	128
  4411   00F9A6  6E33               	movwf	(??_main+4)^(0+1280),c
  4412   00F9A8  5030               	movf	(??_main+1)^(0+1280),w,c
  4413   00F9AA  0A80               	xorlw	128
  4414   00F9AC  5833               	subwfb	(??_main+4)^(0+1280),w,c
  4415   00F9AE  A0D8               	btfss	status,0,c
  4416   00F9B0  EFDC  F07C         	goto	u4631
  4417   00F9B4  EFDE  F07C         	goto	u4630
  4418   00F9B8                     u4631:
  4419   00F9B8  EFE0  F07C         	goto	l461
  4420   00F9BC                     u4630:
  4421   00F9BC                     
  4422                           ; BSR set to: 5
  4423                           ;main.c: 816:                     {;main.c: 817:                        greenAdj = 1;
  4424   00F9BC  0E01               	movlw	1
  4425   00F9BE  6F77               	movwf	main@greenAdj& (0+255),b
  4426   00F9C0                     l461:
  4427                           
  4428                           ; BSR set to: 5
  4429                           ;main.c: 820:                     if(greenAdj)
  4430   00F9C0  5177               	movf	main@greenAdj& (0+255),w,b
  4431   00F9C2  B4D8               	btfsc	status,2,c
  4432   00F9C4  EFE6  F07C         	goto	u4641
  4433   00F9C8  EFE8  F07C         	goto	u4640
  4434   00F9CC                     u4641:
  4435   00F9CC  EFEA  F07C         	goto	l3604
  4436   00F9D0                     u4640:
  4437   00F9D0                     
  4438                           ; BSR set to: 5
  4439                           ;main.c: 821:                     {;main.c: 822:                         greenMode3 = gr
      +                          een;
  4440   00F9D0  C591  F583         	movff	main@green,main@greenMode3
  4441   00F9D4                     l3604:
  4442                           
  4443                           ; BSR set to: 5
  4444                           ;main.c: 825:                     if((blue >= (blueMode3 - 5) && blue <= blueMode3 + 5))
  4445   00F9D4  0EFB               	movlw	251
  4446   00F9D6  2584               	addwf	main@blueMode3& (0+255),w,b
  4447   00F9D8  6E2F               	movwf	??_main^(0+1280),c
  4448   00F9DA  6A30               	clrf	(??_main+1)^(0+1280),c
  4449   00F9DC  0EFF               	movlw	255
  4450   00F9DE  2230               	addwfc	(??_main+1)^(0+1280),f,c
  4451   00F9E0  5192               	movf	main@blue& (0+255),w,b
  4452   00F9E2  6E31               	movwf	(??_main+2)^(0+1280),c
  4453   00F9E4  6A32               	clrf	(??_main+3)^(0+1280),c
  4454   00F9E6  502F               	movf	??_main^(0+1280),w,c
  4455   00F9E8  5C31               	subwf	(??_main+2)^(0+1280),w,c
  4456   00F9EA  5032               	movf	(??_main+3)^(0+1280),w,c
  4457   00F9EC  0A80               	xorlw	128
  4458   00F9EE  6E33               	movwf	(??_main+4)^(0+1280),c
  4459   00F9F0  5030               	movf	(??_main+1)^(0+1280),w,c
  4460   00F9F2  0A80               	xorlw	128
  4461   00F9F4  5833               	subwfb	(??_main+4)^(0+1280),w,c
  4462   00F9F6  A0D8               	btfss	status,0,c
  4463   00F9F8  EF00  F07D         	goto	u4651
  4464   00F9FC  EF02  F07D         	goto	u4650
  4465   00FA00                     u4651:
  4466   00FA00  EF1D  F07D         	goto	l463
  4467   00FA04                     u4650:
  4468   00FA04                     
  4469                           ; BSR set to: 5
  4470   00FA04  5192               	movf	main@blue& (0+255),w,b
  4471   00FA06  6E2F               	movwf	??_main^(0+1280),c
  4472   00FA08  6A30               	clrf	(??_main+1)^(0+1280),c
  4473   00FA0A  5184               	movf	main@blueMode3& (0+255),w,b
  4474   00FA0C  6E31               	movwf	(??_main+2)^(0+1280),c
  4475   00FA0E  6A32               	clrf	(??_main+3)^(0+1280),c
  4476   00FA10  0E05               	movlw	5
  4477   00FA12  2631               	addwf	(??_main+2)^(0+1280),f,c
  4478   00FA14  0E00               	movlw	0
  4479   00FA16  2232               	addwfc	(??_main+3)^(0+1280),f,c
  4480   00FA18  502F               	movf	??_main^(0+1280),w,c
  4481   00FA1A  5C31               	subwf	(??_main+2)^(0+1280),w,c
  4482   00FA1C  5032               	movf	(??_main+3)^(0+1280),w,c
  4483   00FA1E  0A80               	xorlw	128
  4484   00FA20  6E33               	movwf	(??_main+4)^(0+1280),c
  4485   00FA22  5030               	movf	(??_main+1)^(0+1280),w,c
  4486   00FA24  0A80               	xorlw	128
  4487   00FA26  5833               	subwfb	(??_main+4)^(0+1280),w,c
  4488   00FA28  A0D8               	btfss	status,0,c
  4489   00FA2A  EF19  F07D         	goto	u4661
  4490   00FA2E  EF1B  F07D         	goto	u4660
  4491   00FA32                     u4661:
  4492   00FA32  EF1D  F07D         	goto	l463
  4493   00FA36                     u4660:
  4494   00FA36                     
  4495                           ; BSR set to: 5
  4496                           ;main.c: 826:                     {;main.c: 827:                         blueAdj = 1;
  4497   00FA36  0E01               	movlw	1
  4498   00FA38  6F78               	movwf	main@blueAdj& (0+255),b
  4499   00FA3A                     l463:
  4500                           
  4501                           ; BSR set to: 5
  4502                           ;main.c: 830:                     if(blueAdj)
  4503   00FA3A  5178               	movf	main@blueAdj& (0+255),w,b
  4504   00FA3C  B4D8               	btfsc	status,2,c
  4505   00FA3E  EF23  F07D         	goto	u4671
  4506   00FA42  EF25  F07D         	goto	u4670
  4507   00FA46                     u4671:
  4508   00FA46  EF27  F07D         	goto	l456
  4509   00FA4A                     u4670:
  4510   00FA4A                     
  4511                           ; BSR set to: 5
  4512                           ;main.c: 831:                     {;main.c: 832:                         blueMode3 = blu
      +                          e;
  4513   00FA4A  C592  F584         	movff	main@blue,main@blueMode3
  4514   00FA4E                     l456:
  4515                           
  4516                           ; BSR set to: 5
  4517                           ;main.c: 838:                 if(!PORTCbits.RC6 && taster1Flag)
  4518   00FA4E  BCD0               	btfsc	208,6,c	;volatile
  4519   00FA50  EF2C  F07D         	goto	u4681
  4520   00FA54  EF2E  F07D         	goto	u4680
  4521   00FA58                     u4681:
  4522   00FA58  EF58  F07D         	goto	l3624
  4523   00FA5C                     u4680:
  4524   00FA5C                     
  4525                           ; BSR set to: 5
  4526   00FA5C  517A               	movf	main@taster1Flag& (0+255),w,b
  4527   00FA5E  B4D8               	btfsc	status,2,c
  4528   00FA60  EF34  F07D         	goto	u4691
  4529   00FA64  EF36  F07D         	goto	u4690
  4530   00FA68                     u4691:
  4531   00FA68  EF58  F07D         	goto	l3624
  4532   00FA6C                     u4690:
  4533   00FA6C                     
  4534                           ; BSR set to: 5
  4535                           ;main.c: 839:                 {;main.c: 840:                     LATAbits.LATA5 = 0;
  4536   00FA6C  9ABE               	bcf	190,5,c	;volatile
  4537                           
  4538                           ;main.c: 841:                     LATCbits.LATC7 = 1;
  4539   00FA6E  8EC0               	bsf	192,7,c	;volatile
  4540   00FA70                     
  4541                           ; BSR set to: 5
  4542                           ;main.c: 842:                     LED_WriteFull(redMode1, greenMode1, blueMode1, 300);
  4543   00FA70  C58D  F50B         	movff	main@greenMode1,LED_WriteFull@green
  4544   00FA74  C58E  F50C         	movff	main@blueMode1,LED_WriteFull@blue
  4545   00FA78  0E2C               	movlw	44
  4546   00FA7A  6E0D               	movwf	LED_WriteFull@ledcount^(0+1280),c
  4547   00FA7C  0E01               	movlw	1
  4548   00FA7E  6E0E               	movwf	(LED_WriteFull@ledcount+1)^(0+1280),c
  4549   00FA80  0E00               	movlw	0
  4550   00FA82  6E0F               	movwf	(LED_WriteFull@ledcount+2)^(0+1280),c
  4551   00FA84  518C               	movf	main@redMode1& (0+255),w,b
  4552   00FA86  ECFF  F06D         	call	_LED_WriteFull
  4553   00FA8A                     
  4554                           ;main.c: 843:                     state = T1;
  4555   00FA8A  0E01               	movlw	1
  4556   00FA8C  0105               	movlb	5	; () banked
  4557   00FA8E  6F93               	movwf	main@state& (0+255),b
  4558   00FA90                     
  4559                           ; BSR set to: 5
  4560                           ;main.c: 844:                     DATAEE_WriteByte(36, state);
  4561   00FA90  0E00               	movlw	0
  4562   00FA92  6E02               	movwf	(DATAEE_WriteByte@bAdd+1)^(0+1280),c
  4563   00FA94  0E24               	movlw	36
  4564   00FA96  6E01               	movwf	DATAEE_WriteByte@bAdd^(0+1280),c
  4565   00FA98  C593  F503         	movff	main@state,DATAEE_WriteByte@bData
  4566   00FA9C  EC4B  F06D         	call	_DATAEE_WriteByte	;wreg free
  4567   00FAA0                     
  4568                           ;main.c: 845:                     DATAEE_WriteByte(2, 69);
  4569   00FAA0  0E00               	movlw	0
  4570   00FAA2  6E02               	movwf	(DATAEE_WriteByte@bAdd+1)^(0+1280),c
  4571   00FAA4  0E02               	movlw	2
  4572   00FAA6  6E01               	movwf	DATAEE_WriteByte@bAdd^(0+1280),c
  4573   00FAA8  0E45               	movlw	69
  4574   00FAAA  6E03               	movwf	DATAEE_WriteByte@bData^(0+1280),c
  4575   00FAAC  EC4B  F06D         	call	_DATAEE_WriteByte	;wreg free
  4576   00FAB0                     l3624:
  4577                           
  4578                           ;main.c: 849:                 if(!PORTAbits.RA4 && taster2Flag)
  4579   00FAB0  B8CE               	btfsc	206,4,c	;volatile
  4580   00FAB2  EF5D  F07D         	goto	u4701
  4581   00FAB6  EF5F  F07D         	goto	u4700
  4582   00FABA                     u4701:
  4583   00FABA  EF8A  F07D         	goto	l3638
  4584   00FABE                     u4700:
  4585   00FABE  0105               	movlb	5	; () banked
  4586   00FAC0  517B               	movf	main@taster2Flag& (0+255),w,b
  4587   00FAC2  B4D8               	btfsc	status,2,c
  4588   00FAC4  EF66  F07D         	goto	u4711
  4589   00FAC8  EF68  F07D         	goto	u4710
  4590   00FACC                     u4711:
  4591   00FACC  EF8A  F07D         	goto	l3638
  4592   00FAD0                     u4710:
  4593   00FAD0                     
  4594                           ; BSR set to: 5
  4595                           ;main.c: 850:                 {;main.c: 851:                     LATAbits.LATA5 = 0;
  4596   00FAD0  9ABE               	bcf	190,5,c	;volatile
  4597                           
  4598                           ;main.c: 852:                     LATCbits.LATC5 = 1;
  4599   00FAD2  8AC0               	bsf	192,5,c	;volatile
  4600   00FAD4                     
  4601                           ; BSR set to: 5
  4602                           ;main.c: 853:                     LED_WriteFull(redMode2, greenMode2, blueMode2, 300);
  4603   00FAD4  C580  F50B         	movff	main@greenMode2,LED_WriteFull@green
  4604   00FAD8  C581  F50C         	movff	main@blueMode2,LED_WriteFull@blue
  4605   00FADC  0E2C               	movlw	44
  4606   00FADE  6E0D               	movwf	LED_WriteFull@ledcount^(0+1280),c
  4607   00FAE0  0E01               	movlw	1
  4608   00FAE2  6E0E               	movwf	(LED_WriteFull@ledcount+1)^(0+1280),c
  4609   00FAE4  0E00               	movlw	0
  4610   00FAE6  6E0F               	movwf	(LED_WriteFull@ledcount+2)^(0+1280),c
  4611   00FAE8  517F               	movf	main@redMode2& (0+255),w,b
  4612   00FAEA  ECFF  F06D         	call	_LED_WriteFull
  4613   00FAEE                     
  4614                           ;main.c: 854:                     state = T2;
  4615   00FAEE  0E02               	movlw	2
  4616   00FAF0  0105               	movlb	5	; () banked
  4617   00FAF2  6F93               	movwf	main@state& (0+255),b
  4618   00FAF4                     
  4619                           ; BSR set to: 5
  4620                           ;main.c: 855:                     DATAEE_WriteByte(36, state);
  4621   00FAF4  0E00               	movlw	0
  4622   00FAF6  6E02               	movwf	(DATAEE_WriteByte@bAdd+1)^(0+1280),c
  4623   00FAF8  0E24               	movlw	36
  4624   00FAFA  6E01               	movwf	DATAEE_WriteByte@bAdd^(0+1280),c
  4625   00FAFC  C593  F503         	movff	main@state,DATAEE_WriteByte@bData
  4626   00FB00  EC4B  F06D         	call	_DATAEE_WriteByte	;wreg free
  4627   00FB04                     
  4628                           ;main.c: 856:                     DATAEE_WriteByte(2, 69);
  4629   00FB04  0E00               	movlw	0
  4630   00FB06  6E02               	movwf	(DATAEE_WriteByte@bAdd+1)^(0+1280),c
  4631   00FB08  0E02               	movlw	2
  4632   00FB0A  6E01               	movwf	DATAEE_WriteByte@bAdd^(0+1280),c
  4633   00FB0C  0E45               	movlw	69
  4634   00FB0E  6E03               	movwf	DATAEE_WriteByte@bData^(0+1280),c
  4635   00FB10  EC4B  F06D         	call	_DATAEE_WriteByte	;wreg free
  4636   00FB14                     l3638:
  4637                           
  4638                           ;main.c: 859:                 if(!PORTBbits.RB7 && taster4Flag)
  4639   00FB14  BECF               	btfsc	207,7,c	;volatile
  4640   00FB16  EF8F  F07D         	goto	u4721
  4641   00FB1A  EF91  F07D         	goto	u4720
  4642   00FB1E                     u4721:
  4643   00FB1E  EF78  F071         	goto	l2944
  4644   00FB22                     u4720:
  4645   00FB22  0105               	movlb	5	; () banked
  4646   00FB24  517C               	movf	main@taster4Flag& (0+255),w,b
  4647   00FB26  B4D8               	btfsc	status,2,c
  4648   00FB28  EF98  F07D         	goto	u4731
  4649   00FB2C  EF9A  F07D         	goto	u4730
  4650   00FB30                     u4731:
  4651   00FB30  EF78  F071         	goto	l2944
  4652   00FB34                     u4730:
  4653   00FB34                     
  4654                           ; BSR set to: 5
  4655                           ;main.c: 860:                 {;main.c: 861:                     LATAbits.LATA5 = 0;
  4656   00FB34  9ABE               	bcf	190,5,c	;volatile
  4657                           
  4658                           ;main.c: 862:                     LATCbits.LATC3 = 1;
  4659   00FB36  86C0               	bsf	192,3,c	;volatile
  4660   00FB38                     
  4661                           ; BSR set to: 5
  4662                           ;main.c: 863:                     LED_WriteFull(redMode4, greenMode4, blueMode4, 300);
  4663   00FB38  C586  F50B         	movff	main@greenMode4,LED_WriteFull@green
  4664   00FB3C  C587  F50C         	movff	main@blueMode4,LED_WriteFull@blue
  4665   00FB40  0E2C               	movlw	44
  4666   00FB42  6E0D               	movwf	LED_WriteFull@ledcount^(0+1280),c
  4667   00FB44  0E01               	movlw	1
  4668   00FB46  6E0E               	movwf	(LED_WriteFull@ledcount+1)^(0+1280),c
  4669   00FB48  0E00               	movlw	0
  4670   00FB4A  6E0F               	movwf	(LED_WriteFull@ledcount+2)^(0+1280),c
  4671   00FB4C  5185               	movf	main@redMode4& (0+255),w,b
  4672   00FB4E  ECFF  F06D         	call	_LED_WriteFull
  4673   00FB52  EF70  F079         	goto	l3420
  4674   00FB56                     l3652:
  4675                           
  4676                           ; BSR set to: 5
  4677                           ;main.c: 876:                 LED_WriteFull(redMode4,greenMode4,blueMode4, 300);
  4678   00FB56  C586  F50B         	movff	main@greenMode4,LED_WriteFull@green
  4679   00FB5A  C587  F50C         	movff	main@blueMode4,LED_WriteFull@blue
  4680   00FB5E  0E2C               	movlw	44
  4681   00FB60  6E0D               	movwf	LED_WriteFull@ledcount^(0+1280),c
  4682   00FB62  0E01               	movlw	1
  4683   00FB64  6E0E               	movwf	(LED_WriteFull@ledcount+1)^(0+1280),c
  4684   00FB66  0E00               	movlw	0
  4685   00FB68  6E0F               	movwf	(LED_WriteFull@ledcount+2)^(0+1280),c
  4686   00FB6A  5185               	movf	main@redMode4& (0+255),w,b
  4687   00FB6C  ECFF  F06D         	call	_LED_WriteFull
  4688   00FB70                     
  4689                           ;main.c: 880:                 if(led4StateBlink && (++timeout250ms == 12))
  4690   00FB70  0105               	movlb	5	; () banked
  4691   00FB72  5173               	movf	main@led4StateBlink& (0+255),w,b
  4692   00FB74  B4D8               	btfsc	status,2,c
  4693   00FB76  EFBF  F07D         	goto	u4741
  4694   00FB7A  EFC1  F07D         	goto	u4740
  4695   00FB7E                     u4741:
  4696   00FB7E  EFDF  F07D         	goto	l3662
  4697   00FB82                     u4740:
  4698   00FB82                     
  4699                           ; BSR set to: 5
  4700   00FB82  2B74               	incf	main@timeout250ms& (0+255),f,b
  4701   00FB84  0E0C               	movlw	12
  4702   00FB86  1974               	xorwf	main@timeout250ms& (0+255),w,b
  4703   00FB88  A4D8               	btfss	status,2,c
  4704   00FB8A  EFC9  F07D         	goto	u4751
  4705   00FB8E  EFCB  F07D         	goto	u4750
  4706   00FB92                     u4751:
  4707   00FB92  EFDF  F07D         	goto	l3662
  4708   00FB96                     u4750:
  4709   00FB96                     
  4710                           ; BSR set to: 5
  4711                           ;main.c: 881:                 {;main.c: 882:                     timeout250ms = 0;
  4712   00FB96  0E00               	movlw	0
  4713   00FB98  6F74               	movwf	main@timeout250ms& (0+255),b
  4714   00FB9A                     
  4715                           ; BSR set to: 5
  4716                           ;main.c: 883:                     LATCbits.LATC3 = !LATCbits.LATC3;
  4717   00FB9A  A6C0               	btfss	192,3,c	;volatile
  4718   00FB9C  EFD2  F07D         	goto	u4761
  4719   00FBA0  EFD6  F07D         	goto	u4760
  4720   00FBA4                     u4761:
  4721   00FBA4  6A2F               	clrf	??_main^(0+1280),c
  4722   00FBA6  2A2F               	incf	??_main^(0+1280),f,c
  4723   00FBA8  EFD7  F07D         	goto	u4778
  4724   00FBAC                     u4760:
  4725   00FBAC  6A2F               	clrf	??_main^(0+1280),c
  4726   00FBAE                     u4778:
  4727   00FBAE  462F               	rlncf	??_main^(0+1280),f,c
  4728   00FBB0  462F               	rlncf	??_main^(0+1280),f,c
  4729   00FBB2  462F               	rlncf	??_main^(0+1280),f,c
  4730   00FBB4  50C0               	movf	192,w,c	;volatile
  4731   00FBB6  182F               	xorwf	??_main^(0+1280),w,c
  4732   00FBB8  0BF7               	andlw	-9
  4733   00FBBA  182F               	xorwf	??_main^(0+1280),w,c
  4734   00FBBC  6EC0               	movwf	192,c	;volatile
  4735   00FBBE                     l3662:
  4736                           
  4737                           ;main.c: 886:                 if(!PORTBbits.RB7 && taster4Flag && !led4StateBlink)
  4738   00FBBE  BECF               	btfsc	207,7,c	;volatile
  4739   00FBC0  EFE4  F07D         	goto	u4781
  4740   00FBC4  EFE6  F07D         	goto	u4780
  4741   00FBC8                     u4781:
  4742   00FBC8  EFF9  F07D         	goto	l3670
  4743   00FBCC                     u4780:
  4744   00FBCC  0105               	movlb	5	; () banked
  4745   00FBCE  517C               	movf	main@taster4Flag& (0+255),w,b
  4746   00FBD0  B4D8               	btfsc	status,2,c
  4747   00FBD2  EFED  F07D         	goto	u4791
  4748   00FBD6  EFEF  F07D         	goto	u4790
  4749   00FBDA                     u4791:
  4750   00FBDA  EFF9  F07D         	goto	l3670
  4751   00FBDE                     u4790:
  4752   00FBDE                     
  4753                           ; BSR set to: 5
  4754   00FBDE  5173               	movf	main@led4StateBlink& (0+255),w,b
  4755   00FBE0  A4D8               	btfss	status,2,c
  4756   00FBE2  EFF5  F07D         	goto	u4801
  4757   00FBE6  EFF7  F07D         	goto	u4800
  4758   00FBEA                     u4801:
  4759   00FBEA  EFF9  F07D         	goto	l3670
  4760   00FBEE                     u4800:
  4761   00FBEE                     
  4762                           ; BSR set to: 5
  4763                           ;main.c: 887:                 {;main.c: 888:                     state = T4StateDummy;
  4764   00FBEE  0E0C               	movlw	12
  4765   00FBF0  6F93               	movwf	main@state& (0+255),b
  4766   00FBF2                     l3670:
  4767                           
  4768                           ;main.c: 891:                 if(!PORTBbits.RB7 && taster4Flag && led4StateBlink)
  4769   00FBF2  BECF               	btfsc	207,7,c	;volatile
  4770   00FBF4  EFFE  F07D         	goto	u4811
  4771   00FBF8  EF00  F07E         	goto	u4810
  4772   00FBFC                     u4811:
  4773   00FBFC  EF44  F07E         	goto	l3690
  4774   00FC00                     u4810:
  4775   00FC00  0105               	movlb	5	; () banked
  4776   00FC02  517C               	movf	main@taster4Flag& (0+255),w,b
  4777   00FC04  B4D8               	btfsc	status,2,c
  4778   00FC06  EF07  F07E         	goto	u4821
  4779   00FC0A  EF09  F07E         	goto	u4820
  4780   00FC0E                     u4821:
  4781   00FC0E  EF44  F07E         	goto	l3690
  4782   00FC12                     u4820:
  4783   00FC12                     
  4784                           ; BSR set to: 5
  4785   00FC12  5173               	movf	main@led4StateBlink& (0+255),w,b
  4786   00FC14  B4D8               	btfsc	status,2,c
  4787   00FC16  EF0F  F07E         	goto	u4831
  4788   00FC1A  EF11  F07E         	goto	u4830
  4789   00FC1E                     u4831:
  4790   00FC1E  EF44  F07E         	goto	l3690
  4791   00FC22                     u4830:
  4792   00FC22                     
  4793                           ; BSR set to: 5
  4794                           ;main.c: 892:                 {;main.c: 893:                     LATCbits.LATC3 = 1;
  4795   00FC22  86C0               	bsf	192,3,c	;volatile
  4796   00FC24                     
  4797                           ; BSR set to: 5
  4798                           ;main.c: 894:                     led4StateBlink = 0;
  4799   00FC24  0E00               	movlw	0
  4800   00FC26  6F73               	movwf	main@led4StateBlink& (0+255),b
  4801                           
  4802                           ;main.c: 895:                     redAdj = 0;
  4803   00FC28  0E00               	movlw	0
  4804   00FC2A  6F76               	movwf	main@redAdj& (0+255),b
  4805                           
  4806                           ;main.c: 896:                     greenAdj = 0;
  4807   00FC2C  0E00               	movlw	0
  4808   00FC2E  6F77               	movwf	main@greenAdj& (0+255),b
  4809                           
  4810                           ;main.c: 897:                     blueAdj = 0;
  4811   00FC30  0E00               	movlw	0
  4812   00FC32  6F78               	movwf	main@blueAdj& (0+255),b
  4813                           
  4814                           ;main.c: 898:                     whiteAdj = 0;
  4815   00FC34  0E00               	movlw	0
  4816   00FC36  6F79               	movwf	main@whiteAdj& (0+255),b
  4817   00FC38                     
  4818                           ; BSR set to: 5
  4819                           ;main.c: 899:                     DATAEE_WriteByte(32, blueMode1);
  4820   00FC38  0E00               	movlw	0
  4821   00FC3A  6E02               	movwf	(DATAEE_WriteByte@bAdd+1)^(0+1280),c
  4822   00FC3C  0E20               	movlw	32
  4823   00FC3E  6E01               	movwf	DATAEE_WriteByte@bAdd^(0+1280),c
  4824   00FC40  C58E  F503         	movff	main@blueMode1,DATAEE_WriteByte@bData
  4825   00FC44  EC4B  F06D         	call	_DATAEE_WriteByte	;wreg free
  4826   00FC48                     
  4827                           ;main.c: 900:                     DATAEE_WriteByte(31, greenMode1);
  4828   00FC48  0E00               	movlw	0
  4829   00FC4A  6E02               	movwf	(DATAEE_WriteByte@bAdd+1)^(0+1280),c
  4830   00FC4C  0E1F               	movlw	31
  4831   00FC4E  6E01               	movwf	DATAEE_WriteByte@bAdd^(0+1280),c
  4832   00FC50  C58D  F503         	movff	main@greenMode1,DATAEE_WriteByte@bData
  4833   00FC54  EC4B  F06D         	call	_DATAEE_WriteByte	;wreg free
  4834   00FC58                     
  4835                           ;main.c: 901:                     DATAEE_WriteByte(30, redMode1);
  4836   00FC58  0E00               	movlw	0
  4837   00FC5A  6E02               	movwf	(DATAEE_WriteByte@bAdd+1)^(0+1280),c
  4838   00FC5C  0E1E               	movlw	30
  4839   00FC5E  6E01               	movwf	DATAEE_WriteByte@bAdd^(0+1280),c
  4840   00FC60  C58C  F503         	movff	main@redMode1,DATAEE_WriteByte@bData
  4841   00FC64  EC4B  F06D         	call	_DATAEE_WriteByte	;wreg free
  4842   00FC68                     
  4843                           ;main.c: 902:                     DATAEE_WriteByte(34, whiteMode1);
  4844   00FC68  0E00               	movlw	0
  4845   00FC6A  6E02               	movwf	(DATAEE_WriteByte@bAdd+1)^(0+1280),c
  4846   00FC6C  0E22               	movlw	34
  4847   00FC6E  6E01               	movwf	DATAEE_WriteByte@bAdd^(0+1280),c
  4848   00FC70  C57E  F503         	movff	main@whiteMode1,DATAEE_WriteByte@bData
  4849   00FC74  EC4B  F06D         	call	_DATAEE_WriteByte	;wreg free
  4850   00FC78                     
  4851                           ;main.c: 903:                     DATAEE_WriteByte(8, 69);
  4852   00FC78  0E00               	movlw	0
  4853   00FC7A  6E02               	movwf	(DATAEE_WriteByte@bAdd+1)^(0+1280),c
  4854   00FC7C  0E08               	movlw	8
  4855   00FC7E  6E01               	movwf	DATAEE_WriteByte@bAdd^(0+1280),c
  4856   00FC80  0E45               	movlw	69
  4857   00FC82  6E03               	movwf	DATAEE_WriteByte@bData^(0+1280),c
  4858   00FC84  EC4B  F06D         	call	_DATAEE_WriteByte	;wreg free
  4859   00FC88                     l3690:
  4860                           
  4861                           ;main.c: 906:                 if(led4StateBlink)
  4862   00FC88  0105               	movlb	5	; () banked
  4863   00FC8A  5173               	movf	main@led4StateBlink& (0+255),w,b
  4864   00FC8C  B4D8               	btfsc	status,2,c
  4865   00FC8E  EF4B  F07E         	goto	u4841
  4866   00FC92  EF4D  F07E         	goto	u4840
  4867   00FC96                     u4841:
  4868   00FC96  EF41  F07F         	goto	l472
  4869   00FC9A                     u4840:
  4870   00FC9A                     
  4871                           ; BSR set to: 5
  4872                           ;main.c: 907:                 {;main.c: 908:                     if((red >= (redMode4 - 
      +                          5) && red <= redMode4 + 5))
  4873   00FC9A  0EFB               	movlw	251
  4874   00FC9C  2585               	addwf	main@redMode4& (0+255),w,b
  4875   00FC9E  6E2F               	movwf	??_main^(0+1280),c
  4876   00FCA0  6A30               	clrf	(??_main+1)^(0+1280),c
  4877   00FCA2  0EFF               	movlw	255
  4878   00FCA4  2230               	addwfc	(??_main+1)^(0+1280),f,c
  4879   00FCA6  5190               	movf	main@red& (0+255),w,b
  4880   00FCA8  6E31               	movwf	(??_main+2)^(0+1280),c
  4881   00FCAA  6A32               	clrf	(??_main+3)^(0+1280),c
  4882   00FCAC  502F               	movf	??_main^(0+1280),w,c
  4883   00FCAE  5C31               	subwf	(??_main+2)^(0+1280),w,c
  4884   00FCB0  5032               	movf	(??_main+3)^(0+1280),w,c
  4885   00FCB2  0A80               	xorlw	128
  4886   00FCB4  6E33               	movwf	(??_main+4)^(0+1280),c
  4887   00FCB6  5030               	movf	(??_main+1)^(0+1280),w,c
  4888   00FCB8  0A80               	xorlw	128
  4889   00FCBA  5833               	subwfb	(??_main+4)^(0+1280),w,c
  4890   00FCBC  A0D8               	btfss	status,0,c
  4891   00FCBE  EF63  F07E         	goto	u4851
  4892   00FCC2  EF65  F07E         	goto	u4850
  4893   00FCC6                     u4851:
  4894   00FCC6  EF80  F07E         	goto	l473
  4895   00FCCA                     u4850:
  4896   00FCCA                     
  4897                           ; BSR set to: 5
  4898   00FCCA  5190               	movf	main@red& (0+255),w,b
  4899   00FCCC  6E2F               	movwf	??_main^(0+1280),c
  4900   00FCCE  6A30               	clrf	(??_main+1)^(0+1280),c
  4901   00FCD0  5185               	movf	main@redMode4& (0+255),w,b
  4902   00FCD2  6E31               	movwf	(??_main+2)^(0+1280),c
  4903   00FCD4  6A32               	clrf	(??_main+3)^(0+1280),c
  4904   00FCD6  0E05               	movlw	5
  4905   00FCD8  2631               	addwf	(??_main+2)^(0+1280),f,c
  4906   00FCDA  0E00               	movlw	0
  4907   00FCDC  2232               	addwfc	(??_main+3)^(0+1280),f,c
  4908   00FCDE  502F               	movf	??_main^(0+1280),w,c
  4909   00FCE0  5C31               	subwf	(??_main+2)^(0+1280),w,c
  4910   00FCE2  5032               	movf	(??_main+3)^(0+1280),w,c
  4911   00FCE4  0A80               	xorlw	128
  4912   00FCE6  6E33               	movwf	(??_main+4)^(0+1280),c
  4913   00FCE8  5030               	movf	(??_main+1)^(0+1280),w,c
  4914   00FCEA  0A80               	xorlw	128
  4915   00FCEC  5833               	subwfb	(??_main+4)^(0+1280),w,c
  4916   00FCEE  A0D8               	btfss	status,0,c
  4917   00FCF0  EF7C  F07E         	goto	u4861
  4918   00FCF4  EF7E  F07E         	goto	u4860
  4919   00FCF8                     u4861:
  4920   00FCF8  EF80  F07E         	goto	l473
  4921   00FCFC                     u4860:
  4922   00FCFC                     
  4923                           ; BSR set to: 5
  4924                           ;main.c: 909:                     {;main.c: 910:                         redAdj = 1;
  4925   00FCFC  0E01               	movlw	1
  4926   00FCFE  6F76               	movwf	main@redAdj& (0+255),b
  4927   00FD00                     l473:
  4928                           
  4929                           ; BSR set to: 5
  4930                           ;main.c: 913:                     if(redAdj)
  4931   00FD00  5176               	movf	main@redAdj& (0+255),w,b
  4932   00FD02  B4D8               	btfsc	status,2,c
  4933   00FD04  EF86  F07E         	goto	u4871
  4934   00FD08  EF88  F07E         	goto	u4870
  4935   00FD0C                     u4871:
  4936   00FD0C  EF8A  F07E         	goto	l3700
  4937   00FD10                     u4870:
  4938   00FD10                     
  4939                           ; BSR set to: 5
  4940                           ;main.c: 914:                     {;main.c: 915:                         redMode4 = red;
  4941   00FD10  C590  F585         	movff	main@red,main@redMode4
  4942   00FD14                     l3700:
  4943                           
  4944                           ; BSR set to: 5
  4945                           ;main.c: 918:                     if((white >= (whiteMode4 - 5) && white <= whiteMode4 +
      +                           5))
  4946   00FD14  0EFB               	movlw	251
  4947   00FD16  256F               	addwf	main@whiteMode4& (0+255),w,b
  4948   00FD18  6E2F               	movwf	??_main^(0+1280),c
  4949   00FD1A  6A30               	clrf	(??_main+1)^(0+1280),c
  4950   00FD1C  0EFF               	movlw	255
  4951   00FD1E  2230               	addwfc	(??_main+1)^(0+1280),f,c
  4952   00FD20  518F               	movf	main@white& (0+255),w,b
  4953   00FD22  6E31               	movwf	(??_main+2)^(0+1280),c
  4954   00FD24  6A32               	clrf	(??_main+3)^(0+1280),c
  4955   00FD26  502F               	movf	??_main^(0+1280),w,c
  4956   00FD28  5C31               	subwf	(??_main+2)^(0+1280),w,c
  4957   00FD2A  5032               	movf	(??_main+3)^(0+1280),w,c
  4958   00FD2C  0A80               	xorlw	128
  4959   00FD2E  6E33               	movwf	(??_main+4)^(0+1280),c
  4960   00FD30  5030               	movf	(??_main+1)^(0+1280),w,c
  4961   00FD32  0A80               	xorlw	128
  4962   00FD34  5833               	subwfb	(??_main+4)^(0+1280),w,c
  4963   00FD36  A0D8               	btfss	status,0,c
  4964   00FD38  EFA0  F07E         	goto	u4881
  4965   00FD3C  EFA2  F07E         	goto	u4880
  4966   00FD40                     u4881:
  4967   00FD40  EFBD  F07E         	goto	l475
  4968   00FD44                     u4880:
  4969   00FD44                     
  4970                           ; BSR set to: 5
  4971   00FD44  518F               	movf	main@white& (0+255),w,b
  4972   00FD46  6E2F               	movwf	??_main^(0+1280),c
  4973   00FD48  6A30               	clrf	(??_main+1)^(0+1280),c
  4974   00FD4A  516F               	movf	main@whiteMode4& (0+255),w,b
  4975   00FD4C  6E31               	movwf	(??_main+2)^(0+1280),c
  4976   00FD4E  6A32               	clrf	(??_main+3)^(0+1280),c
  4977   00FD50  0E05               	movlw	5
  4978   00FD52  2631               	addwf	(??_main+2)^(0+1280),f,c
  4979   00FD54  0E00               	movlw	0
  4980   00FD56  2232               	addwfc	(??_main+3)^(0+1280),f,c
  4981   00FD58  502F               	movf	??_main^(0+1280),w,c
  4982   00FD5A  5C31               	subwf	(??_main+2)^(0+1280),w,c
  4983   00FD5C  5032               	movf	(??_main+3)^(0+1280),w,c
  4984   00FD5E  0A80               	xorlw	128
  4985   00FD60  6E33               	movwf	(??_main+4)^(0+1280),c
  4986   00FD62  5030               	movf	(??_main+1)^(0+1280),w,c
  4987   00FD64  0A80               	xorlw	128
  4988   00FD66  5833               	subwfb	(??_main+4)^(0+1280),w,c
  4989   00FD68  A0D8               	btfss	status,0,c
  4990   00FD6A  EFB9  F07E         	goto	u4891
  4991   00FD6E  EFBB  F07E         	goto	u4890
  4992   00FD72                     u4891:
  4993   00FD72  EFBD  F07E         	goto	l475
  4994   00FD76                     u4890:
  4995   00FD76                     
  4996                           ; BSR set to: 5
  4997                           ;main.c: 919:                     {;main.c: 920:                         whiteAdj = 1;
  4998   00FD76  0E01               	movlw	1
  4999   00FD78  6F79               	movwf	main@whiteAdj& (0+255),b
  5000   00FD7A                     l475:
  5001                           
  5002                           ; BSR set to: 5
  5003                           ;main.c: 923:                     if(whiteAdj)
  5004   00FD7A  5179               	movf	main@whiteAdj& (0+255),w,b
  5005   00FD7C  B4D8               	btfsc	status,2,c
  5006   00FD7E  EFC3  F07E         	goto	u4901
  5007   00FD82  EFC5  F07E         	goto	u4900
  5008   00FD86                     u4901:
  5009   00FD86  EFC7  F07E         	goto	l3708
  5010   00FD8A                     u4900:
  5011   00FD8A                     
  5012                           ; BSR set to: 5
  5013                           ;main.c: 924:                     {;main.c: 925:                         whiteMode4 = wh
      +                          ite;
  5014   00FD8A  C58F  F56F         	movff	main@white,main@whiteMode4
  5015   00FD8E                     l3708:
  5016                           
  5017                           ; BSR set to: 5
  5018                           ;main.c: 928:                     if((green >= (greenMode4 - 5) && green <= greenMode4 +
      +                           5))
  5019   00FD8E  0EFB               	movlw	251
  5020   00FD90  2586               	addwf	main@greenMode4& (0+255),w,b
  5021   00FD92  6E2F               	movwf	??_main^(0+1280),c
  5022   00FD94  6A30               	clrf	(??_main+1)^(0+1280),c
  5023   00FD96  0EFF               	movlw	255
  5024   00FD98  2230               	addwfc	(??_main+1)^(0+1280),f,c
  5025   00FD9A  5191               	movf	main@green& (0+255),w,b
  5026   00FD9C  6E31               	movwf	(??_main+2)^(0+1280),c
  5027   00FD9E  6A32               	clrf	(??_main+3)^(0+1280),c
  5028   00FDA0  502F               	movf	??_main^(0+1280),w,c
  5029   00FDA2  5C31               	subwf	(??_main+2)^(0+1280),w,c
  5030   00FDA4  5032               	movf	(??_main+3)^(0+1280),w,c
  5031   00FDA6  0A80               	xorlw	128
  5032   00FDA8  6E33               	movwf	(??_main+4)^(0+1280),c
  5033   00FDAA  5030               	movf	(??_main+1)^(0+1280),w,c
  5034   00FDAC  0A80               	xorlw	128
  5035   00FDAE  5833               	subwfb	(??_main+4)^(0+1280),w,c
  5036   00FDB0  A0D8               	btfss	status,0,c
  5037   00FDB2  EFDD  F07E         	goto	u4911
  5038   00FDB6  EFDF  F07E         	goto	u4910
  5039   00FDBA                     u4911:
  5040   00FDBA  EFFA  F07E         	goto	l477
  5041   00FDBE                     u4910:
  5042   00FDBE                     
  5043                           ; BSR set to: 5
  5044   00FDBE  5191               	movf	main@green& (0+255),w,b
  5045   00FDC0  6E2F               	movwf	??_main^(0+1280),c
  5046   00FDC2  6A30               	clrf	(??_main+1)^(0+1280),c
  5047   00FDC4  5186               	movf	main@greenMode4& (0+255),w,b
  5048   00FDC6  6E31               	movwf	(??_main+2)^(0+1280),c
  5049   00FDC8  6A32               	clrf	(??_main+3)^(0+1280),c
  5050   00FDCA  0E05               	movlw	5
  5051   00FDCC  2631               	addwf	(??_main+2)^(0+1280),f,c
  5052   00FDCE  0E00               	movlw	0
  5053   00FDD0  2232               	addwfc	(??_main+3)^(0+1280),f,c
  5054   00FDD2  502F               	movf	??_main^(0+1280),w,c
  5055   00FDD4  5C31               	subwf	(??_main+2)^(0+1280),w,c
  5056   00FDD6  5032               	movf	(??_main+3)^(0+1280),w,c
  5057   00FDD8  0A80               	xorlw	128
  5058   00FDDA  6E33               	movwf	(??_main+4)^(0+1280),c
  5059   00FDDC  5030               	movf	(??_main+1)^(0+1280),w,c
  5060   00FDDE  0A80               	xorlw	128
  5061   00FDE0  5833               	subwfb	(??_main+4)^(0+1280),w,c
  5062   00FDE2  A0D8               	btfss	status,0,c
  5063   00FDE4  EFF6  F07E         	goto	u4921
  5064   00FDE8  EFF8  F07E         	goto	u4920
  5065   00FDEC                     u4921:
  5066   00FDEC  EFFA  F07E         	goto	l477
  5067   00FDF0                     u4920:
  5068   00FDF0                     
  5069                           ; BSR set to: 5
  5070                           ;main.c: 929:                     {;main.c: 930:                        greenAdj = 1;
  5071   00FDF0  0E01               	movlw	1
  5072   00FDF2  6F77               	movwf	main@greenAdj& (0+255),b
  5073   00FDF4                     l477:
  5074                           
  5075                           ; BSR set to: 5
  5076                           ;main.c: 933:                     if(greenAdj)
  5077   00FDF4  5177               	movf	main@greenAdj& (0+255),w,b
  5078   00FDF6  B4D8               	btfsc	status,2,c
  5079   00FDF8  EF00  F07F         	goto	u4931
  5080   00FDFC  EF02  F07F         	goto	u4930
  5081   00FE00                     u4931:
  5082   00FE00  EF04  F07F         	goto	l3716
  5083   00FE04                     u4930:
  5084   00FE04                     
  5085                           ; BSR set to: 5
  5086                           ;main.c: 934:                     {;main.c: 935:                         greenMode4 = gr
      +                          een;
  5087   00FE04  C591  F586         	movff	main@green,main@greenMode4
  5088   00FE08                     l3716:
  5089                           
  5090                           ; BSR set to: 5
  5091                           ;main.c: 938:                     if((blue >= (blueMode4 - 5) && blue <= blueMode4 + 5))
  5092   00FE08  0EFB               	movlw	251
  5093   00FE0A  2587               	addwf	main@blueMode4& (0+255),w,b
  5094   00FE0C  6E2F               	movwf	??_main^(0+1280),c
  5095   00FE0E  6A30               	clrf	(??_main+1)^(0+1280),c
  5096   00FE10  0EFF               	movlw	255
  5097   00FE12  2230               	addwfc	(??_main+1)^(0+1280),f,c
  5098   00FE14  5192               	movf	main@blue& (0+255),w,b
  5099   00FE16  6E31               	movwf	(??_main+2)^(0+1280),c
  5100   00FE18  6A32               	clrf	(??_main+3)^(0+1280),c
  5101   00FE1A  502F               	movf	??_main^(0+1280),w,c
  5102   00FE1C  5C31               	subwf	(??_main+2)^(0+1280),w,c
  5103   00FE1E  5032               	movf	(??_main+3)^(0+1280),w,c
  5104   00FE20  0A80               	xorlw	128
  5105   00FE22  6E33               	movwf	(??_main+4)^(0+1280),c
  5106   00FE24  5030               	movf	(??_main+1)^(0+1280),w,c
  5107   00FE26  0A80               	xorlw	128
  5108   00FE28  5833               	subwfb	(??_main+4)^(0+1280),w,c
  5109   00FE2A  A0D8               	btfss	status,0,c
  5110   00FE2C  EF1A  F07F         	goto	u4941
  5111   00FE30  EF1C  F07F         	goto	u4940
  5112   00FE34                     u4941:
  5113   00FE34  EF37  F07F         	goto	l479
  5114   00FE38                     u4940:
  5115   00FE38                     
  5116                           ; BSR set to: 5
  5117   00FE38  5192               	movf	main@blue& (0+255),w,b
  5118   00FE3A  6E2F               	movwf	??_main^(0+1280),c
  5119   00FE3C  6A30               	clrf	(??_main+1)^(0+1280),c
  5120   00FE3E  5187               	movf	main@blueMode4& (0+255),w,b
  5121   00FE40  6E31               	movwf	(??_main+2)^(0+1280),c
  5122   00FE42  6A32               	clrf	(??_main+3)^(0+1280),c
  5123   00FE44  0E05               	movlw	5
  5124   00FE46  2631               	addwf	(??_main+2)^(0+1280),f,c
  5125   00FE48  0E00               	movlw	0
  5126   00FE4A  2232               	addwfc	(??_main+3)^(0+1280),f,c
  5127   00FE4C  502F               	movf	??_main^(0+1280),w,c
  5128   00FE4E  5C31               	subwf	(??_main+2)^(0+1280),w,c
  5129   00FE50  5032               	movf	(??_main+3)^(0+1280),w,c
  5130   00FE52  0A80               	xorlw	128
  5131   00FE54  6E33               	movwf	(??_main+4)^(0+1280),c
  5132   00FE56  5030               	movf	(??_main+1)^(0+1280),w,c
  5133   00FE58  0A80               	xorlw	128
  5134   00FE5A  5833               	subwfb	(??_main+4)^(0+1280),w,c
  5135   00FE5C  A0D8               	btfss	status,0,c
  5136   00FE5E  EF33  F07F         	goto	u4951
  5137   00FE62  EF35  F07F         	goto	u4950
  5138   00FE66                     u4951:
  5139   00FE66  EF37  F07F         	goto	l479
  5140   00FE6A                     u4950:
  5141   00FE6A                     
  5142                           ; BSR set to: 5
  5143                           ;main.c: 939:                     {;main.c: 940:                         blueAdj = 1;
  5144   00FE6A  0E01               	movlw	1
  5145   00FE6C  6F78               	movwf	main@blueAdj& (0+255),b
  5146   00FE6E                     l479:
  5147                           
  5148                           ; BSR set to: 5
  5149                           ;main.c: 943:                     if(blueAdj)
  5150   00FE6E  5178               	movf	main@blueAdj& (0+255),w,b
  5151   00FE70  B4D8               	btfsc	status,2,c
  5152   00FE72  EF3D  F07F         	goto	u4961
  5153   00FE76  EF3F  F07F         	goto	u4960
  5154   00FE7A                     u4961:
  5155   00FE7A  EF41  F07F         	goto	l472
  5156   00FE7E                     u4960:
  5157   00FE7E                     
  5158                           ; BSR set to: 5
  5159                           ;main.c: 944:                     {;main.c: 945:                         blueMode4 = blu
      +                          e;
  5160   00FE7E  C592  F587         	movff	main@blue,main@blueMode4
  5161   00FE82                     l472:
  5162                           
  5163                           ; BSR set to: 5
  5164                           ;main.c: 952:                 if(!PORTCbits.RC6 && taster1Flag)
  5165   00FE82  BCD0               	btfsc	208,6,c	;volatile
  5166   00FE84  EF46  F07F         	goto	u4971
  5167   00FE88  EF48  F07F         	goto	u4970
  5168   00FE8C                     u4971:
  5169   00FE8C  EF64  F07F         	goto	l3734
  5170   00FE90                     u4970:
  5171   00FE90                     
  5172                           ; BSR set to: 5
  5173   00FE90  517A               	movf	main@taster1Flag& (0+255),w,b
  5174   00FE92  B4D8               	btfsc	status,2,c
  5175   00FE94  EF4E  F07F         	goto	u4981
  5176   00FE98  EF50  F07F         	goto	u4980
  5177   00FE9C                     u4981:
  5178   00FE9C  EF64  F07F         	goto	l3734
  5179   00FEA0                     u4980:
  5180   00FEA0                     
  5181                           ; BSR set to: 5
  5182                           ;main.c: 953:                 {;main.c: 954:                     LATCbits.LATC3 = 0;
  5183   00FEA0  96C0               	bcf	192,3,c	;volatile
  5184                           
  5185                           ;main.c: 955:                     LATCbits.LATC7 = 1;
  5186   00FEA2  8EC0               	bsf	192,7,c	;volatile
  5187   00FEA4                     
  5188                           ; BSR set to: 5
  5189                           ;main.c: 956:                     state = T1;
  5190   00FEA4  0E01               	movlw	1
  5191   00FEA6  6F93               	movwf	main@state& (0+255),b
  5192   00FEA8                     
  5193                           ; BSR set to: 5
  5194                           ;main.c: 957:                     DATAEE_WriteByte(36, state);
  5195   00FEA8  0E00               	movlw	0
  5196   00FEAA  6E02               	movwf	(DATAEE_WriteByte@bAdd+1)^(0+1280),c
  5197   00FEAC  0E24               	movlw	36
  5198   00FEAE  6E01               	movwf	DATAEE_WriteByte@bAdd^(0+1280),c
  5199   00FEB0  C593  F503         	movff	main@state,DATAEE_WriteByte@bData
  5200   00FEB4  EC4B  F06D         	call	_DATAEE_WriteByte	;wreg free
  5201   00FEB8                     
  5202                           ;main.c: 958:                     DATAEE_WriteByte(2, 69);
  5203   00FEB8  0E00               	movlw	0
  5204   00FEBA  6E02               	movwf	(DATAEE_WriteByte@bAdd+1)^(0+1280),c
  5205   00FEBC  0E02               	movlw	2
  5206   00FEBE  6E01               	movwf	DATAEE_WriteByte@bAdd^(0+1280),c
  5207   00FEC0  0E45               	movlw	69
  5208   00FEC2  6E03               	movwf	DATAEE_WriteByte@bData^(0+1280),c
  5209   00FEC4  EC4B  F06D         	call	_DATAEE_WriteByte	;wreg free
  5210   00FEC8                     l3734:
  5211                           
  5212                           ;main.c: 962:                 if(!PORTAbits.RA4 && taster2Flag)
  5213   00FEC8  B8CE               	btfsc	206,4,c	;volatile
  5214   00FECA  EF69  F07F         	goto	u4991
  5215   00FECE  EF6B  F07F         	goto	u4990
  5216   00FED2                     u4991:
  5217   00FED2  EF96  F07F         	goto	l3748
  5218   00FED6                     u4990:
  5219   00FED6  0105               	movlb	5	; () banked
  5220   00FED8  517B               	movf	main@taster2Flag& (0+255),w,b
  5221   00FEDA  B4D8               	btfsc	status,2,c
  5222   00FEDC  EF72  F07F         	goto	u5001
  5223   00FEE0  EF74  F07F         	goto	u5000
  5224   00FEE4                     u5001:
  5225   00FEE4  EF96  F07F         	goto	l3748
  5226   00FEE8                     u5000:
  5227   00FEE8                     
  5228                           ; BSR set to: 5
  5229                           ;main.c: 963:                 {;main.c: 964:                     LATCbits.LATC3 = 0;
  5230   00FEE8  96C0               	bcf	192,3,c	;volatile
  5231                           
  5232                           ;main.c: 965:                     LATCbits.LATC5 = 1;
  5233   00FEEA  8AC0               	bsf	192,5,c	;volatile
  5234   00FEEC                     
  5235                           ; BSR set to: 5
  5236                           ;main.c: 966:                     LED_WriteFull(redMode2, greenMode2, blueMode2, 300);
  5237   00FEEC  C580  F50B         	movff	main@greenMode2,LED_WriteFull@green
  5238   00FEF0  C581  F50C         	movff	main@blueMode2,LED_WriteFull@blue
  5239   00FEF4  0E2C               	movlw	44
  5240   00FEF6  6E0D               	movwf	LED_WriteFull@ledcount^(0+1280),c
  5241   00FEF8  0E01               	movlw	1
  5242   00FEFA  6E0E               	movwf	(LED_WriteFull@ledcount+1)^(0+1280),c
  5243   00FEFC  0E00               	movlw	0
  5244   00FEFE  6E0F               	movwf	(LED_WriteFull@ledcount+2)^(0+1280),c
  5245   00FF00  517F               	movf	main@redMode2& (0+255),w,b
  5246   00FF02  ECFF  F06D         	call	_LED_WriteFull
  5247   00FF06                     
  5248                           ;main.c: 967:                     state = T2;
  5249   00FF06  0E02               	movlw	2
  5250   00FF08  0105               	movlb	5	; () banked
  5251   00FF0A  6F93               	movwf	main@state& (0+255),b
  5252   00FF0C                     
  5253                           ; BSR set to: 5
  5254                           ;main.c: 968:                     DATAEE_WriteByte(36, state);
  5255   00FF0C  0E00               	movlw	0
  5256   00FF0E  6E02               	movwf	(DATAEE_WriteByte@bAdd+1)^(0+1280),c
  5257   00FF10  0E24               	movlw	36
  5258   00FF12  6E01               	movwf	DATAEE_WriteByte@bAdd^(0+1280),c
  5259   00FF14  C593  F503         	movff	main@state,DATAEE_WriteByte@bData
  5260   00FF18  EC4B  F06D         	call	_DATAEE_WriteByte	;wreg free
  5261   00FF1C                     
  5262                           ;main.c: 969:                     DATAEE_WriteByte(2, 69);
  5263   00FF1C  0E00               	movlw	0
  5264   00FF1E  6E02               	movwf	(DATAEE_WriteByte@bAdd+1)^(0+1280),c
  5265   00FF20  0E02               	movlw	2
  5266   00FF22  6E01               	movwf	DATAEE_WriteByte@bAdd^(0+1280),c
  5267   00FF24  0E45               	movlw	69
  5268   00FF26  6E03               	movwf	DATAEE_WriteByte@bData^(0+1280),c
  5269   00FF28  EC4B  F06D         	call	_DATAEE_WriteByte	;wreg free
  5270   00FF2C                     l3748:
  5271                           
  5272                           ;main.c: 973:                 if(!PORTCbits.RC4 && taster3Flag)
  5273   00FF2C  B8D0               	btfsc	208,4,c	;volatile
  5274   00FF2E  EF9B  F07F         	goto	u5011
  5275   00FF32  EF9D  F07F         	goto	u5010
  5276   00FF36                     u5011:
  5277   00FF36  EF78  F071         	goto	l2944
  5278   00FF3A                     u5010:
  5279   00FF3A  0105               	movlb	5	; () banked
  5280   00FF3C  517D               	movf	main@taster3Flag& (0+255),w,b
  5281   00FF3E  B4D8               	btfsc	status,2,c
  5282   00FF40  EFA4  F07F         	goto	u5021
  5283   00FF44  EFA6  F07F         	goto	u5020
  5284   00FF48                     u5021:
  5285   00FF48  EF78  F071         	goto	l2944
  5286   00FF4C                     u5020:
  5287   00FF4C                     
  5288                           ; BSR set to: 5
  5289                           ;main.c: 974:                 {;main.c: 975:                     LATCbits.LATC3 = 0;
  5290   00FF4C  96C0               	bcf	192,3,c	;volatile
  5291                           
  5292                           ;main.c: 976:                     LATAbits.LATA5 = 1;
  5293   00FF4E  8ABE               	bsf	190,5,c	;volatile
  5294   00FF50                     
  5295                           ; BSR set to: 5
  5296                           ;main.c: 977:                     LED_WriteFull(redMode3, greenMode3, blueMode3, 300);
  5297   00FF50  C583  F50B         	movff	main@greenMode3,LED_WriteFull@green
  5298   00FF54  C584  F50C         	movff	main@blueMode3,LED_WriteFull@blue
  5299   00FF58  0E2C               	movlw	44
  5300   00FF5A  6E0D               	movwf	LED_WriteFull@ledcount^(0+1280),c
  5301   00FF5C  0E01               	movlw	1
  5302   00FF5E  6E0E               	movwf	(LED_WriteFull@ledcount+1)^(0+1280),c
  5303   00FF60  0E00               	movlw	0
  5304   00FF62  6E0F               	movwf	(LED_WriteFull@ledcount+2)^(0+1280),c
  5305   00FF64  5182               	movf	main@redMode3& (0+255),w,b
  5306   00FF66  ECFF  F06D         	call	_LED_WriteFull
  5307   00FF6A                     
  5308                           ;main.c: 978:                     state = T3 ;
  5309   00FF6A  0E03               	movlw	3
  5310   00FF6C  0105               	movlb	5	; () banked
  5311   00FF6E  6F93               	movwf	main@state& (0+255),b
  5312   00FF70  EF95  F075         	goto	l3194
  5313   00FF74                     l3764:
  5314   00FF74  0105               	movlb	5	; () banked
  5315   00FF76  5193               	movf	main@state& (0+255),w,b
  5316   00FF78  6E2F               	movwf	??_main^(0+1280),c
  5317   00FF7A  6A30               	clrf	(??_main+1)^(0+1280),c
  5318                           
  5319                           ; Switch on 2 bytes has been partitioned into a top level switch of size 1, and 1 sub-sw
      +                          itches
  5320                           ; Switch size 1, requested type "simple"
  5321                           ; Number of cases is 1, Range of values is 0 to 0
  5322                           ; switch strategies available:
  5323                           ; Name         Instructions Cycles
  5324                           ; simple_byte            4     3 (average)
  5325                           ;	Chosen strategy is simple_byte
  5326   00FF7C  5030               	movf	(??_main+1)^(0+1280),w,c
  5327   00FF7E  0A00               	xorlw	0	; case 0
  5328   00FF80  B4D8               	btfsc	status,2,c
  5329   00FF82  EFC5  F07F         	goto	l3802
  5330   00FF86  EF78  F071         	goto	l2944
  5331   00FF8A                     l3802:
  5332                           
  5333                           ; BSR set to: 5
  5334                           ; Switch size 1, requested type "simple"
  5335                           ; Number of cases is 13, Range of values is 0 to 12
  5336                           ; switch strategies available:
  5337                           ; Name         Instructions Cycles
  5338                           ; simple_byte           40    21 (average)
  5339                           ;	Chosen strategy is simple_byte
  5340   00FF8A  502F               	movf	??_main^(0+1280),w,c
  5341   00FF8C  0A00               	xorlw	0	; case 0
  5342   00FF8E  B4D8               	btfsc	status,2,c
  5343   00FF90  EF23  F072         	goto	l2966
  5344   00FF94  0A01               	xorlw	1	; case 1
  5345   00FF96  B4D8               	btfsc	status,2,c
  5346   00FF98  EF59  F077         	goto	l3314
  5347   00FF9C  0A03               	xorlw	3	; case 2
  5348   00FF9E  B4D8               	btfsc	status,2,c
  5349   00FFA0  EF75  F079         	goto	l3426
  5350   00FFA4  0A01               	xorlw	1	; case 3
  5351   00FFA6  B4D8               	btfsc	status,2,c
  5352   00FFA8  EF8E  F07B         	goto	l3538
  5353   00FFAC  0A07               	xorlw	7	; case 4
  5354   00FFAE  B4D8               	btfsc	status,2,c
  5355   00FFB0  EFAB  F07D         	goto	l3652
  5356   00FFB4  0A01               	xorlw	1	; case 5
  5357   00FFB6  B4D8               	btfsc	status,2,c
  5358   00FFB8  EF51  F075         	goto	l396
  5359   00FFBC  0A03               	xorlw	3	; case 6
  5360   00FFBE  B4D8               	btfsc	status,2,c
  5361   00FFC0  EFA7  F075         	goto	l399
  5362   00FFC4  0A01               	xorlw	1	; case 7
  5363   00FFC6  B4D8               	btfsc	status,2,c
  5364   00FFC8  EFED  F075         	goto	l402
  5365   00FFCC  0A0F               	xorlw	15	; case 8
  5366   00FFCE  B4D8               	btfsc	status,2,c
  5367   00FFD0  EF33  F076         	goto	l405
  5368   00FFD4  0A01               	xorlw	1	; case 9
  5369   00FFD6  B4D8               	btfsc	status,2,c
  5370   00FFD8  EF79  F076         	goto	l408
  5371   00FFDC  0A03               	xorlw	3	; case 10
  5372   00FFDE  B4D8               	btfsc	status,2,c
  5373   00FFE0  EFB1  F076         	goto	l411
  5374   00FFE4  0A01               	xorlw	1	; case 11
  5375   00FFE6  B4D8               	btfsc	status,2,c
  5376   00FFE8  EFE9  F076         	goto	l414
  5377   00FFEC  0A07               	xorlw	7	; case 12
  5378   00FFEE  B4D8               	btfsc	status,2,c
  5379   00FFF0  EF21  F077         	goto	l417
  5380   00FFF4  EF78  F071         	goto	l2944
  5381   00FFF8  EFFE  F07F         	goto	start
  5382   00FFFC                     __end_of_main:
  5383                           	callstack 0
  5384                           
  5385                           ; #config settings
  5386                           
  5387                           	psect	cinit
  5388   00D9D2                     __pcinit:
  5389                           	callstack 0
  5390   00D9D2                     start_initialization:
  5391                           	callstack 0
  5392   00D9D2                     __initialization:
  5393                           	callstack 0
  5394                           
  5395                           ; Clear objects allocated to COMRAM (4 bytes)
  5396   00D9D2  6A37               	clrf	(__pbssCOMRAM+3)& (0+255),c
  5397   00D9D4  6A36               	clrf	(__pbssCOMRAM+2)& (0+255),c
  5398   00D9D6  6A35               	clrf	(__pbssCOMRAM+1)& (0+255),c
  5399   00D9D8  6A34               	clrf	__pbssCOMRAM& (0+255),c
  5400   00D9DA                     end_of_initialization:
  5401                           	callstack 0
  5402   00D9DA                     __end_of__initialization:
  5403                           	callstack 0
  5404   00D9DA  0E00               	movlw	low (__Lmediumconst shr (0+16))
  5405   00D9DC  6EF8               	movwf	tblptru,c
  5406   00D9DE  0100               	movlb	0
  5407   00D9E0  EFAF  F06F         	goto	_main	;jump to C main() function
  5408                           
  5409                           	psect	bssCOMRAM
  5410   000534                     __pbssCOMRAM:
  5411                           	callstack 0
  5412   000534                     _loopTimeMS:
  5413                           	callstack 0
  5414   000534                     	ds	2
  5415   000536                     _loopTimeCnt:
  5416                           	callstack 0
  5417   000536                     	ds	2
  5418                           
  5419                           	psect	cstackBANK5
  5420   000560                     __pcstackBANK5:
  5421                           	callstack 0
  5422   000560                     main@timeout5s:
  5423                           	callstack 0
  5424                           
  5425                           ; 2 bytes @ 0x0
  5426   000560                     	ds	2
  5427   000562                     main@timeout100ms:
  5428                           	callstack 0
  5429                           
  5430                           ; 1 bytes @ 0x2
  5431   000562                     	ds	1
  5432   000563                     main@timeout10s:
  5433                           	callstack 0
  5434                           
  5435                           ; 2 bytes @ 0x3
  5436   000563                     	ds	2
  5437   000565                     main@timeout5sPressed1:
  5438                           	callstack 0
  5439                           
  5440                           ; 2 bytes @ 0x5
  5441   000565                     	ds	2
  5442   000567                     main@timeout5sPressed2:
  5443                           	callstack 0
  5444                           
  5445                           ; 2 bytes @ 0x7
  5446   000567                     	ds	2
  5447   000569                     main@timeout5sPressed3:
  5448                           	callstack 0
  5449                           
  5450                           ; 2 bytes @ 0x9
  5451   000569                     	ds	2
  5452   00056B                     main@timeout5sPressed4:
  5453                           	callstack 0
  5454                           
  5455                           ; 2 bytes @ 0xB
  5456   00056B                     	ds	2
  5457   00056D                     main@whiteMode2:
  5458                           	callstack 0
  5459                           
  5460                           ; 1 bytes @ 0xD
  5461   00056D                     	ds	1
  5462   00056E                     main@whiteMode3:
  5463                           	callstack 0
  5464                           
  5465                           ; 1 bytes @ 0xE
  5466   00056E                     	ds	1
  5467   00056F                     main@whiteMode4:
  5468                           	callstack 0
  5469                           
  5470                           ; 1 bytes @ 0xF
  5471   00056F                     	ds	1
  5472   000570                     main@led1StateBlink:
  5473                           	callstack 0
  5474                           
  5475                           ; 1 bytes @ 0x10
  5476   000570                     	ds	1
  5477   000571                     main@led2StateBlink:
  5478                           	callstack 0
  5479                           
  5480                           ; 1 bytes @ 0x11
  5481   000571                     	ds	1
  5482   000572                     main@led3StateBlink:
  5483                           	callstack 0
  5484                           
  5485                           ; 1 bytes @ 0x12
  5486   000572                     	ds	1
  5487   000573                     main@led4StateBlink:
  5488                           	callstack 0
  5489                           
  5490                           ; 1 bytes @ 0x13
  5491   000573                     	ds	1
  5492   000574                     main@timeout250ms:
  5493                           	callstack 0
  5494                           
  5495                           ; 1 bytes @ 0x14
  5496   000574                     	ds	1
  5497   000575                     main@timeout500ms:
  5498                           	callstack 0
  5499                           
  5500                           ; 1 bytes @ 0x15
  5501   000575                     	ds	1
  5502   000576                     main@redAdj:
  5503                           	callstack 0
  5504                           
  5505                           ; 1 bytes @ 0x16
  5506   000576                     	ds	1
  5507   000577                     main@greenAdj:
  5508                           	callstack 0
  5509                           
  5510                           ; 1 bytes @ 0x17
  5511   000577                     	ds	1
  5512   000578                     main@blueAdj:
  5513                           	callstack 0
  5514                           
  5515                           ; 1 bytes @ 0x18
  5516   000578                     	ds	1
  5517   000579                     main@whiteAdj:
  5518                           	callstack 0
  5519                           
  5520                           ; 1 bytes @ 0x19
  5521   000579                     	ds	1
  5522   00057A                     main@taster1Flag:
  5523                           	callstack 0
  5524                           
  5525                           ; 1 bytes @ 0x1A
  5526   00057A                     	ds	1
  5527   00057B                     main@taster2Flag:
  5528                           	callstack 0
  5529                           
  5530                           ; 1 bytes @ 0x1B
  5531   00057B                     	ds	1
  5532   00057C                     main@taster4Flag:
  5533                           	callstack 0
  5534                           
  5535                           ; 1 bytes @ 0x1C
  5536   00057C                     	ds	1
  5537   00057D                     main@taster3Flag:
  5538                           	callstack 0
  5539                           
  5540                           ; 1 bytes @ 0x1D
  5541   00057D                     	ds	1
  5542   00057E                     main@whiteMode1:
  5543                           	callstack 0
  5544                           
  5545                           ; 1 bytes @ 0x1E
  5546   00057E                     	ds	1
  5547   00057F                     main@redMode2:
  5548                           	callstack 0
  5549                           
  5550                           ; 1 bytes @ 0x1F
  5551   00057F                     	ds	1
  5552   000580                     main@greenMode2:
  5553                           	callstack 0
  5554                           
  5555                           ; 1 bytes @ 0x20
  5556   000580                     	ds	1
  5557   000581                     main@blueMode2:
  5558                           	callstack 0
  5559                           
  5560                           ; 1 bytes @ 0x21
  5561   000581                     	ds	1
  5562   000582                     main@redMode3:
  5563                           	callstack 0
  5564                           
  5565                           ; 1 bytes @ 0x22
  5566   000582                     	ds	1
  5567   000583                     main@greenMode3:
  5568                           	callstack 0
  5569                           
  5570                           ; 1 bytes @ 0x23
  5571   000583                     	ds	1
  5572   000584                     main@blueMode3:
  5573                           	callstack 0
  5574                           
  5575                           ; 1 bytes @ 0x24
  5576   000584                     	ds	1
  5577   000585                     main@redMode4:
  5578                           	callstack 0
  5579                           
  5580                           ; 1 bytes @ 0x25
  5581   000585                     	ds	1
  5582   000586                     main@greenMode4:
  5583                           	callstack 0
  5584                           
  5585                           ; 1 bytes @ 0x26
  5586   000586                     	ds	1
  5587   000587                     main@blueMode4:
  5588                           	callstack 0
  5589                           
  5590                           ; 1 bytes @ 0x27
  5591   000587                     	ds	1
  5592   000588                     main@led1Blink:
  5593                           	callstack 0
  5594                           
  5595                           ; 1 bytes @ 0x28
  5596   000588                     	ds	1
  5597   000589                     main@led2Blink:
  5598                           	callstack 0
  5599                           
  5600                           ; 1 bytes @ 0x29
  5601   000589                     	ds	1
  5602   00058A                     main@led3Blink:
  5603                           	callstack 0
  5604                           
  5605                           ; 1 bytes @ 0x2A
  5606   00058A                     	ds	1
  5607   00058B                     main@led4Blink:
  5608                           	callstack 0
  5609                           
  5610                           ; 1 bytes @ 0x2B
  5611   00058B                     	ds	1
  5612   00058C                     main@redMode1:
  5613                           	callstack 0
  5614                           
  5615                           ; 1 bytes @ 0x2C
  5616   00058C                     	ds	1
  5617   00058D                     main@greenMode1:
  5618                           	callstack 0
  5619                           
  5620                           ; 1 bytes @ 0x2D
  5621   00058D                     	ds	1
  5622   00058E                     main@blueMode1:
  5623                           	callstack 0
  5624                           
  5625                           ; 1 bytes @ 0x2E
  5626   00058E                     	ds	1
  5627   00058F                     main@white:
  5628                           	callstack 0
  5629                           
  5630                           ; 1 bytes @ 0x2F
  5631   00058F                     	ds	1
  5632   000590                     main@red:
  5633                           	callstack 0
  5634                           
  5635                           ; 1 bytes @ 0x30
  5636   000590                     	ds	1
  5637   000591                     main@green:
  5638                           	callstack 0
  5639                           
  5640                           ; 1 bytes @ 0x31
  5641   000591                     	ds	1
  5642   000592                     main@blue:
  5643                           	callstack 0
  5644                           
  5645                           ; 1 bytes @ 0x32
  5646   000592                     	ds	1
  5647   000593                     main@state:
  5648                           	callstack 0
  5649                           
  5650                           ; 1 bytes @ 0x33
  5651   000593                     	ds	1
  5652                           
  5653                           	psect	cstackCOMRAM
  5654   000501                     __pcstackCOMRAM:
  5655                           	callstack 0
  5656   000501                     ?_ADCC_GetSingleConversion:
  5657                           	callstack 0
  5658   000501                     ?___ltdiv:
  5659                           	callstack 0
  5660   000501                     ?___lmul:
  5661                           	callstack 0
  5662   000501                     ws_send_byte@K:
  5663                           	callstack 0
  5664   000501                     DATAEE_WriteByte@bAdd:
  5665                           	callstack 0
  5666   000501                     DATAEE_ReadByte@bAdd:
  5667                           	callstack 0
  5668   000501                     ___ltdiv@dividend:
  5669                           	callstack 0
  5670   000501                     ___lmul@multiplier:
  5671                           	callstack 0
  5672                           
  5673                           ; 4 bytes @ 0x0
  5674   000501                     	ds	1
  5675   000502                     WS2812B_Write@G:
  5676                           	callstack 0
  5677                           
  5678                           ; 1 bytes @ 0x1
  5679   000502                     	ds	1
  5680   000503                     ??_ADCC_GetSingleConversion:
  5681   000503                     DATAEE_WriteByte@bData:
  5682                           	callstack 0
  5683   000503                     WS2812B_Write@B:
  5684                           	callstack 0
  5685                           
  5686                           ; 1 bytes @ 0x2
  5687   000503                     	ds	1
  5688   000504                     DATAEE_WriteByte@GIEBitValue:
  5689                           	callstack 0
  5690   000504                     WS2812B_Write@R:
  5691                           	callstack 0
  5692   000504                     ___ltdiv@divisor:
  5693                           	callstack 0
  5694                           
  5695                           ; 3 bytes @ 0x3
  5696   000504                     	ds	1
  5697   000505                     ADCC_GetSingleConversion@channel:
  5698                           	callstack 0
  5699   000505                     ___lmul@multiplicand:
  5700                           	callstack 0
  5701                           
  5702                           ; 4 bytes @ 0x4
  5703   000505                     	ds	2
  5704   000507                     ___ltdiv@quotient:
  5705                           	callstack 0
  5706                           
  5707                           ; 3 bytes @ 0x6
  5708   000507                     	ds	2
  5709   000509                     ___lmul@product:
  5710                           	callstack 0
  5711                           
  5712                           ; 4 bytes @ 0x8
  5713   000509                     	ds	1
  5714   00050A                     ___ltdiv@counter:
  5715                           	callstack 0
  5716                           
  5717                           ; 1 bytes @ 0x9
  5718   00050A                     	ds	1
  5719   00050B                     LED_WriteFull@green:
  5720                           	callstack 0
  5721                           
  5722                           ; 1 bytes @ 0xA
  5723   00050B                     	ds	1
  5724   00050C                     LED_WriteFull@blue:
  5725                           	callstack 0
  5726                           
  5727                           ; 1 bytes @ 0xB
  5728   00050C                     	ds	1
  5729   00050D                     ?___aldiv:
  5730                           	callstack 0
  5731   00050D                     LED_WriteFull@ledcount:
  5732                           	callstack 0
  5733   00050D                     ___aldiv@dividend:
  5734                           	callstack 0
  5735                           
  5736                           ; 4 bytes @ 0xC
  5737   00050D                     	ds	3
  5738   000510                     LED_WriteFull@red:
  5739                           	callstack 0
  5740                           
  5741                           ; 1 bytes @ 0xF
  5742   000510                     	ds	1
  5743   000511                     LED_WriteFull@x:
  5744                           	callstack 0
  5745   000511                     ___aldiv@divisor:
  5746                           	callstack 0
  5747                           
  5748                           ; 4 bytes @ 0x10
  5749   000511                     	ds	3
  5750   000514                     LED_WriteFull@i:
  5751                           	callstack 0
  5752                           
  5753                           ; 1 bytes @ 0x13
  5754   000514                     	ds	1
  5755   000515                     ___aldiv@counter:
  5756                           	callstack 0
  5757                           
  5758                           ; 1 bytes @ 0x14
  5759   000515                     	ds	1
  5760   000516                     ___aldiv@sign:
  5761                           	callstack 0
  5762                           
  5763                           ; 1 bytes @ 0x15
  5764   000516                     	ds	1
  5765   000517                     ___aldiv@quotient:
  5766                           	callstack 0
  5767                           
  5768                           ; 4 bytes @ 0x16
  5769   000517                     	ds	4
  5770   00051B                     ?_map:
  5771                           	callstack 0
  5772   00051B                     map@x:
  5773                           	callstack 0
  5774                           
  5775                           ; 4 bytes @ 0x1A
  5776   00051B                     	ds	4
  5777   00051F                     map@in_min:
  5778                           	callstack 0
  5779                           
  5780                           ; 4 bytes @ 0x1E
  5781   00051F                     	ds	4
  5782   000523                     map@in_max:
  5783                           	callstack 0
  5784                           
  5785                           ; 4 bytes @ 0x22
  5786   000523                     	ds	4
  5787   000527                     map@out_min:
  5788                           	callstack 0
  5789                           
  5790                           ; 4 bytes @ 0x26
  5791   000527                     	ds	4
  5792   00052B                     map@out_max:
  5793                           	callstack 0
  5794                           
  5795                           ; 4 bytes @ 0x2A
  5796   00052B                     	ds	4
  5797   00052F                     ??_main:
  5798                           
  5799                           ; 1 bytes @ 0x2E
  5800   00052F                     	ds	5
  5801                           
  5802 ;; *************** function _map *****************
  5803 ;; Defined at:
  5804 ;;		line 10 in file "DivFunctions.c"
  5805 ;; Parameters:    Size  Location     Type
  5806 ;;  x               4   26[COMRAM] long 
  5807 ;;  in_min          4   30[COMRAM] long 
  5808 ;;  in_max          4   34[COMRAM] long 
  5809 ;;  out_min         4   38[COMRAM] long 
  5810 ;;  out_max         4   42[COMRAM] long 
  5811 ;; Auto vars:     Size  Location     Type
  5812 ;;		None
  5813 ;; Return value:  Size  Location     Type
  5814 ;;                  4   26[COMRAM] long 
  5815 ;; Registers used:
  5816 ;;		wreg, status,2, status,0, cstack
  5817 ;; Tracked objects:
  5818 ;;		On entry : 0/0
  5819 ;;		On exit  : 0/0
  5820 ;;		Unchanged: 0/0
  5821 ;; Data sizes:     COMRAM   BANK5   BANK6   BANK7   BANK8   BANK9  BANK10  BANK11  BANK12  BANK13  BANK14  BANK15  BANK1
      +6  BANK17  BANK18  BANK19  BANK20  BANK21
  5822 ;;      Params:        20       0       0       0       0       0       0       0       0       0       0       0       
      +0       0       0       0       0       0
  5823 ;;      Locals:         0       0       0       0       0       0       0       0       0       0       0       0       
      +0       0       0       0       0       0
  5824 ;;      Temps:          0       0       0       0       0       0       0       0       0       0       0       0       
      +0       0       0       0       0       0
  5825 ;;      Totals:        20       0       0       0       0       0       0       0       0       0       0       0       
      +0       0       0       0       0       0
  5826 ;;Total ram usage:       20 bytes
  5827 ;; Hardware stack levels used: 1
  5828 ;; Hardware stack levels required when called: 1
  5829 ;; This function calls:
  5830 ;;		___aldiv
  5831 ;;		___lmul
  5832 ;; This function is called by:
  5833 ;;		_main
  5834 ;; This function uses a non-reentrant model
  5835 ;;
  5836                           
  5837                           	psect	text1
  5838   00DC78                     __ptext1:
  5839                           	callstack 0
  5840   00DC78                     _map:
  5841                           	callstack 126
  5842   00DC78                     
  5843                           ;DivFunctions.c: 11:   return (x - in_min) * (out_max - out_min) / (in_max - in_min) + o
      +                          ut_min;
  5844   00DC78  501F               	movf	map@in_min^(0+1280),w,c
  5845   00DC7A  5C1B               	subwf	map@x^(0+1280),w,c
  5846   00DC7C  6E01               	movwf	___lmul@multiplier^(0+1280),c
  5847   00DC7E  5020               	movf	(map@in_min+1)^(0+1280),w,c
  5848   00DC80  581C               	subwfb	(map@x+1)^(0+1280),w,c
  5849   00DC82  6E02               	movwf	(___lmul@multiplier+1)^(0+1280),c
  5850   00DC84  5021               	movf	(map@in_min+2)^(0+1280),w,c
  5851   00DC86  581D               	subwfb	(map@x+2)^(0+1280),w,c
  5852   00DC88  6E03               	movwf	(___lmul@multiplier+2)^(0+1280),c
  5853   00DC8A  5022               	movf	(map@in_min+3)^(0+1280),w,c
  5854   00DC8C  581E               	subwfb	(map@x+3)^(0+1280),w,c
  5855   00DC8E  6E04               	movwf	(___lmul@multiplier+3)^(0+1280),c
  5856   00DC90  5027               	movf	map@out_min^(0+1280),w,c
  5857   00DC92  5C2B               	subwf	map@out_max^(0+1280),w,c
  5858   00DC94  6E05               	movwf	___lmul@multiplicand^(0+1280),c
  5859   00DC96  5028               	movf	(map@out_min+1)^(0+1280),w,c
  5860   00DC98  582C               	subwfb	(map@out_max+1)^(0+1280),w,c
  5861   00DC9A  6E06               	movwf	(___lmul@multiplicand+1)^(0+1280),c
  5862   00DC9C  5029               	movf	(map@out_min+2)^(0+1280),w,c
  5863   00DC9E  582D               	subwfb	(map@out_max+2)^(0+1280),w,c
  5864   00DCA0  6E07               	movwf	(___lmul@multiplicand+2)^(0+1280),c
  5865   00DCA2  502A               	movf	(map@out_min+3)^(0+1280),w,c
  5866   00DCA4  582E               	subwfb	(map@out_max+3)^(0+1280),w,c
  5867   00DCA6  6E08               	movwf	(___lmul@multiplicand+3)^(0+1280),c
  5868   00DCA8  ECCA  F06D         	call	___lmul	;wreg free
  5869   00DCAC  C501  F50D         	movff	?___lmul,___aldiv@dividend
  5870   00DCB0  C502  F50E         	movff	?___lmul+1,___aldiv@dividend+1
  5871   00DCB4  C503  F50F         	movff	?___lmul+2,___aldiv@dividend+2
  5872   00DCB8  C504  F510         	movff	?___lmul+3,___aldiv@dividend+3
  5873   00DCBC  501F               	movf	map@in_min^(0+1280),w,c
  5874   00DCBE  5C23               	subwf	map@in_max^(0+1280),w,c
  5875   00DCC0  6E11               	movwf	___aldiv@divisor^(0+1280),c
  5876   00DCC2  5020               	movf	(map@in_min+1)^(0+1280),w,c
  5877   00DCC4  5824               	subwfb	(map@in_max+1)^(0+1280),w,c
  5878   00DCC6  6E12               	movwf	(___aldiv@divisor+1)^(0+1280),c
  5879   00DCC8  5021               	movf	(map@in_min+2)^(0+1280),w,c
  5880   00DCCA  5825               	subwfb	(map@in_max+2)^(0+1280),w,c
  5881   00DCCC  6E13               	movwf	(___aldiv@divisor+2)^(0+1280),c
  5882   00DCCE  5022               	movf	(map@in_min+3)^(0+1280),w,c
  5883   00DCD0  5826               	subwfb	(map@in_max+3)^(0+1280),w,c
  5884   00DCD2  6E14               	movwf	(___aldiv@divisor+3)^(0+1280),c
  5885   00DCD4  EC29  F06F         	call	___aldiv	;wreg free
  5886   00DCD8  5027               	movf	map@out_min^(0+1280),w,c
  5887   00DCDA  240D               	addwf	?___aldiv^(0+1280),w,c
  5888   00DCDC  6E1B               	movwf	?_map^(0+1280),c
  5889   00DCDE  5028               	movf	(map@out_min+1)^(0+1280),w,c
  5890   00DCE0  200E               	addwfc	(?___aldiv+1)^(0+1280),w,c
  5891   00DCE2  6E1C               	movwf	(?_map+1)^(0+1280),c
  5892   00DCE4  5029               	movf	(map@out_min+2)^(0+1280),w,c
  5893   00DCE6  200F               	addwfc	(?___aldiv+2)^(0+1280),w,c
  5894   00DCE8  6E1D               	movwf	(?_map+2)^(0+1280),c
  5895   00DCEA  502A               	movf	(map@out_min+3)^(0+1280),w,c
  5896   00DCEC  2010               	addwfc	(?___aldiv+3)^(0+1280),w,c
  5897   00DCEE  6E1E               	movwf	(?_map+3)^(0+1280),c
  5898   00DCF0  0012               	return		;funcret
  5899   00DCF2                     __end_of_map:
  5900                           	callstack 0
  5901                           
  5902 ;; *************** function ___lmul *****************
  5903 ;; Defined at:
  5904 ;;		line 15 in file "C:\Program Files\Microchip\xc8\v2.40\pic\sources\c99\common\Umul32.c"
  5905 ;; Parameters:    Size  Location     Type
  5906 ;;  multiplier      4    0[COMRAM] unsigned long 
  5907 ;;  multiplicand    4    4[COMRAM] unsigned long 
  5908 ;; Auto vars:     Size  Location     Type
  5909 ;;  product         4    8[COMRAM] unsigned long 
  5910 ;; Return value:  Size  Location     Type
  5911 ;;                  4    0[COMRAM] unsigned long 
  5912 ;; Registers used:
  5913 ;;		wreg, status,2, status,0
  5914 ;; Tracked objects:
  5915 ;;		On entry : 0/0
  5916 ;;		On exit  : 0/0
  5917 ;;		Unchanged: 0/0
  5918 ;; Data sizes:     COMRAM   BANK5   BANK6   BANK7   BANK8   BANK9  BANK10  BANK11  BANK12  BANK13  BANK14  BANK15  BANK1
      +6  BANK17  BANK18  BANK19  BANK20  BANK21
  5919 ;;      Params:         8       0       0       0       0       0       0       0       0       0       0       0       
      +0       0       0       0       0       0
  5920 ;;      Locals:         4       0       0       0       0       0       0       0       0       0       0       0       
      +0       0       0       0       0       0
  5921 ;;      Temps:          0       0       0       0       0       0       0       0       0       0       0       0       
      +0       0       0       0       0       0
  5922 ;;      Totals:        12       0       0       0       0       0       0       0       0       0       0       0       
      +0       0       0       0       0       0
  5923 ;;Total ram usage:       12 bytes
  5924 ;; Hardware stack levels used: 1
  5925 ;; This function calls:
  5926 ;;		Nothing
  5927 ;; This function is called by:
  5928 ;;		_map
  5929 ;; This function uses a non-reentrant model
  5930 ;;
  5931                           
  5932                           	psect	text2
  5933   00DB94                     __ptext2:
  5934                           	callstack 0
  5935   00DB94                     ___lmul:
  5936                           	callstack 126
  5937   00DB94  0E00               	movlw	0
  5938   00DB96  6E09               	movwf	___lmul@product^(0+1280),c
  5939   00DB98  0E00               	movlw	0
  5940   00DB9A  6E0A               	movwf	(___lmul@product+1)^(0+1280),c
  5941   00DB9C  0E00               	movlw	0
  5942   00DB9E  6E0B               	movwf	(___lmul@product+2)^(0+1280),c
  5943   00DBA0  0E00               	movlw	0
  5944   00DBA2  6E0C               	movwf	(___lmul@product+3)^(0+1280),c
  5945   00DBA4                     l2676:
  5946   00DBA4  A001               	btfss	___lmul@multiplier^(0+1280),0,c
  5947   00DBA6  EFD7  F06D         	goto	u2651
  5948   00DBAA  EFD9  F06D         	goto	u2650
  5949   00DBAE                     u2651:
  5950   00DBAE  EFE1  F06D         	goto	l2680
  5951   00DBB2                     u2650:
  5952   00DBB2  5005               	movf	___lmul@multiplicand^(0+1280),w,c
  5953   00DBB4  2609               	addwf	___lmul@product^(0+1280),f,c
  5954   00DBB6  5006               	movf	(___lmul@multiplicand+1)^(0+1280),w,c
  5955   00DBB8  220A               	addwfc	(___lmul@product+1)^(0+1280),f,c
  5956   00DBBA  5007               	movf	(___lmul@multiplicand+2)^(0+1280),w,c
  5957   00DBBC  220B               	addwfc	(___lmul@product+2)^(0+1280),f,c
  5958   00DBBE  5008               	movf	(___lmul@multiplicand+3)^(0+1280),w,c
  5959   00DBC0  220C               	addwfc	(___lmul@product+3)^(0+1280),f,c
  5960   00DBC2                     l2680:
  5961   00DBC2  90D8               	bcf	status,0,c
  5962   00DBC4  3605               	rlcf	___lmul@multiplicand^(0+1280),f,c
  5963   00DBC6  3606               	rlcf	(___lmul@multiplicand+1)^(0+1280),f,c
  5964   00DBC8  3607               	rlcf	(___lmul@multiplicand+2)^(0+1280),f,c
  5965   00DBCA  3608               	rlcf	(___lmul@multiplicand+3)^(0+1280),f,c
  5966   00DBCC  90D8               	bcf	status,0,c
  5967   00DBCE  3204               	rrcf	(___lmul@multiplier+3)^(0+1280),f,c
  5968   00DBD0  3203               	rrcf	(___lmul@multiplier+2)^(0+1280),f,c
  5969   00DBD2  3202               	rrcf	(___lmul@multiplier+1)^(0+1280),f,c
  5970   00DBD4  3201               	rrcf	___lmul@multiplier^(0+1280),f,c
  5971   00DBD6  5001               	movf	___lmul@multiplier^(0+1280),w,c
  5972   00DBD8  1002               	iorwf	(___lmul@multiplier+1)^(0+1280),w,c
  5973   00DBDA  1003               	iorwf	(___lmul@multiplier+2)^(0+1280),w,c
  5974   00DBDC  1004               	iorwf	(___lmul@multiplier+3)^(0+1280),w,c
  5975   00DBDE  A4D8               	btfss	status,2,c
  5976   00DBE0  EFF4  F06D         	goto	u2661
  5977   00DBE4  EFF6  F06D         	goto	u2660
  5978   00DBE8                     u2661:
  5979   00DBE8  EFD2  F06D         	goto	l2676
  5980   00DBEC                     u2660:
  5981   00DBEC  C509  F501         	movff	___lmul@product,?___lmul
  5982   00DBF0  C50A  F502         	movff	___lmul@product+1,?___lmul+1
  5983   00DBF4  C50B  F503         	movff	___lmul@product+2,?___lmul+2
  5984   00DBF8  C50C  F504         	movff	___lmul@product+3,?___lmul+3
  5985   00DBFC  0012               	return		;funcret
  5986   00DBFE                     __end_of___lmul:
  5987                           	callstack 0
  5988                           
  5989 ;; *************** function ___aldiv *****************
  5990 ;; Defined at:
  5991 ;;		line 7 in file "C:\Program Files\Microchip\xc8\v2.40\pic\sources\c99\common\aldiv.c"
  5992 ;; Parameters:    Size  Location     Type
  5993 ;;  dividend        4   12[COMRAM] long 
  5994 ;;  divisor         4   16[COMRAM] long 
  5995 ;; Auto vars:     Size  Location     Type
  5996 ;;  quotient        4   22[COMRAM] long 
  5997 ;;  sign            1   21[COMRAM] unsigned char 
  5998 ;;  counter         1   20[COMRAM] unsigned char 
  5999 ;; Return value:  Size  Location     Type
  6000 ;;                  4   12[COMRAM] long 
  6001 ;; Registers used:
  6002 ;;		wreg, status,2, status,0
  6003 ;; Tracked objects:
  6004 ;;		On entry : 0/0
  6005 ;;		On exit  : 0/0
  6006 ;;		Unchanged: 0/0
  6007 ;; Data sizes:     COMRAM   BANK5   BANK6   BANK7   BANK8   BANK9  BANK10  BANK11  BANK12  BANK13  BANK14  BANK15  BANK1
      +6  BANK17  BANK18  BANK19  BANK20  BANK21
  6008 ;;      Params:         8       0       0       0       0       0       0       0       0       0       0       0       
      +0       0       0       0       0       0
  6009 ;;      Locals:         6       0       0       0       0       0       0       0       0       0       0       0       
      +0       0       0       0       0       0
  6010 ;;      Temps:          0       0       0       0       0       0       0       0       0       0       0       0       
      +0       0       0       0       0       0
  6011 ;;      Totals:        14       0       0       0       0       0       0       0       0       0       0       0       
      +0       0       0       0       0       0
  6012 ;;Total ram usage:       14 bytes
  6013 ;; Hardware stack levels used: 1
  6014 ;; This function calls:
  6015 ;;		Nothing
  6016 ;; This function is called by:
  6017 ;;		_map
  6018 ;; This function uses a non-reentrant model
  6019 ;;
  6020                           
  6021                           	psect	text3
  6022   00DE52                     __ptext3:
  6023                           	callstack 0
  6024   00DE52                     ___aldiv:
  6025                           	callstack 126
  6026   00DE52  0E00               	movlw	0
  6027   00DE54  6E16               	movwf	___aldiv@sign^(0+1280),c
  6028   00DE56  BE14               	btfsc	(___aldiv@divisor+3)^(0+1280),7,c
  6029   00DE58  EF32  F06F         	goto	u2670
  6030   00DE5C  EF30  F06F         	goto	u2671
  6031   00DE60                     u2671:
  6032   00DE60  EF3C  F06F         	goto	l2692
  6033   00DE64                     u2670:
  6034   00DE64  1E14               	comf	(___aldiv@divisor+3)^(0+1280),f,c
  6035   00DE66  1E13               	comf	(___aldiv@divisor+2)^(0+1280),f,c
  6036   00DE68  1E12               	comf	(___aldiv@divisor+1)^(0+1280),f,c
  6037   00DE6A  6C11               	negf	___aldiv@divisor^(0+1280),c
  6038   00DE6C  0E00               	movlw	0
  6039   00DE6E  2212               	addwfc	(___aldiv@divisor+1)^(0+1280),f,c
  6040   00DE70  2213               	addwfc	(___aldiv@divisor+2)^(0+1280),f,c
  6041   00DE72  2214               	addwfc	(___aldiv@divisor+3)^(0+1280),f,c
  6042   00DE74  0E01               	movlw	1
  6043   00DE76  6E16               	movwf	___aldiv@sign^(0+1280),c
  6044   00DE78                     l2692:
  6045   00DE78  BE10               	btfsc	(___aldiv@dividend+3)^(0+1280),7,c
  6046   00DE7A  EF43  F06F         	goto	u2680
  6047   00DE7E  EF41  F06F         	goto	u2681
  6048   00DE82                     u2681:
  6049   00DE82  EF4D  F06F         	goto	l2698
  6050   00DE86                     u2680:
  6051   00DE86  1E10               	comf	(___aldiv@dividend+3)^(0+1280),f,c
  6052   00DE88  1E0F               	comf	(___aldiv@dividend+2)^(0+1280),f,c
  6053   00DE8A  1E0E               	comf	(___aldiv@dividend+1)^(0+1280),f,c
  6054   00DE8C  6C0D               	negf	___aldiv@dividend^(0+1280),c
  6055   00DE8E  0E00               	movlw	0
  6056   00DE90  220E               	addwfc	(___aldiv@dividend+1)^(0+1280),f,c
  6057   00DE92  220F               	addwfc	(___aldiv@dividend+2)^(0+1280),f,c
  6058   00DE94  2210               	addwfc	(___aldiv@dividend+3)^(0+1280),f,c
  6059   00DE96  0E01               	movlw	1
  6060   00DE98  1A16               	xorwf	___aldiv@sign^(0+1280),f,c
  6061   00DE9A                     l2698:
  6062   00DE9A  0E00               	movlw	0
  6063   00DE9C  6E17               	movwf	___aldiv@quotient^(0+1280),c
  6064   00DE9E  0E00               	movlw	0
  6065   00DEA0  6E18               	movwf	(___aldiv@quotient+1)^(0+1280),c
  6066   00DEA2  0E00               	movlw	0
  6067   00DEA4  6E19               	movwf	(___aldiv@quotient+2)^(0+1280),c
  6068   00DEA6  0E00               	movlw	0
  6069   00DEA8  6E1A               	movwf	(___aldiv@quotient+3)^(0+1280),c
  6070   00DEAA  5011               	movf	___aldiv@divisor^(0+1280),w,c
  6071   00DEAC  1012               	iorwf	(___aldiv@divisor+1)^(0+1280),w,c
  6072   00DEAE  1013               	iorwf	(___aldiv@divisor+2)^(0+1280),w,c
  6073   00DEB0  1014               	iorwf	(___aldiv@divisor+3)^(0+1280),w,c
  6074   00DEB2  B4D8               	btfsc	status,2,c
  6075   00DEB4  EF5E  F06F         	goto	u2691
  6076   00DEB8  EF60  F06F         	goto	u2690
  6077   00DEBC                     u2691:
  6078   00DEBC  EF96  F06F         	goto	l2720
  6079   00DEC0                     u2690:
  6080   00DEC0  0E01               	movlw	1
  6081   00DEC2  6E15               	movwf	___aldiv@counter^(0+1280),c
  6082   00DEC4  EF6A  F06F         	goto	l2706
  6083   00DEC8                     l2704:
  6084   00DEC8  90D8               	bcf	status,0,c
  6085   00DECA  3611               	rlcf	___aldiv@divisor^(0+1280),f,c
  6086   00DECC  3612               	rlcf	(___aldiv@divisor+1)^(0+1280),f,c
  6087   00DECE  3613               	rlcf	(___aldiv@divisor+2)^(0+1280),f,c
  6088   00DED0  3614               	rlcf	(___aldiv@divisor+3)^(0+1280),f,c
  6089   00DED2  2A15               	incf	___aldiv@counter^(0+1280),f,c
  6090   00DED4                     l2706:
  6091   00DED4  AE14               	btfss	(___aldiv@divisor+3)^(0+1280),7,c
  6092   00DED6  EF6F  F06F         	goto	u2701
  6093   00DEDA  EF71  F06F         	goto	u2700
  6094   00DEDE                     u2701:
  6095   00DEDE  EF64  F06F         	goto	l2704
  6096   00DEE2                     u2700:
  6097   00DEE2                     l2708:
  6098   00DEE2  90D8               	bcf	status,0,c
  6099   00DEE4  3617               	rlcf	___aldiv@quotient^(0+1280),f,c
  6100   00DEE6  3618               	rlcf	(___aldiv@quotient+1)^(0+1280),f,c
  6101   00DEE8  3619               	rlcf	(___aldiv@quotient+2)^(0+1280),f,c
  6102   00DEEA  361A               	rlcf	(___aldiv@quotient+3)^(0+1280),f,c
  6103   00DEEC  5011               	movf	___aldiv@divisor^(0+1280),w,c
  6104   00DEEE  5C0D               	subwf	___aldiv@dividend^(0+1280),w,c
  6105   00DEF0  5012               	movf	(___aldiv@divisor+1)^(0+1280),w,c
  6106   00DEF2  580E               	subwfb	(___aldiv@dividend+1)^(0+1280),w,c
  6107   00DEF4  5013               	movf	(___aldiv@divisor+2)^(0+1280),w,c
  6108   00DEF6  580F               	subwfb	(___aldiv@dividend+2)^(0+1280),w,c
  6109   00DEF8  5014               	movf	(___aldiv@divisor+3)^(0+1280),w,c
  6110   00DEFA  5810               	subwfb	(___aldiv@dividend+3)^(0+1280),w,c
  6111   00DEFC  A0D8               	btfss	status,0,c
  6112   00DEFE  EF83  F06F         	goto	u2711
  6113   00DF02  EF85  F06F         	goto	u2710
  6114   00DF06                     u2711:
  6115   00DF06  EF8E  F06F         	goto	l2716
  6116   00DF0A                     u2710:
  6117   00DF0A  5011               	movf	___aldiv@divisor^(0+1280),w,c
  6118   00DF0C  5E0D               	subwf	___aldiv@dividend^(0+1280),f,c
  6119   00DF0E  5012               	movf	(___aldiv@divisor+1)^(0+1280),w,c
  6120   00DF10  5A0E               	subwfb	(___aldiv@dividend+1)^(0+1280),f,c
  6121   00DF12  5013               	movf	(___aldiv@divisor+2)^(0+1280),w,c
  6122   00DF14  5A0F               	subwfb	(___aldiv@dividend+2)^(0+1280),f,c
  6123   00DF16  5014               	movf	(___aldiv@divisor+3)^(0+1280),w,c
  6124   00DF18  5A10               	subwfb	(___aldiv@dividend+3)^(0+1280),f,c
  6125   00DF1A  8017               	bsf	___aldiv@quotient^(0+1280),0,c
  6126   00DF1C                     l2716:
  6127   00DF1C  90D8               	bcf	status,0,c
  6128   00DF1E  3214               	rrcf	(___aldiv@divisor+3)^(0+1280),f,c
  6129   00DF20  3213               	rrcf	(___aldiv@divisor+2)^(0+1280),f,c
  6130   00DF22  3212               	rrcf	(___aldiv@divisor+1)^(0+1280),f,c
  6131   00DF24  3211               	rrcf	___aldiv@divisor^(0+1280),f,c
  6132   00DF26  2E15               	decfsz	___aldiv@counter^(0+1280),f,c
  6133   00DF28  EF71  F06F         	goto	l2708
  6134   00DF2C                     l2720:
  6135   00DF2C  5016               	movf	___aldiv@sign^(0+1280),w,c
  6136   00DF2E  B4D8               	btfsc	status,2,c
  6137   00DF30  EF9C  F06F         	goto	u2721
  6138   00DF34  EF9E  F06F         	goto	u2720
  6139   00DF38                     u2721:
  6140   00DF38  EFA6  F06F         	goto	l2724
  6141   00DF3C                     u2720:
  6142   00DF3C  1E1A               	comf	(___aldiv@quotient+3)^(0+1280),f,c
  6143   00DF3E  1E19               	comf	(___aldiv@quotient+2)^(0+1280),f,c
  6144   00DF40  1E18               	comf	(___aldiv@quotient+1)^(0+1280),f,c
  6145   00DF42  6C17               	negf	___aldiv@quotient^(0+1280),c
  6146   00DF44  0E00               	movlw	0
  6147   00DF46  2218               	addwfc	(___aldiv@quotient+1)^(0+1280),f,c
  6148   00DF48  2219               	addwfc	(___aldiv@quotient+2)^(0+1280),f,c
  6149   00DF4A  221A               	addwfc	(___aldiv@quotient+3)^(0+1280),f,c
  6150   00DF4C                     l2724:
  6151   00DF4C  C517  F50D         	movff	___aldiv@quotient,?___aldiv
  6152   00DF50  C518  F50E         	movff	___aldiv@quotient+1,?___aldiv+1
  6153   00DF54  C519  F50F         	movff	___aldiv@quotient+2,?___aldiv+2
  6154   00DF58  C51A  F510         	movff	___aldiv@quotient+3,?___aldiv+3
  6155   00DF5C  0012               	return		;funcret
  6156   00DF5E                     __end_of___aldiv:
  6157                           	callstack 0
  6158                           
  6159 ;; *************** function _SYSTEM_Initialize *****************
  6160 ;; Defined at:
  6161 ;;		line 50 in file "mcc_generated_files/mcc.c"
  6162 ;; Parameters:    Size  Location     Type
  6163 ;;		None
  6164 ;; Auto vars:     Size  Location     Type
  6165 ;;		None
  6166 ;; Return value:  Size  Location     Type
  6167 ;;                  1    wreg      void 
  6168 ;; Registers used:
  6169 ;;		wreg, status,2, cstack
  6170 ;; Tracked objects:
  6171 ;;		On entry : 0/0
  6172 ;;		On exit  : 0/0
  6173 ;;		Unchanged: 0/0
  6174 ;; Data sizes:     COMRAM   BANK5   BANK6   BANK7   BANK8   BANK9  BANK10  BANK11  BANK12  BANK13  BANK14  BANK15  BANK1
      +6  BANK17  BANK18  BANK19  BANK20  BANK21
  6175 ;;      Params:         0       0       0       0       0       0       0       0       0       0       0       0       
      +0       0       0       0       0       0
  6176 ;;      Locals:         0       0       0       0       0       0       0       0       0       0       0       0       
      +0       0       0       0       0       0
  6177 ;;      Temps:          0       0       0       0       0       0       0       0       0       0       0       0       
      +0       0       0       0       0       0
  6178 ;;      Totals:         0       0       0       0       0       0       0       0       0       0       0       0       
      +0       0       0       0       0       0
  6179 ;;Total ram usage:        0 bytes
  6180 ;; Hardware stack levels used: 1
  6181 ;; Hardware stack levels required when called: 1
  6182 ;; This function calls:
  6183 ;;		_ADCC_Initialize
  6184 ;;		_OSCILLATOR_Initialize
  6185 ;;		_PIN_MANAGER_Initialize
  6186 ;;		_PMD_Initialize
  6187 ;; This function is called by:
  6188 ;;		_main
  6189 ;; This function uses a non-reentrant model
  6190 ;;
  6191                           
  6192                           	psect	text4
  6193   00D9C0                     __ptext4:
  6194                           	callstack 0
  6195   00D9C0                     _SYSTEM_Initialize:
  6196                           	callstack 126
  6197   00D9C0                     
  6198                           ;mcc_generated_files/mcc.c: 52:     PMD_Initialize();
  6199   00D9C0  EC25  F06D         	call	_PMD_Initialize	;wreg free
  6200                           
  6201                           ;mcc_generated_files/mcc.c: 53:     PIN_MANAGER_Initialize();
  6202   00D9C4  EC72  F06D         	call	_PIN_MANAGER_Initialize	;wreg free
  6203                           
  6204                           ;mcc_generated_files/mcc.c: 54:     OSCILLATOR_Initialize();
  6205   00D9C8  EC17  F06D         	call	_OSCILLATOR_Initialize	;wreg free
  6206                           
  6207                           ;mcc_generated_files/mcc.c: 55:     ADCC_Initialize();
  6208   00D9CC  EC9C  F06D         	call	_ADCC_Initialize	;wreg free
  6209   00D9D0  0012               	return		;funcret
  6210   00D9D2                     __end_of_SYSTEM_Initialize:
  6211                           	callstack 0
  6212                           
  6213 ;; *************** function _PMD_Initialize *****************
  6214 ;; Defined at:
  6215 ;;		line 74 in file "mcc_generated_files/mcc.c"
  6216 ;; Parameters:    Size  Location     Type
  6217 ;;		None
  6218 ;; Auto vars:     Size  Location     Type
  6219 ;;		None
  6220 ;; Return value:  Size  Location     Type
  6221 ;;                  1    wreg      void 
  6222 ;; Registers used:
  6223 ;;		wreg, status,2
  6224 ;; Tracked objects:
  6225 ;;		On entry : 0/0
  6226 ;;		On exit  : 0/0
  6227 ;;		Unchanged: 0/0
  6228 ;; Data sizes:     COMRAM   BANK5   BANK6   BANK7   BANK8   BANK9  BANK10  BANK11  BANK12  BANK13  BANK14  BANK15  BANK1
      +6  BANK17  BANK18  BANK19  BANK20  BANK21
  6229 ;;      Params:         0       0       0       0       0       0       0       0       0       0       0       0       
      +0       0       0       0       0       0
  6230 ;;      Locals:         0       0       0       0       0       0       0       0       0       0       0       0       
      +0       0       0       0       0       0
  6231 ;;      Temps:          0       0       0       0       0       0       0       0       0       0       0       0       
      +0       0       0       0       0       0
  6232 ;;      Totals:         0       0       0       0       0       0       0       0       0       0       0       0       
      +0       0       0       0       0       0
  6233 ;;Total ram usage:        0 bytes
  6234 ;; Hardware stack levels used: 1
  6235 ;; This function calls:
  6236 ;;		Nothing
  6237 ;; This function is called by:
  6238 ;;		_SYSTEM_Initialize
  6239 ;; This function uses a non-reentrant model
  6240 ;;
  6241                           
  6242                           	psect	text5
  6243   00DA4A                     __ptext5:
  6244                           	callstack 0
  6245   00DA4A                     _PMD_Initialize:
  6246                           	callstack 126
  6247   00DA4A                     
  6248                           ;mcc_generated_files/mcc.c: 77:     PMD0 = 0x00;
  6249   00DA4A  0E00               	movlw	0
  6250   00DA4C  0100               	movlb	0	; () banked
  6251   00DA4E  6F63               	movwf	99,b	;volatile
  6252                           
  6253                           ;mcc_generated_files/mcc.c: 79:     PMD1 = 0x00;
  6254   00DA50  0E00               	movlw	0
  6255   00DA52  6F64               	movwf	100,b	;volatile
  6256                           
  6257                           ;mcc_generated_files/mcc.c: 81:     PMD2 = 0x00;
  6258   00DA54  0E00               	movlw	0
  6259   00DA56  6F65               	movwf	101,b	;volatile
  6260                           
  6261                           ;mcc_generated_files/mcc.c: 83:     PMD3 = 0x00;
  6262   00DA58  0E00               	movlw	0
  6263   00DA5A  6F66               	movwf	102,b	;volatile
  6264                           
  6265                           ;mcc_generated_files/mcc.c: 85:     PMD4 = 0x00;
  6266   00DA5C  0E00               	movlw	0
  6267   00DA5E  6F67               	movwf	103,b	;volatile
  6268                           
  6269                           ;mcc_generated_files/mcc.c: 87:     PMD5 = 0x00;
  6270   00DA60  0E00               	movlw	0
  6271   00DA62  6F68               	movwf	104,b	;volatile
  6272   00DA64                     
  6273                           ; BSR set to: 0
  6274   00DA64  0012               	return		;funcret
  6275   00DA66                     __end_of_PMD_Initialize:
  6276                           	callstack 0
  6277                           
  6278 ;; *************** function _PIN_MANAGER_Initialize *****************
  6279 ;; Defined at:
  6280 ;;		line 55 in file "mcc_generated_files/pin_manager.c"
  6281 ;; Parameters:    Size  Location     Type
  6282 ;;		None
  6283 ;; Auto vars:     Size  Location     Type
  6284 ;;		None
  6285 ;; Return value:  Size  Location     Type
  6286 ;;                  1    wreg      void 
  6287 ;; Registers used:
  6288 ;;		wreg, status,2
  6289 ;; Tracked objects:
  6290 ;;		On entry : 0/0
  6291 ;;		On exit  : 0/0
  6292 ;;		Unchanged: 0/0
  6293 ;; Data sizes:     COMRAM   BANK5   BANK6   BANK7   BANK8   BANK9  BANK10  BANK11  BANK12  BANK13  BANK14  BANK15  BANK1
      +6  BANK17  BANK18  BANK19  BANK20  BANK21
  6294 ;;      Params:         0       0       0       0       0       0       0       0       0       0       0       0       
      +0       0       0       0       0       0
  6295 ;;      Locals:         0       0       0       0       0       0       0       0       0       0       0       0       
      +0       0       0       0       0       0
  6296 ;;      Temps:          0       0       0       0       0       0       0       0       0       0       0       0       
      +0       0       0       0       0       0
  6297 ;;      Totals:         0       0       0       0       0       0       0       0       0       0       0       0       
      +0       0       0       0       0       0
  6298 ;;Total ram usage:        0 bytes
  6299 ;; Hardware stack levels used: 1
  6300 ;; This function calls:
  6301 ;;		Nothing
  6302 ;; This function is called by:
  6303 ;;		_SYSTEM_Initialize
  6304 ;; This function uses a non-reentrant model
  6305 ;;
  6306                           
  6307                           	psect	text6
  6308   00DAE4                     __ptext6:
  6309                           	callstack 0
  6310   00DAE4                     _PIN_MANAGER_Initialize:
  6311                           	callstack 126
  6312   00DAE4                     
  6313                           ;mcc_generated_files/pin_manager.c: 60:     LATA = 0x00;
  6314   00DAE4  0E00               	movlw	0
  6315   00DAE6  6EBE               	movwf	190,c	;volatile
  6316                           
  6317                           ;mcc_generated_files/pin_manager.c: 61:     LATB = 0x00;
  6318   00DAE8  0E00               	movlw	0
  6319   00DAEA  6EBF               	movwf	191,c	;volatile
  6320                           
  6321                           ;mcc_generated_files/pin_manager.c: 62:     LATC = 0x00;
  6322   00DAEC  0E00               	movlw	0
  6323   00DAEE  6EC0               	movwf	192,c	;volatile
  6324                           
  6325                           ;mcc_generated_files/pin_manager.c: 67:     TRISA = 0x1F;
  6326   00DAF0  0E1F               	movlw	31
  6327   00DAF2  6EC6               	movwf	198,c	;volatile
  6328                           
  6329                           ;mcc_generated_files/pin_manager.c: 68:     TRISB = 0xE0;
  6330   00DAF4  0EE0               	movlw	224
  6331   00DAF6  6EC7               	movwf	199,c	;volatile
  6332                           
  6333                           ;mcc_generated_files/pin_manager.c: 69:     TRISC = 0x57;
  6334   00DAF8  0E57               	movlw	87
  6335   00DAFA  6EC8               	movwf	200,c	;volatile
  6336                           
  6337                           ;mcc_generated_files/pin_manager.c: 74:     ANSELC = 0xAF;
  6338   00DAFC  0EAF               	movlw	175
  6339   00DAFE  0104               	movlb	4	; () banked
  6340   00DB00  6F10               	movwf	16,b	;volatile
  6341                           
  6342                           ;mcc_generated_files/pin_manager.c: 75:     ANSELB = 0x60;
  6343   00DB02  0E60               	movlw	96
  6344   00DB04  6F08               	movwf	8,b	;volatile
  6345                           
  6346                           ;mcc_generated_files/pin_manager.c: 76:     ANSELA = 0x27;
  6347   00DB06  0E27               	movlw	39
  6348   00DB08  6F00               	movwf	0,b	;volatile
  6349                           
  6350                           ;mcc_generated_files/pin_manager.c: 81:     WPUB = 0x80;
  6351   00DB0A  0E80               	movlw	128
  6352   00DB0C  6F09               	movwf	9,b	;volatile
  6353                           
  6354                           ;mcc_generated_files/pin_manager.c: 82:     WPUA = 0x10;
  6355   00DB0E  0E10               	movlw	16
  6356   00DB10  6F01               	movwf	1,b	;volatile
  6357                           
  6358                           ;mcc_generated_files/pin_manager.c: 83:     WPUC = 0x50;
  6359   00DB12  0E50               	movlw	80
  6360   00DB14  6F11               	movwf	17,b	;volatile
  6361                           
  6362                           ;mcc_generated_files/pin_manager.c: 88:     ODCONA = 0x00;
  6363   00DB16  0E00               	movlw	0
  6364   00DB18  6F02               	movwf	2,b	;volatile
  6365                           
  6366                           ;mcc_generated_files/pin_manager.c: 89:     ODCONB = 0x00;
  6367   00DB1A  0E00               	movlw	0
  6368   00DB1C  6F0A               	movwf	10,b	;volatile
  6369                           
  6370                           ;mcc_generated_files/pin_manager.c: 90:     ODCONC = 0x00;
  6371   00DB1E  0E00               	movlw	0
  6372   00DB20  6F12               	movwf	18,b	;volatile
  6373                           
  6374                           ;mcc_generated_files/pin_manager.c: 95:     SLRCONA = 0x37;
  6375   00DB22  0E37               	movlw	55
  6376   00DB24  6F03               	movwf	3,b	;volatile
  6377                           
  6378                           ;mcc_generated_files/pin_manager.c: 96:     SLRCONB = 0xF0;
  6379   00DB26  0EF0               	movlw	240
  6380   00DB28  6F0B               	movwf	11,b	;volatile
  6381   00DB2A                     
  6382                           ; BSR set to: 4
  6383                           ;mcc_generated_files/pin_manager.c: 97:     SLRCONC = 0xFF;
  6384   00DB2A  6913               	setf	19,b	;volatile
  6385                           
  6386                           ;mcc_generated_files/pin_manager.c: 102:     INLVLA = 0x3F;
  6387   00DB2C  0E3F               	movlw	63
  6388   00DB2E  6F04               	movwf	4,b	;volatile
  6389                           
  6390                           ;mcc_generated_files/pin_manager.c: 103:     INLVLB = 0xF0;
  6391   00DB30  0EF0               	movlw	240
  6392   00DB32  6F0C               	movwf	12,b	;volatile
  6393   00DB34                     
  6394                           ; BSR set to: 4
  6395                           ;mcc_generated_files/pin_manager.c: 104:     INLVLC = 0xFF;
  6396   00DB34  6914               	setf	20,b	;volatile
  6397   00DB36                     
  6398                           ; BSR set to: 4
  6399   00DB36  0012               	return		;funcret
  6400   00DB38                     __end_of_PIN_MANAGER_Initialize:
  6401                           	callstack 0
  6402                           
  6403 ;; *************** function _OSCILLATOR_Initialize *****************
  6404 ;; Defined at:
  6405 ;;		line 58 in file "mcc_generated_files/mcc.c"
  6406 ;; Parameters:    Size  Location     Type
  6407 ;;		None
  6408 ;; Auto vars:     Size  Location     Type
  6409 ;;		None
  6410 ;; Return value:  Size  Location     Type
  6411 ;;                  1    wreg      void 
  6412 ;; Registers used:
  6413 ;;		wreg, status,2
  6414 ;; Tracked objects:
  6415 ;;		On entry : 0/0
  6416 ;;		On exit  : 0/0
  6417 ;;		Unchanged: 0/0
  6418 ;; Data sizes:     COMRAM   BANK5   BANK6   BANK7   BANK8   BANK9  BANK10  BANK11  BANK12  BANK13  BANK14  BANK15  BANK1
      +6  BANK17  BANK18  BANK19  BANK20  BANK21
  6419 ;;      Params:         0       0       0       0       0       0       0       0       0       0       0       0       
      +0       0       0       0       0       0
  6420 ;;      Locals:         0       0       0       0       0       0       0       0       0       0       0       0       
      +0       0       0       0       0       0
  6421 ;;      Temps:          0       0       0       0       0       0       0       0       0       0       0       0       
      +0       0       0       0       0       0
  6422 ;;      Totals:         0       0       0       0       0       0       0       0       0       0       0       0       
      +0       0       0       0       0       0
  6423 ;;Total ram usage:        0 bytes
  6424 ;; Hardware stack levels used: 1
  6425 ;; This function calls:
  6426 ;;		Nothing
  6427 ;; This function is called by:
  6428 ;;		_SYSTEM_Initialize
  6429 ;; This function uses a non-reentrant model
  6430 ;;
  6431                           
  6432                           	psect	text7
  6433   00DA2E                     __ptext7:
  6434                           	callstack 0
  6435   00DA2E                     _OSCILLATOR_Initialize:
  6436                           	callstack 126
  6437   00DA2E                     
  6438                           ;mcc_generated_files/mcc.c: 61:     OSCCON1 = 0x60;
  6439   00DA2E  0E60               	movlw	96
  6440   00DA30  0100               	movlb	0	; () banked
  6441   00DA32  6FAD               	movwf	173,b	;volatile
  6442                           
  6443                           ;mcc_generated_files/mcc.c: 63:     OSCCON3 = 0x00;
  6444   00DA34  0E00               	movlw	0
  6445   00DA36  6FAF               	movwf	175,b	;volatile
  6446                           
  6447                           ;mcc_generated_files/mcc.c: 65:     OSCEN = 0x00;
  6448   00DA38  0E00               	movlw	0
  6449   00DA3A  6FB3               	movwf	179,b	;volatile
  6450                           
  6451                           ;mcc_generated_files/mcc.c: 67:     OSCFRQ = 0x08;
  6452   00DA3C  0E08               	movlw	8
  6453   00DA3E  6FB1               	movwf	177,b	;volatile
  6454                           
  6455                           ;mcc_generated_files/mcc.c: 69:     OSCTUNE = 0x00;
  6456   00DA40  0E00               	movlw	0
  6457   00DA42  6FB0               	movwf	176,b	;volatile
  6458                           
  6459                           ;mcc_generated_files/mcc.c: 71:     ACTCON = 0x00;
  6460   00DA44  0E00               	movlw	0
  6461   00DA46  6FAC               	movwf	172,b	;volatile
  6462   00DA48                     
  6463                           ; BSR set to: 0
  6464   00DA48  0012               	return		;funcret
  6465   00DA4A                     __end_of_OSCILLATOR_Initialize:
  6466                           	callstack 0
  6467                           
  6468 ;; *************** function _ADCC_Initialize *****************
  6469 ;; Defined at:
  6470 ;;		line 62 in file "mcc_generated_files/adcc.c"
  6471 ;; Parameters:    Size  Location     Type
  6472 ;;		None
  6473 ;; Auto vars:     Size  Location     Type
  6474 ;;		None
  6475 ;; Return value:  Size  Location     Type
  6476 ;;                  1    wreg      void 
  6477 ;; Registers used:
  6478 ;;		wreg, status,2
  6479 ;; Tracked objects:
  6480 ;;		On entry : 0/0
  6481 ;;		On exit  : 0/0
  6482 ;;		Unchanged: 0/0
  6483 ;; Data sizes:     COMRAM   BANK5   BANK6   BANK7   BANK8   BANK9  BANK10  BANK11  BANK12  BANK13  BANK14  BANK15  BANK1
      +6  BANK17  BANK18  BANK19  BANK20  BANK21
  6484 ;;      Params:         0       0       0       0       0       0       0       0       0       0       0       0       
      +0       0       0       0       0       0
  6485 ;;      Locals:         0       0       0       0       0       0       0       0       0       0       0       0       
      +0       0       0       0       0       0
  6486 ;;      Temps:          0       0       0       0       0       0       0       0       0       0       0       0       
      +0       0       0       0       0       0
  6487 ;;      Totals:         0       0       0       0       0       0       0       0       0       0       0       0       
      +0       0       0       0       0       0
  6488 ;;Total ram usage:        0 bytes
  6489 ;; Hardware stack levels used: 1
  6490 ;; This function calls:
  6491 ;;		Nothing
  6492 ;; This function is called by:
  6493 ;;		_SYSTEM_Initialize
  6494 ;; This function uses a non-reentrant model
  6495 ;;
  6496                           
  6497                           	psect	text8
  6498   00DB38                     __ptext8:
  6499                           	callstack 0
  6500   00DB38                     _ADCC_Initialize:
  6501                           	callstack 126
  6502   00DB38                     
  6503                           ;mcc_generated_files/adcc.c: 66:     ADLTHL = 0x00;
  6504   00DB38  0E00               	movlw	0
  6505   00DB3A  0103               	movlb	3	; () banked
  6506   00DB3C  6FD9               	movwf	217,b	;volatile
  6507                           
  6508                           ;mcc_generated_files/adcc.c: 68:     ADLTHH = 0x00;
  6509   00DB3E  0E00               	movlw	0
  6510   00DB40  6FDA               	movwf	218,b	;volatile
  6511                           
  6512                           ;mcc_generated_files/adcc.c: 70:     ADUTHL = 0x00;
  6513   00DB42  0E00               	movlw	0
  6514   00DB44  6FDB               	movwf	219,b	;volatile
  6515                           
  6516                           ;mcc_generated_files/adcc.c: 72:     ADUTHH = 0x00;
  6517   00DB46  0E00               	movlw	0
  6518   00DB48  6FDC               	movwf	220,b	;volatile
  6519                           
  6520                           ;mcc_generated_files/adcc.c: 74:     ADSTPTL = 0x00;
  6521   00DB4A  0E00               	movlw	0
  6522   00DB4C  6FDF               	movwf	223,b	;volatile
  6523                           
  6524                           ;mcc_generated_files/adcc.c: 76:     ADSTPTH = 0x00;
  6525   00DB4E  0E00               	movlw	0
  6526   00DB50  6FE0               	movwf	224,b	;volatile
  6527                           
  6528                           ;mcc_generated_files/adcc.c: 78:     ADACCU = 0x00;
  6529   00DB52  0E00               	movlw	0
  6530   00DB54  6FE5               	movwf	229,b	;volatile
  6531                           
  6532                           ;mcc_generated_files/adcc.c: 80:     ADRPT = 0x00;
  6533   00DB56  0E00               	movlw	0
  6534   00DB58  6FE7               	movwf	231,b	;volatile
  6535                           
  6536                           ;mcc_generated_files/adcc.c: 82:     ADPCH = 0x00;
  6537   00DB5A  0E00               	movlw	0
  6538   00DB5C  6FEC               	movwf	236,b	;volatile
  6539                           
  6540                           ;mcc_generated_files/adcc.c: 84:     ADACQL = 0x00;
  6541   00DB5E  0E00               	movlw	0
  6542   00DB60  6FEE               	movwf	238,b	;volatile
  6543                           
  6544                           ;mcc_generated_files/adcc.c: 86:     ADACQH = 0x00;
  6545   00DB62  0E00               	movlw	0
  6546   00DB64  6FEF               	movwf	239,b	;volatile
  6547                           
  6548                           ;mcc_generated_files/adcc.c: 88:     ADCAP = 0x00;
  6549   00DB66  0E00               	movlw	0
  6550   00DB68  6FF0               	movwf	240,b	;volatile
  6551                           
  6552                           ;mcc_generated_files/adcc.c: 90:     ADPREL = 0x00;
  6553   00DB6A  0E00               	movlw	0
  6554   00DB6C  6FF1               	movwf	241,b	;volatile
  6555                           
  6556                           ;mcc_generated_files/adcc.c: 92:     ADPREH = 0x00;
  6557   00DB6E  0E00               	movlw	0
  6558   00DB70  6FF2               	movwf	242,b	;volatile
  6559                           
  6560                           ;mcc_generated_files/adcc.c: 94:     ADCON1 = 0x00;
  6561   00DB72  0E00               	movlw	0
  6562   00DB74  6FF4               	movwf	244,b	;volatile
  6563                           
  6564                           ;mcc_generated_files/adcc.c: 96:     ADCON2 = 0x10;
  6565   00DB76  0E10               	movlw	16
  6566   00DB78  6FF5               	movwf	245,b	;volatile
  6567                           
  6568                           ;mcc_generated_files/adcc.c: 98:     ADCON3 = 0x00;
  6569   00DB7A  0E00               	movlw	0
  6570   00DB7C  6FF6               	movwf	246,b	;volatile
  6571                           
  6572                           ;mcc_generated_files/adcc.c: 100:     ADSTAT = 0x00;
  6573   00DB7E  0E00               	movlw	0
  6574   00DB80  6FF7               	movwf	247,b	;volatile
  6575                           
  6576                           ;mcc_generated_files/adcc.c: 102:     ADREF = 0x00;
  6577   00DB82  0E00               	movlw	0
  6578   00DB84  6FF8               	movwf	248,b	;volatile
  6579                           
  6580                           ;mcc_generated_files/adcc.c: 104:     ADACT = 0x00;
  6581   00DB86  0E00               	movlw	0
  6582   00DB88  6FF9               	movwf	249,b	;volatile
  6583                           
  6584                           ;mcc_generated_files/adcc.c: 106:     ADCLK = 0x1F;
  6585   00DB8A  0E1F               	movlw	31
  6586   00DB8C  6FFA               	movwf	250,b	;volatile
  6587                           
  6588                           ;mcc_generated_files/adcc.c: 108:     ADCON0 = 0x84;
  6589   00DB8E  0E84               	movlw	132
  6590   00DB90  6FF3               	movwf	243,b	;volatile
  6591   00DB92                     
  6592                           ; BSR set to: 3
  6593   00DB92  0012               	return		;funcret
  6594   00DB94                     __end_of_ADCC_Initialize:
  6595                           	callstack 0
  6596                           
  6597 ;; *************** function _LED_WriteFull *****************
  6598 ;; Defined at:
  6599 ;;		line 76 in file "DivFunctions.c"
  6600 ;; Parameters:    Size  Location     Type
  6601 ;;  red             1    wreg     unsigned char 
  6602 ;;  green           1   10[COMRAM] unsigned char 
  6603 ;;  blue            1   11[COMRAM] unsigned char 
  6604 ;;  ledcount        3   12[COMRAM] unsigned um
  6605 ;; Auto vars:     Size  Location     Type
  6606 ;;  red             1   15[COMRAM] unsigned char 
  6607 ;;  i               1   19[COMRAM] unsigned char 
  6608 ;;  x               3   16[COMRAM] unsigned um
  6609 ;; Return value:  Size  Location     Type
  6610 ;;                  1    wreg      void 
  6611 ;; Registers used:
  6612 ;;		wreg, status,2, status,0, cstack
  6613 ;; Tracked objects:
  6614 ;;		On entry : 0/0
  6615 ;;		On exit  : 0/0
  6616 ;;		Unchanged: 0/0
  6617 ;; Data sizes:     COMRAM   BANK5   BANK6   BANK7   BANK8   BANK9  BANK10  BANK11  BANK12  BANK13  BANK14  BANK15  BANK1
      +6  BANK17  BANK18  BANK19  BANK20  BANK21
  6618 ;;      Params:         5       0       0       0       0       0       0       0       0       0       0       0       
      +0       0       0       0       0       0
  6619 ;;      Locals:         5       0       0       0       0       0       0       0       0       0       0       0       
      +0       0       0       0       0       0
  6620 ;;      Temps:          0       0       0       0       0       0       0       0       0       0       0       0       
      +0       0       0       0       0       0
  6621 ;;      Totals:        10       0       0       0       0       0       0       0       0       0       0       0       
      +0       0       0       0       0       0
  6622 ;;Total ram usage:       10 bytes
  6623 ;; Hardware stack levels used: 1
  6624 ;; Hardware stack levels required when called: 3
  6625 ;; This function calls:
  6626 ;;		_WS2812B_Write
  6627 ;;		___ltdiv
  6628 ;; This function is called by:
  6629 ;;		_main
  6630 ;; This function uses a non-reentrant model
  6631 ;;
  6632                           
  6633                           	psect	text9
  6634   00DBFE                     __ptext9:
  6635                           	callstack 0
  6636   00DBFE                     _LED_WriteFull:
  6637                           	callstack 124
  6638                           
  6639                           ; BSR set to: 3
  6640                           ;incstack = 0
  6641                           ;LED_WriteFull@red stored from wreg
  6642   00DBFE  6E10               	movwf	LED_WriteFull@red^(0+1280),c
  6643   00DC00                     
  6644                           ;DivFunctions.c: 76: void LED_WriteFull(uint8_t red, uint8_t green, uint8_t blue, uint24
      +                          _t ledcount);DivFunctions.c: 77: {;DivFunctions.c: 78:     for(uint24_t x = 0; x <= (led
      +                          count/20); x++)
  6645   00DC00  0E00               	movlw	0
  6646   00DC02  6E11               	movwf	LED_WriteFull@x^(0+1280),c
  6647   00DC04  0E00               	movlw	0
  6648   00DC06  6E12               	movwf	(LED_WriteFull@x+1)^(0+1280),c
  6649   00DC08  0E00               	movlw	0
  6650   00DC0A  6E13               	movwf	(LED_WriteFull@x+2)^(0+1280),c
  6651   00DC0C  EF20  F06E         	goto	l2812
  6652   00DC10                     l2800:
  6653                           
  6654                           ;DivFunctions.c: 79:     {;DivFunctions.c: 80:         for(uint8_t i=0; i <= 20; i++)
  6655   00DC10  0E00               	movlw	0
  6656   00DC12  6E14               	movwf	LED_WriteFull@i^(0+1280),c
  6657   00DC14                     l2806:
  6658                           
  6659                           ;DivFunctions.c: 81:         {;DivFunctions.c: 82:             WS2812B_Write(red, green,
      +                           blue);
  6660   00DC14  C50B  F502         	movff	LED_WriteFull@green,WS2812B_Write@G
  6661   00DC18  C50C  F503         	movff	LED_WriteFull@blue,WS2812B_Write@B
  6662   00DC1C  5010               	movf	LED_WriteFull@red^(0+1280),w,c
  6663   00DC1E  ECF2  F06C         	call	_WS2812B_Write
  6664   00DC22                     
  6665                           ;DivFunctions.c: 83:         }
  6666   00DC22  2A14               	incf	LED_WriteFull@i^(0+1280),f,c
  6667   00DC24  0E14               	movlw	20
  6668   00DC26  6414               	cpfsgt	LED_WriteFull@i^(0+1280),c
  6669   00DC28  EF18  F06E         	goto	u2791
  6670   00DC2C  EF1A  F06E         	goto	u2790
  6671   00DC30                     u2791:
  6672   00DC30  EF0A  F06E         	goto	l2806
  6673   00DC34                     u2790:
  6674   00DC34                     
  6675                           ;DivFunctions.c: 85:     }
  6676   00DC34  0E01               	movlw	1
  6677   00DC36  2611               	addwf	LED_WriteFull@x^(0+1280),f,c
  6678   00DC38  0E00               	movlw	0
  6679   00DC3A  2212               	addwfc	(LED_WriteFull@x+1)^(0+1280),f,c
  6680   00DC3C  0E00               	movlw	0
  6681   00DC3E  2213               	addwfc	(LED_WriteFull@x+2)^(0+1280),f,c
  6682   00DC40                     l2812:
  6683   00DC40  C50D  F501         	movff	LED_WriteFull@ledcount,___ltdiv@dividend
  6684   00DC44  C50E  F502         	movff	LED_WriteFull@ledcount+1,___ltdiv@dividend+1
  6685   00DC48  C50F  F503         	movff	LED_WriteFull@ledcount+2,___ltdiv@dividend+2
  6686   00DC4C  0E14               	movlw	20
  6687   00DC4E  6E04               	movwf	___ltdiv@divisor^(0+1280),c
  6688   00DC50  0E00               	movlw	0
  6689   00DC52  6E05               	movwf	(___ltdiv@divisor+1)^(0+1280),c
  6690   00DC54  0E00               	movlw	0
  6691   00DC56  6E06               	movwf	(___ltdiv@divisor+2)^(0+1280),c
  6692   00DC58  EC79  F06E         	call	___ltdiv	;wreg free
  6693   00DC5C  5011               	movf	LED_WriteFull@x^(0+1280),w,c
  6694   00DC5E  5C01               	subwf	?___ltdiv^(0+1280),w,c
  6695   00DC60  5012               	movf	(LED_WriteFull@x+1)^(0+1280),w,c
  6696   00DC62  5802               	subwfb	(?___ltdiv+1)^(0+1280),w,c
  6697   00DC64  5013               	movf	(LED_WriteFull@x+2)^(0+1280),w,c
  6698   00DC66  5803               	subwfb	(?___ltdiv+2)^(0+1280),w,c
  6699   00DC68  B0D8               	btfsc	status,0,c
  6700   00DC6A  EF39  F06E         	goto	u2801
  6701   00DC6E  EF3B  F06E         	goto	u2800
  6702   00DC72                     u2801:
  6703   00DC72  EF08  F06E         	goto	l2800
  6704   00DC76                     u2800:
  6705   00DC76  0012               	return		;funcret
  6706   00DC78                     __end_of_LED_WriteFull:
  6707                           	callstack 0
  6708                           
  6709 ;; *************** function ___ltdiv *****************
  6710 ;; Defined at:
  6711 ;;		line 7 in file "C:\Program Files\Microchip\xc8\v2.40\pic\sources\c99\common\ltdiv.c"
  6712 ;; Parameters:    Size  Location     Type
  6713 ;;  dividend        3    0[COMRAM] unsigned um
  6714 ;;  divisor         3    3[COMRAM] unsigned um
  6715 ;; Auto vars:     Size  Location     Type
  6716 ;;  quotient        3    6[COMRAM] unsigned um
  6717 ;;  counter         1    9[COMRAM] unsigned char 
  6718 ;; Return value:  Size  Location     Type
  6719 ;;                  3    0[COMRAM] unsigned um
  6720 ;; Registers used:
  6721 ;;		wreg, status,2, status,0
  6722 ;; Tracked objects:
  6723 ;;		On entry : 0/0
  6724 ;;		On exit  : 0/0
  6725 ;;		Unchanged: 0/0
  6726 ;; Data sizes:     COMRAM   BANK5   BANK6   BANK7   BANK8   BANK9  BANK10  BANK11  BANK12  BANK13  BANK14  BANK15  BANK1
      +6  BANK17  BANK18  BANK19  BANK20  BANK21
  6727 ;;      Params:         6       0       0       0       0       0       0       0       0       0       0       0       
      +0       0       0       0       0       0
  6728 ;;      Locals:         4       0       0       0       0       0       0       0       0       0       0       0       
      +0       0       0       0       0       0
  6729 ;;      Temps:          0       0       0       0       0       0       0       0       0       0       0       0       
      +0       0       0       0       0       0
  6730 ;;      Totals:        10       0       0       0       0       0       0       0       0       0       0       0       
      +0       0       0       0       0       0
  6731 ;;Total ram usage:       10 bytes
  6732 ;; Hardware stack levels used: 1
  6733 ;; This function calls:
  6734 ;;		Nothing
  6735 ;; This function is called by:
  6736 ;;		_LED_WriteFull
  6737 ;; This function uses a non-reentrant model
  6738 ;;
  6739                           
  6740                           	psect	text10
  6741   00DCF2                     __ptext10:
  6742                           	callstack 0
  6743   00DCF2                     ___ltdiv:
  6744                           	callstack 126
  6745   00DCF2  0E00               	movlw	0
  6746   00DCF4  6E07               	movwf	___ltdiv@quotient^(0+1280),c
  6747   00DCF6  0E00               	movlw	0
  6748   00DCF8  6E08               	movwf	(___ltdiv@quotient+1)^(0+1280),c
  6749   00DCFA  0E00               	movlw	0
  6750   00DCFC  6E09               	movwf	(___ltdiv@quotient+2)^(0+1280),c
  6751   00DCFE  5004               	movf	___ltdiv@divisor^(0+1280),w,c
  6752   00DD00  1005               	iorwf	(___ltdiv@divisor+1)^(0+1280),w,c
  6753   00DD02  1006               	iorwf	(___ltdiv@divisor+2)^(0+1280),w,c
  6754   00DD04  B4D8               	btfsc	status,2,c
  6755   00DD06  EF87  F06E         	goto	u2731
  6756   00DD0A  EF89  F06E         	goto	u2730
  6757   00DD0E                     u2731:
  6758   00DD0E  EFB8  F06E         	goto	l1017
  6759   00DD12                     u2730:
  6760   00DD12  0E01               	movlw	1
  6761   00DD14  6E0A               	movwf	___ltdiv@counter^(0+1280),c
  6762   00DD16  EF92  F06E         	goto	l2736
  6763   00DD1A                     l2734:
  6764   00DD1A  90D8               	bcf	status,0,c
  6765   00DD1C  3604               	rlcf	___ltdiv@divisor^(0+1280),f,c
  6766   00DD1E  3605               	rlcf	(___ltdiv@divisor+1)^(0+1280),f,c
  6767   00DD20  3606               	rlcf	(___ltdiv@divisor+2)^(0+1280),f,c
  6768   00DD22  2A0A               	incf	___ltdiv@counter^(0+1280),f,c
  6769   00DD24                     l2736:
  6770   00DD24  AE06               	btfss	(___ltdiv@divisor+2)^(0+1280),7,c
  6771   00DD26  EF97  F06E         	goto	u2741
  6772   00DD2A  EF99  F06E         	goto	u2740
  6773   00DD2E                     u2741:
  6774   00DD2E  EF8D  F06E         	goto	l2734
  6775   00DD32                     u2740:
  6776   00DD32                     l2738:
  6777   00DD32  90D8               	bcf	status,0,c
  6778   00DD34  3607               	rlcf	___ltdiv@quotient^(0+1280),f,c
  6779   00DD36  3608               	rlcf	(___ltdiv@quotient+1)^(0+1280),f,c
  6780   00DD38  3609               	rlcf	(___ltdiv@quotient+2)^(0+1280),f,c
  6781   00DD3A  5004               	movf	___ltdiv@divisor^(0+1280),w,c
  6782   00DD3C  5C01               	subwf	___ltdiv@dividend^(0+1280),w,c
  6783   00DD3E  5005               	movf	(___ltdiv@divisor+1)^(0+1280),w,c
  6784   00DD40  5802               	subwfb	(___ltdiv@dividend+1)^(0+1280),w,c
  6785   00DD42  5006               	movf	(___ltdiv@divisor+2)^(0+1280),w,c
  6786   00DD44  5803               	subwfb	(___ltdiv@dividend+2)^(0+1280),w,c
  6787   00DD46  A0D8               	btfss	status,0,c
  6788   00DD48  EFA8  F06E         	goto	u2751
  6789   00DD4C  EFAA  F06E         	goto	u2750
  6790   00DD50                     u2751:
  6791   00DD50  EFB1  F06E         	goto	l1022
  6792   00DD54                     u2750:
  6793   00DD54  5004               	movf	___ltdiv@divisor^(0+1280),w,c
  6794   00DD56  5E01               	subwf	___ltdiv@dividend^(0+1280),f,c
  6795   00DD58  5005               	movf	(___ltdiv@divisor+1)^(0+1280),w,c
  6796   00DD5A  5A02               	subwfb	(___ltdiv@dividend+1)^(0+1280),f,c
  6797   00DD5C  5006               	movf	(___ltdiv@divisor+2)^(0+1280),w,c
  6798   00DD5E  5A03               	subwfb	(___ltdiv@dividend+2)^(0+1280),f,c
  6799   00DD60  8007               	bsf	___ltdiv@quotient^(0+1280),0,c
  6800   00DD62                     l1022:
  6801   00DD62  90D8               	bcf	status,0,c
  6802   00DD64  3206               	rrcf	(___ltdiv@divisor+2)^(0+1280),f,c
  6803   00DD66  3205               	rrcf	(___ltdiv@divisor+1)^(0+1280),f,c
  6804   00DD68  3204               	rrcf	___ltdiv@divisor^(0+1280),f,c
  6805   00DD6A  2E0A               	decfsz	___ltdiv@counter^(0+1280),f,c
  6806   00DD6C  EF99  F06E         	goto	l2738
  6807   00DD70                     l1017:
  6808   00DD70  C507  F501         	movff	___ltdiv@quotient,?___ltdiv
  6809   00DD74  C508  F502         	movff	___ltdiv@quotient+1,?___ltdiv+1
  6810   00DD78  C509  F503         	movff	___ltdiv@quotient+2,?___ltdiv+2
  6811   00DD7C  0012               	return		;funcret
  6812   00DD7E                     __end_of___ltdiv:
  6813                           	callstack 0
  6814                           
  6815 ;; *************** function _WS2812B_Write *****************
  6816 ;; Defined at:
  6817 ;;		line 3 in file "DivFunctions.c"
  6818 ;; Parameters:    Size  Location     Type
  6819 ;;  R               1    wreg     unsigned char 
  6820 ;;  G               1    1[COMRAM] unsigned char 
  6821 ;;  B               1    2[COMRAM] unsigned char 
  6822 ;; Auto vars:     Size  Location     Type
  6823 ;;  R               1    3[COMRAM] unsigned char 
  6824 ;; Return value:  Size  Location     Type
  6825 ;;                  1    wreg      void 
  6826 ;; Registers used:
  6827 ;;		wreg, status,2, cstack
  6828 ;; Tracked objects:
  6829 ;;		On entry : 0/0
  6830 ;;		On exit  : 0/0
  6831 ;;		Unchanged: 0/0
  6832 ;; Data sizes:     COMRAM   BANK5   BANK6   BANK7   BANK8   BANK9  BANK10  BANK11  BANK12  BANK13  BANK14  BANK15  BANK1
      +6  BANK17  BANK18  BANK19  BANK20  BANK21
  6833 ;;      Params:         2       0       0       0       0       0       0       0       0       0       0       0       
      +0       0       0       0       0       0
  6834 ;;      Locals:         1       0       0       0       0       0       0       0       0       0       0       0       
      +0       0       0       0       0       0
  6835 ;;      Temps:          0       0       0       0       0       0       0       0       0       0       0       0       
      +0       0       0       0       0       0
  6836 ;;      Totals:         3       0       0       0       0       0       0       0       0       0       0       0       
      +0       0       0       0       0       0
  6837 ;;Total ram usage:        3 bytes
  6838 ;; Hardware stack levels used: 1
  6839 ;; Hardware stack levels required when called: 2
  6840 ;; This function calls:
  6841 ;;		_ws_send_byte
  6842 ;; This function is called by:
  6843 ;;		_LED_WriteFull
  6844 ;; This function uses a non-reentrant model
  6845 ;;
  6846                           
  6847                           	psect	text11
  6848   00D9E4                     __ptext11:
  6849                           	callstack 0
  6850   00D9E4                     _WS2812B_Write:
  6851                           	callstack 124
  6852                           
  6853                           ;incstack = 0
  6854                           ;WS2812B_Write@R stored from wreg
  6855   00D9E4  6E04               	movwf	WS2812B_Write@R^(0+1280),c
  6856   00D9E6                     
  6857                           ;DivFunctions.c: 3: void WS2812B_Write(uint8_t R, uint8_t G, uint8_t B);DivFunctions.c: 
      +                          4: {;DivFunctions.c: 5:     ws_send_byte(G);
  6858   00D9E6  5002               	movf	WS2812B_Write@G^(0+1280),w,c
  6859   00D9E8  ECBF  F06E         	call	_ws_send_byte
  6860                           
  6861                           ;DivFunctions.c: 6:     ws_send_byte(R);
  6862   00D9EC  5004               	movf	WS2812B_Write@R^(0+1280),w,c
  6863   00D9EE  ECBF  F06E         	call	_ws_send_byte
  6864                           
  6865                           ;DivFunctions.c: 7:     ws_send_byte(B);
  6866   00D9F2  5003               	movf	WS2812B_Write@B^(0+1280),w,c
  6867   00D9F4  ECBF  F06E         	call	_ws_send_byte
  6868   00D9F8  0012               	return		;funcret
  6869   00D9FA                     __end_of_WS2812B_Write:
  6870                           	callstack 0
  6871                           
  6872 ;; *************** function _ws_send_byte *****************
  6873 ;; Defined at:
  6874 ;;		line 49 in file "DivFunctions.c"
  6875 ;; Parameters:    Size  Location     Type
  6876 ;;  K               1    wreg     unsigned char 
  6877 ;; Auto vars:     Size  Location     Type
  6878 ;;  K               1    0[COMRAM] unsigned char 
  6879 ;; Return value:  Size  Location     Type
  6880 ;;                  1    wreg      void 
  6881 ;; Registers used:
  6882 ;;		wreg, cstack
  6883 ;; Tracked objects:
  6884 ;;		On entry : 0/0
  6885 ;;		On exit  : 0/0
  6886 ;;		Unchanged: 0/0
  6887 ;; Data sizes:     COMRAM   BANK5   BANK6   BANK7   BANK8   BANK9  BANK10  BANK11  BANK12  BANK13  BANK14  BANK15  BANK1
      +6  BANK17  BANK18  BANK19  BANK20  BANK21
  6888 ;;      Params:         0       0       0       0       0       0       0       0       0       0       0       0       
      +0       0       0       0       0       0
  6889 ;;      Locals:         1       0       0       0       0       0       0       0       0       0       0       0       
      +0       0       0       0       0       0
  6890 ;;      Temps:          0       0       0       0       0       0       0       0       0       0       0       0       
      +0       0       0       0       0       0
  6891 ;;      Totals:         1       0       0       0       0       0       0       0       0       0       0       0       
      +0       0       0       0       0       0
  6892 ;;Total ram usage:        1 bytes
  6893 ;; Hardware stack levels used: 1
  6894 ;; Hardware stack levels required when called: 1
  6895 ;; This function calls:
  6896 ;;		_onePulse
  6897 ;;		_zeroPulse
  6898 ;; This function is called by:
  6899 ;;		_WS2812B_Write
  6900 ;; This function uses a non-reentrant model
  6901 ;;
  6902                           
  6903                           	psect	text12
  6904   00DD7E                     __ptext12:
  6905                           	callstack 0
  6906   00DD7E                     _ws_send_byte:
  6907                           	callstack 124
  6908                           
  6909                           ;incstack = 0
  6910                           ;ws_send_byte@K stored from wreg
  6911   00DD7E  6E01               	movwf	ws_send_byte@K^(0+1280),c
  6912   00DD80                     
  6913                           ;DivFunctions.c: 49: void ws_send_byte(uint8_t K);DivFunctions.c: 50: {;DivFunctions.c: 
      +                          51:     if(K & 0b10000000) {onePulse();}
  6914   00DD80  AE01               	btfss	ws_send_byte@K^(0+1280),7,c
  6915   00DD82  EFC5  F06E         	goto	u2571
  6916   00DD86  EFC7  F06E         	goto	u2570
  6917   00DD8A                     u2571:
  6918   00DD8A  EFCB  F06E         	goto	l2616
  6919   00DD8E                     u2570:
  6920   00DD8E  EC09  F06D         	call	_onePulse	;wreg free
  6921   00DD92  EFCD  F06E         	goto	l2618
  6922   00DD96                     l2616:
  6923   00DD96  ECDA  F06C         	call	_zeroPulse	;wreg free
  6924   00DD9A                     l2618:
  6925                           
  6926                           ;DivFunctions.c: 54:     if(K & 0b01000000) {onePulse();}
  6927   00DD9A  AC01               	btfss	ws_send_byte@K^(0+1280),6,c
  6928   00DD9C  EFD2  F06E         	goto	u2581
  6929   00DDA0  EFD4  F06E         	goto	u2580
  6930   00DDA4                     u2581:
  6931   00DDA4  EFD8  F06E         	goto	l2622
  6932   00DDA8                     u2580:
  6933   00DDA8  EC09  F06D         	call	_onePulse	;wreg free
  6934   00DDAC  EFDA  F06E         	goto	l2624
  6935   00DDB0                     l2622:
  6936   00DDB0  ECDA  F06C         	call	_zeroPulse	;wreg free
  6937   00DDB4                     l2624:
  6938                           
  6939                           ;DivFunctions.c: 57:     if(K & 0b00100000) {onePulse();}
  6940   00DDB4  AA01               	btfss	ws_send_byte@K^(0+1280),5,c
  6941   00DDB6  EFDF  F06E         	goto	u2591
  6942   00DDBA  EFE1  F06E         	goto	u2590
  6943   00DDBE                     u2591:
  6944   00DDBE  EFE5  F06E         	goto	l2628
  6945   00DDC2                     u2590:
  6946   00DDC2  EC09  F06D         	call	_onePulse	;wreg free
  6947   00DDC6  EFE7  F06E         	goto	l2630
  6948   00DDCA                     l2628:
  6949   00DDCA  ECDA  F06C         	call	_zeroPulse	;wreg free
  6950   00DDCE                     l2630:
  6951                           
  6952                           ;DivFunctions.c: 60:     if(K & 0b00010000) {onePulse();}
  6953   00DDCE  A801               	btfss	ws_send_byte@K^(0+1280),4,c
  6954   00DDD0  EFEC  F06E         	goto	u2601
  6955   00DDD4  EFEE  F06E         	goto	u2600
  6956   00DDD8                     u2601:
  6957   00DDD8  EFF2  F06E         	goto	l2634
  6958   00DDDC                     u2600:
  6959   00DDDC  EC09  F06D         	call	_onePulse	;wreg free
  6960   00DDE0  EFF4  F06E         	goto	l2636
  6961   00DDE4                     l2634:
  6962   00DDE4  ECDA  F06C         	call	_zeroPulse	;wreg free
  6963   00DDE8                     l2636:
  6964                           
  6965                           ;DivFunctions.c: 63:     if(K & 0b00001000) {onePulse();}
  6966   00DDE8  A601               	btfss	ws_send_byte@K^(0+1280),3,c
  6967   00DDEA  EFF9  F06E         	goto	u2611
  6968   00DDEE  EFFB  F06E         	goto	u2610
  6969   00DDF2                     u2611:
  6970   00DDF2  EFFF  F06E         	goto	l2640
  6971   00DDF6                     u2610:
  6972   00DDF6  EC09  F06D         	call	_onePulse	;wreg free
  6973   00DDFA  EF01  F06F         	goto	l2642
  6974   00DDFE                     l2640:
  6975   00DDFE  ECDA  F06C         	call	_zeroPulse	;wreg free
  6976   00DE02                     l2642:
  6977                           
  6978                           ;DivFunctions.c: 66:     if(K & 0b00000100) {onePulse();}
  6979   00DE02  A401               	btfss	ws_send_byte@K^(0+1280),2,c
  6980   00DE04  EF06  F06F         	goto	u2621
  6981   00DE08  EF08  F06F         	goto	u2620
  6982   00DE0C                     u2621:
  6983   00DE0C  EF0C  F06F         	goto	l2646
  6984   00DE10                     u2620:
  6985   00DE10  EC09  F06D         	call	_onePulse	;wreg free
  6986   00DE14  EF0E  F06F         	goto	l2648
  6987   00DE18                     l2646:
  6988   00DE18  ECDA  F06C         	call	_zeroPulse	;wreg free
  6989   00DE1C                     l2648:
  6990                           
  6991                           ;DivFunctions.c: 69:     if(K & 0b00000010) {onePulse();}
  6992   00DE1C  A201               	btfss	ws_send_byte@K^(0+1280),1,c
  6993   00DE1E  EF13  F06F         	goto	u2631
  6994   00DE22  EF15  F06F         	goto	u2630
  6995   00DE26                     u2631:
  6996   00DE26  EF19  F06F         	goto	l2652
  6997   00DE2A                     u2630:
  6998   00DE2A  EC09  F06D         	call	_onePulse	;wreg free
  6999   00DE2E  EF1B  F06F         	goto	l2654
  7000   00DE32                     l2652:
  7001   00DE32  ECDA  F06C         	call	_zeroPulse	;wreg free
  7002   00DE36                     l2654:
  7003                           
  7004                           ;DivFunctions.c: 72:     if(K & 0b00000001) {onePulse();}
  7005   00DE36  A001               	btfss	ws_send_byte@K^(0+1280),0,c
  7006   00DE38  EF20  F06F         	goto	u2641
  7007   00DE3C  EF22  F06F         	goto	u2640
  7008   00DE40                     u2641:
  7009   00DE40  EF26  F06F         	goto	l2658
  7010   00DE44                     u2640:
  7011   00DE44  EC09  F06D         	call	_onePulse	;wreg free
  7012   00DE48  EF28  F06F         	goto	l523
  7013   00DE4C                     l2658:
  7014   00DE4C  ECDA  F06C         	call	_zeroPulse	;wreg free
  7015   00DE50                     l523:
  7016   00DE50  0012               	return		;funcret
  7017   00DE52                     __end_of_ws_send_byte:
  7018                           	callstack 0
  7019                           
  7020 ;; *************** function _zeroPulse *****************
  7021 ;; Defined at:
  7022 ;;		line 31 in file "DivFunctions.c"
  7023 ;; Parameters:    Size  Location     Type
  7024 ;;		None
  7025 ;; Auto vars:     Size  Location     Type
  7026 ;;		None
  7027 ;; Return value:  Size  Location     Type
  7028 ;;                  1    wreg      void 
  7029 ;; Registers used:
  7030 ;;		None
  7031 ;; Tracked objects:
  7032 ;;		On entry : 0/0
  7033 ;;		On exit  : 0/0
  7034 ;;		Unchanged: 0/0
  7035 ;; Data sizes:     COMRAM   BANK5   BANK6   BANK7   BANK8   BANK9  BANK10  BANK11  BANK12  BANK13  BANK14  BANK15  BANK1
      +6  BANK17  BANK18  BANK19  BANK20  BANK21
  7036 ;;      Params:         0       0       0       0       0       0       0       0       0       0       0       0       
      +0       0       0       0       0       0
  7037 ;;      Locals:         0       0       0       0       0       0       0       0       0       0       0       0       
      +0       0       0       0       0       0
  7038 ;;      Temps:          0       0       0       0       0       0       0       0       0       0       0       0       
      +0       0       0       0       0       0
  7039 ;;      Totals:         0       0       0       0       0       0       0       0       0       0       0       0       
      +0       0       0       0       0       0
  7040 ;;Total ram usage:        0 bytes
  7041 ;; Hardware stack levels used: 1
  7042 ;; This function calls:
  7043 ;;		Nothing
  7044 ;; This function is called by:
  7045 ;;		_ws_send_byte
  7046 ;; This function uses a non-reentrant model
  7047 ;;
  7048                           
  7049                           	psect	text13
  7050   00D9B4                     __ptext13:
  7051                           	callstack 0
  7052   00D9B4                     _zeroPulse:
  7053                           	callstack 124
  7054   00D9B4                     
  7055                           ;DivFunctions.c: 33:     LATBbits.LATB4 = 1;
  7056   00D9B4  88BF               	bsf	191,4,c	;volatile
  7057                           
  7058                           ;DivFunctions.c: 34:     __nop();
  7059   00D9B6  F000               	nop	
  7060                           
  7061                           ;DivFunctions.c: 35:     __nop();
  7062   00D9B8  F000               	nop	
  7063                           
  7064                           ;DivFunctions.c: 36:     __nop();
  7065   00D9BA  F000               	nop	
  7066                           
  7067                           ;DivFunctions.c: 37:     LATBbits.LATB4 = 0;
  7068   00D9BC  98BF               	bcf	191,4,c	;volatile
  7069   00D9BE  0012               	return		;funcret
  7070   00D9C0                     __end_of_zeroPulse:
  7071                           	callstack 0
  7072                           
  7073 ;; *************** function _onePulse *****************
  7074 ;; Defined at:
  7075 ;;		line 14 in file "DivFunctions.c"
  7076 ;; Parameters:    Size  Location     Type
  7077 ;;		None
  7078 ;; Auto vars:     Size  Location     Type
  7079 ;;		None
  7080 ;; Return value:  Size  Location     Type
  7081 ;;                  1    wreg      void 
  7082 ;; Registers used:
  7083 ;;		None
  7084 ;; Tracked objects:
  7085 ;;		On entry : 0/0
  7086 ;;		On exit  : 0/0
  7087 ;;		Unchanged: 0/0
  7088 ;; Data sizes:     COMRAM   BANK5   BANK6   BANK7   BANK8   BANK9  BANK10  BANK11  BANK12  BANK13  BANK14  BANK15  BANK1
      +6  BANK17  BANK18  BANK19  BANK20  BANK21
  7089 ;;      Params:         0       0       0       0       0       0       0       0       0       0       0       0       
      +0       0       0       0       0       0
  7090 ;;      Locals:         0       0       0       0       0       0       0       0       0       0       0       0       
      +0       0       0       0       0       0
  7091 ;;      Temps:          0       0       0       0       0       0       0       0       0       0       0       0       
      +0       0       0       0       0       0
  7092 ;;      Totals:         0       0       0       0       0       0       0       0       0       0       0       0       
      +0       0       0       0       0       0
  7093 ;;Total ram usage:        0 bytes
  7094 ;; Hardware stack levels used: 1
  7095 ;; This function calls:
  7096 ;;		Nothing
  7097 ;; This function is called by:
  7098 ;;		_ws_send_byte
  7099 ;; This function uses a non-reentrant model
  7100 ;;
  7101                           
  7102                           	psect	text14
  7103   00DA12                     __ptext14:
  7104                           	callstack 0
  7105   00DA12                     _onePulse:
  7106                           	callstack 124
  7107   00DA12                     
  7108                           ;DivFunctions.c: 16:     LATBbits.LATB4 = 1;
  7109   00DA12  88BF               	bsf	191,4,c	;volatile
  7110                           
  7111                           ;DivFunctions.c: 17:     __nop();
  7112   00DA14  F000               	nop	
  7113                           
  7114                           ;DivFunctions.c: 18:     __nop();
  7115   00DA16  F000               	nop	
  7116                           
  7117                           ;DivFunctions.c: 19:     __nop();
  7118   00DA18  F000               	nop	
  7119                           
  7120                           ;DivFunctions.c: 20:     __nop();
  7121   00DA1A  F000               	nop	
  7122                           
  7123                           ;DivFunctions.c: 21:     __nop();
  7124   00DA1C  F000               	nop	
  7125                           
  7126                           ;DivFunctions.c: 22:     __nop();
  7127   00DA1E  F000               	nop	
  7128                           
  7129                           ;DivFunctions.c: 23:     __nop();
  7130   00DA20  F000               	nop	
  7131                           
  7132                           ;DivFunctions.c: 24:     __nop();
  7133   00DA22  F000               	nop	
  7134                           
  7135                           ;DivFunctions.c: 25:     __nop();
  7136   00DA24  F000               	nop	
  7137                           
  7138                           ;DivFunctions.c: 26:     __nop();
  7139   00DA26  F000               	nop	
  7140                           
  7141                           ;DivFunctions.c: 27:     __nop();
  7142   00DA28  F000               	nop	
  7143                           
  7144                           ;DivFunctions.c: 28:     LATBbits.LATB4 = 0;
  7145   00DA2A  98BF               	bcf	191,4,c	;volatile
  7146   00DA2C  0012               	return		;funcret
  7147   00DA2E                     __end_of_onePulse:
  7148                           	callstack 0
  7149                           
  7150 ;; *************** function _DATAEE_WriteByte *****************
  7151 ;; Defined at:
  7152 ;;		line 231 in file "mcc_generated_files/memory.c"
  7153 ;; Parameters:    Size  Location     Type
  7154 ;;  bAdd            2    0[COMRAM] unsigned short 
  7155 ;;  bData           1    2[COMRAM] unsigned char 
  7156 ;; Auto vars:     Size  Location     Type
  7157 ;;  GIEBitValue     1    3[COMRAM] unsigned char 
  7158 ;; Return value:  Size  Location     Type
  7159 ;;                  1    wreg      void 
  7160 ;; Registers used:
  7161 ;;		wreg, status,2
  7162 ;; Tracked objects:
  7163 ;;		On entry : 0/0
  7164 ;;		On exit  : 0/0
  7165 ;;		Unchanged: 0/0
  7166 ;; Data sizes:     COMRAM   BANK5   BANK6   BANK7   BANK8   BANK9  BANK10  BANK11  BANK12  BANK13  BANK14  BANK15  BANK1
      +6  BANK17  BANK18  BANK19  BANK20  BANK21
  7167 ;;      Params:         3       0       0       0       0       0       0       0       0       0       0       0       
      +0       0       0       0       0       0
  7168 ;;      Locals:         1       0       0       0       0       0       0       0       0       0       0       0       
      +0       0       0       0       0       0
  7169 ;;      Temps:          0       0       0       0       0       0       0       0       0       0       0       0       
      +0       0       0       0       0       0
  7170 ;;      Totals:         4       0       0       0       0       0       0       0       0       0       0       0       
      +0       0       0       0       0       0
  7171 ;;Total ram usage:        4 bytes
  7172 ;; Hardware stack levels used: 1
  7173 ;; This function calls:
  7174 ;;		Nothing
  7175 ;; This function is called by:
  7176 ;;		_main
  7177 ;; This function uses a non-reentrant model
  7178 ;;
  7179                           
  7180                           	psect	text15
  7181   00DA96                     __ptext15:
  7182                           	callstack 0
  7183   00DA96                     _DATAEE_WriteByte:
  7184                           	callstack 127
  7185   00DA96                     
  7186                           ;mcc_generated_files/memory.c: 231: void DATAEE_WriteByte(uint16_t bAdd, uint8_t bData);
      +                          mcc_generated_files/memory.c: 232: {;mcc_generated_files/memory.c: 233:     uint8_t GIEB
      +                          itValue = INTCON0bits.GIE;
  7187   00DA96  0E00               	movlw	0
  7188   00DA98  BED6               	btfsc	214,7,c	;volatile
  7189   00DA9A  0E01               	movlw	1
  7190   00DA9C  6E04               	movwf	DATAEE_WriteByte@GIEBitValue^(0+1280),c
  7191   00DA9E                     
  7192                           ;mcc_generated_files/memory.c: 236:     NVMADRU = 0x38;
  7193   00DA9E  0E38               	movlw	56
  7194   00DAA0  0100               	movlb	0	; () banked
  7195   00DAA2  6F45               	movwf	69,b	;volatile
  7196   00DAA4                     
  7197                           ; BSR set to: 0
  7198                           ;mcc_generated_files/memory.c: 237:     NVMADRH = (uint8_t) ((bAdd & 0xFF00) >> 8);
  7199   00DAA4  5002               	movf	(DATAEE_WriteByte@bAdd+1)^(0+1280),w,c
  7200   00DAA6  6F44               	movwf	68,b	;volatile
  7201   00DAA8                     
  7202                           ; BSR set to: 0
  7203                           ;mcc_generated_files/memory.c: 238:     NVMADRL = (uint8_t) (bAdd & 0x00FF);
  7204   00DAA8  C501  F043         	movff	DATAEE_WriteByte@bAdd,67	;volatile
  7205   00DAAC                     
  7206                           ; BSR set to: 0
  7207                           ;mcc_generated_files/memory.c: 241:     NVMDATL = bData;
  7208   00DAAC  C503  F046         	movff	DATAEE_WriteByte@bData,70	;volatile
  7209   00DAB0                     
  7210                           ; BSR set to: 0
  7211                           ;mcc_generated_files/memory.c: 244:     NVMCON1bits.NVMCMD = 0b011;
  7212   00DAB0  5141               	movf	65,w,b	;volsfr
  7213   00DAB2  0BF8               	andlw	-8
  7214   00DAB4  0903               	iorlw	3
  7215   00DAB6  6F41               	movwf	65,b	;volsfr
  7216   00DAB8                     
  7217                           ; BSR set to: 0
  7218                           ;mcc_generated_files/memory.c: 247:     INTCON0bits.GIE = 0;
  7219   00DAB8  9ED6               	bcf	214,7,c	;volatile
  7220   00DABA                     
  7221                           ; BSR set to: 0
  7222                           ;mcc_generated_files/memory.c: 250:     NVMLOCK = 0x55;
  7223   00DABA  0E55               	movlw	85
  7224   00DABC  6F42               	movwf	66,b	;volatile
  7225   00DABE                     
  7226                           ; BSR set to: 0
  7227                           ;mcc_generated_files/memory.c: 251:     NVMLOCK = 0xAA;
  7228   00DABE  0EAA               	movlw	170
  7229   00DAC0  6F42               	movwf	66,b	;volatile
  7230   00DAC2                     
  7231                           ; BSR set to: 0
  7232                           ;mcc_generated_files/memory.c: 254:     NVMCON0bits.GO = 1;
  7233   00DAC2  8140               	bsf	64,0,b	;volatile
  7234   00DAC4                     l315:
  7235                           
  7236                           ; BSR set to: 0
  7237   00DAC4  B140               	btfsc	64,0,b	;volatile
  7238   00DAC6  EF67  F06D         	goto	u2771
  7239   00DACA  EF69  F06D         	goto	u2770
  7240   00DACE                     u2771:
  7241   00DACE  EF62  F06D         	goto	l315
  7242   00DAD2                     u2770:
  7243   00DAD2                     
  7244                           ; BSR set to: 0
  7245                           ;mcc_generated_files/memory.c: 258:     INTCON0bits.GIE = GIEBitValue;
  7246   00DAD2  B004               	btfsc	DATAEE_WriteByte@GIEBitValue^(0+1280),0,c
  7247   00DAD4  D002               	bra	u2785
  7248   00DAD6  9ED6               	bcf	214,7,c	;volatile
  7249   00DAD8  D001               	bra	u2786
  7250   00DADA                     u2785:
  7251   00DADA  8ED6               	bsf	214,7,c	;volatile
  7252   00DADC                     u2786:
  7253   00DADC                     
  7254                           ;mcc_generated_files/memory.c: 261:     NVMCON1bits.NVMCMD = 0b000;
  7255   00DADC  0EF8               	movlw	-8
  7256   00DADE  0100               	movlb	0	; () banked
  7257   00DAE0  1741               	andwf	65,f,b	;volsfr
  7258   00DAE2                     
  7259                           ; BSR set to: 0
  7260   00DAE2  0012               	return		;funcret
  7261   00DAE4                     __end_of_DATAEE_WriteByte:
  7262                           	callstack 0
  7263                           
  7264 ;; *************** function _DATAEE_ReadByte *****************
  7265 ;; Defined at:
  7266 ;;		line 264 in file "mcc_generated_files/memory.c"
  7267 ;; Parameters:    Size  Location     Type
  7268 ;;  bAdd            2    0[COMRAM] unsigned short 
  7269 ;; Auto vars:     Size  Location     Type
  7270 ;;		None
  7271 ;; Return value:  Size  Location     Type
  7272 ;;                  1    wreg      unsigned char 
  7273 ;; Registers used:
  7274 ;;		wreg, status,2
  7275 ;; Tracked objects:
  7276 ;;		On entry : 0/0
  7277 ;;		On exit  : 0/0
  7278 ;;		Unchanged: 0/0
  7279 ;; Data sizes:     COMRAM   BANK5   BANK6   BANK7   BANK8   BANK9  BANK10  BANK11  BANK12  BANK13  BANK14  BANK15  BANK1
      +6  BANK17  BANK18  BANK19  BANK20  BANK21
  7280 ;;      Params:         2       0       0       0       0       0       0       0       0       0       0       0       
      +0       0       0       0       0       0
  7281 ;;      Locals:         0       0       0       0       0       0       0       0       0       0       0       0       
      +0       0       0       0       0       0
  7282 ;;      Temps:          0       0       0       0       0       0       0       0       0       0       0       0       
      +0       0       0       0       0       0
  7283 ;;      Totals:         2       0       0       0       0       0       0       0       0       0       0       0       
      +0       0       0       0       0       0
  7284 ;;Total ram usage:        2 bytes
  7285 ;; Hardware stack levels used: 1
  7286 ;; This function calls:
  7287 ;;		Nothing
  7288 ;; This function is called by:
  7289 ;;		_main
  7290 ;; This function uses a non-reentrant model
  7291 ;;
  7292                           
  7293                           	psect	text16
  7294   00D9FA                     __ptext16:
  7295                           	callstack 0
  7296   00D9FA                     _DATAEE_ReadByte:
  7297                           	callstack 127
  7298   00D9FA                     
  7299                           ;mcc_generated_files/memory.c: 264: uint8_t DATAEE_ReadByte(uint16_t bAdd);mcc_generated
      +                          _files/memory.c: 265: {;mcc_generated_files/memory.c: 267:     NVMADRU = 0x38;
  7300   00D9FA  0E38               	movlw	56
  7301   00D9FC  0100               	movlb	0	; () banked
  7302   00D9FE  6F45               	movwf	69,b	;volatile
  7303                           
  7304                           ;mcc_generated_files/memory.c: 268:     NVMADRH = (uint8_t) ((bAdd & 0xFF00) >> 8);
  7305   00DA00  5002               	movf	(DATAEE_ReadByte@bAdd+1)^(0+1280),w,c
  7306   00DA02  6F44               	movwf	68,b	;volatile
  7307   00DA04                     
  7308                           ; BSR set to: 0
  7309                           ;mcc_generated_files/memory.c: 269:     NVMADRL = (uint8_t) (bAdd & 0x00FF);
  7310   00DA04  C501  F043         	movff	DATAEE_ReadByte@bAdd,67	;volatile
  7311                           
  7312                           ;mcc_generated_files/memory.c: 272:     NVMCON1bits.NVMCMD = 0b000;
  7313   00DA08  0EF8               	movlw	-8
  7314   00DA0A  1741               	andwf	65,f,b	;volsfr
  7315   00DA0C                     
  7316                           ; BSR set to: 0
  7317                           ;mcc_generated_files/memory.c: 273:     NVMCON0bits.GO = 1;
  7318   00DA0C  8140               	bsf	64,0,b	;volatile
  7319                           
  7320                           ;mcc_generated_files/memory.c: 275:     return NVMDATL;
  7321   00DA0E  5146               	movf	70,w,b	;volatile
  7322   00DA10                     
  7323                           ; BSR set to: 0
  7324   00DA10  0012               	return		;funcret
  7325   00DA12                     __end_of_DATAEE_ReadByte:
  7326                           	callstack 0
  7327                           
  7328 ;; *************** function _ADCC_GetSingleConversion *****************
  7329 ;; Defined at:
  7330 ;;		line 137 in file "mcc_generated_files/adcc.c"
  7331 ;; Parameters:    Size  Location     Type
  7332 ;;  channel         1    wreg     enum E12907
  7333 ;; Auto vars:     Size  Location     Type
  7334 ;;  channel         1    4[COMRAM] enum E12907
  7335 ;; Return value:  Size  Location     Type
  7336 ;;                  2    0[COMRAM] unsigned short 
  7337 ;; Registers used:
  7338 ;;		wreg, status,2, status,0
  7339 ;; Tracked objects:
  7340 ;;		On entry : 0/0
  7341 ;;		On exit  : 0/0
  7342 ;;		Unchanged: 0/0
  7343 ;; Data sizes:     COMRAM   BANK5   BANK6   BANK7   BANK8   BANK9  BANK10  BANK11  BANK12  BANK13  BANK14  BANK15  BANK1
      +6  BANK17  BANK18  BANK19  BANK20  BANK21
  7344 ;;      Params:         2       0       0       0       0       0       0       0       0       0       0       0       
      +0       0       0       0       0       0
  7345 ;;      Locals:         1       0       0       0       0       0       0       0       0       0       0       0       
      +0       0       0       0       0       0
  7346 ;;      Temps:          2       0       0       0       0       0       0       0       0       0       0       0       
      +0       0       0       0       0       0
  7347 ;;      Totals:         5       0       0       0       0       0       0       0       0       0       0       0       
      +0       0       0       0       0       0
  7348 ;;Total ram usage:        5 bytes
  7349 ;; Hardware stack levels used: 1
  7350 ;; This function calls:
  7351 ;;		Nothing
  7352 ;; This function is called by:
  7353 ;;		_main
  7354 ;; This function uses a non-reentrant model
  7355 ;;
  7356                           
  7357                           	psect	text17
  7358   00DA66                     __ptext17:
  7359                           	callstack 0
  7360   00DA66                     _ADCC_GetSingleConversion:
  7361                           	callstack 127
  7362                           
  7363                           ; BSR set to: 0
  7364                           ;incstack = 0
  7365                           ;ADCC_GetSingleConversion@channel stored from wreg
  7366   00DA66  6E05               	movwf	ADCC_GetSingleConversion@channel^(0+1280),c
  7367   00DA68                     
  7368                           ;mcc_generated_files/adcc.c: 137: adc_result_t ADCC_GetSingleConversion(adcc_channel_t c
      +                          hannel);mcc_generated_files/adcc.c: 138: {;mcc_generated_files/adcc.c: 140:     ADPCH = 
      +                          channel;
  7369   00DA68  C505  F3EC         	movff	ADCC_GetSingleConversion@channel,1004	;volatile
  7370   00DA6C                     
  7371                           ;mcc_generated_files/adcc.c: 143:     ADCON0bits.ADON = 1;
  7372   00DA6C  0103               	movlb	3	; () banked
  7373   00DA6E  8FF3               	bsf	243,7,b	;volatile
  7374   00DA70                     
  7375                           ; BSR set to: 3
  7376                           ;mcc_generated_files/adcc.c: 146:     ADCON0bits.ADCONT = 0;
  7377   00DA70  9DF3               	bcf	243,6,b	;volatile
  7378   00DA72                     
  7379                           ; BSR set to: 3
  7380                           ;mcc_generated_files/adcc.c: 149:     ADCON0bits.ADGO = 1;
  7381   00DA72  81F3               	bsf	243,0,b	;volatile
  7382   00DA74                     l139:
  7383                           
  7384                           ; BSR set to: 3
  7385                           ;mcc_generated_files/adcc.c: 153:     while (ADCON0bits.ADGO)
  7386   00DA74  B1F3               	btfsc	243,0,b	;volatile
  7387   00DA76  EF3F  F06D         	goto	u2761
  7388   00DA7A  EF41  F06D         	goto	u2760
  7389   00DA7E                     u2761:
  7390   00DA7E  EF3A  F06D         	goto	l139
  7391   00DA82                     u2760:
  7392   00DA82                     
  7393                           ; BSR set to: 3
  7394                           ;mcc_generated_files/adcc.c: 159:     return ((adc_result_t)((ADRESH << 8) + ADRESL));
  7395   00DA82  51EB               	movf	235,w,b	;volatile
  7396   00DA84  6E04               	movwf	(??_ADCC_GetSingleConversion+1)^(0+1280),c
  7397   00DA86  6A03               	clrf	??_ADCC_GetSingleConversion^(0+1280),c
  7398   00DA88  51EA               	movf	234,w,b	;volatile
  7399   00DA8A  2403               	addwf	??_ADCC_GetSingleConversion^(0+1280),w,c
  7400   00DA8C  6E01               	movwf	?_ADCC_GetSingleConversion^(0+1280),c
  7401   00DA8E  0E00               	movlw	0
  7402   00DA90  2004               	addwfc	(??_ADCC_GetSingleConversion+1)^(0+1280),w,c
  7403   00DA92  6E02               	movwf	(?_ADCC_GetSingleConversion+1)^(0+1280),c
  7404   00DA94                     
  7405                           ; BSR set to: 3
  7406   00DA94  0012               	return		;funcret
  7407   00DA96                     __end_of_ADCC_GetSingleConversion:
  7408                           	callstack 0
  7409                           
  7410 ;; *************** function _ADCC_DischargeSampleCapacitor *****************
  7411 ;; Defined at:
  7412 ;;		line 174 in file "mcc_generated_files/adcc.c"
  7413 ;; Parameters:    Size  Location     Type
  7414 ;;		None
  7415 ;; Auto vars:     Size  Location     Type
  7416 ;;		None
  7417 ;; Return value:  Size  Location     Type
  7418 ;;                  1    wreg      void 
  7419 ;; Registers used:
  7420 ;;		wreg, status,2
  7421 ;; Tracked objects:
  7422 ;;		On entry : 0/0
  7423 ;;		On exit  : 0/0
  7424 ;;		Unchanged: 0/0
  7425 ;; Data sizes:     COMRAM   BANK5   BANK6   BANK7   BANK8   BANK9  BANK10  BANK11  BANK12  BANK13  BANK14  BANK15  BANK1
      +6  BANK17  BANK18  BANK19  BANK20  BANK21
  7426 ;;      Params:         0       0       0       0       0       0       0       0       0       0       0       0       
      +0       0       0       0       0       0
  7427 ;;      Locals:         0       0       0       0       0       0       0       0       0       0       0       0       
      +0       0       0       0       0       0
  7428 ;;      Temps:          0       0       0       0       0       0       0       0       0       0       0       0       
      +0       0       0       0       0       0
  7429 ;;      Totals:         0       0       0       0       0       0       0       0       0       0       0       0       
      +0       0       0       0       0       0
  7430 ;;Total ram usage:        0 bytes
  7431 ;; Hardware stack levels used: 1
  7432 ;; This function calls:
  7433 ;;		Nothing
  7434 ;; This function is called by:
  7435 ;;		_main
  7436 ;; This function uses a non-reentrant model
  7437 ;;
  7438                           
  7439                           	psect	text18
  7440   00D9AC                     __ptext18:
  7441                           	callstack 0
  7442   00D9AC                     _ADCC_DischargeSampleCapacitor:
  7443                           	callstack 127
  7444   00D9AC                     
  7445                           ;mcc_generated_files/adcc.c: 177:     ADPCH = 0x3b;
  7446   00D9AC  0E3B               	movlw	59
  7447   00D9AE  0103               	movlb	3	; () banked
  7448   00D9B0  6FEC               	movwf	236,b	;volatile
  7449   00D9B2                     
  7450                           ; BSR set to: 3
  7451   00D9B2  0012               	return		;funcret
  7452   00D9B4                     __end_of_ADCC_DischargeSampleCapacitor:
  7453                           	callstack 0
  7454   000000                     
  7455                           	psect	rparam
  7456   000000                     
  7457                           	psect	idloc
  7458                           
  7459                           ;Config register IDLOC0 @ 0x200000
  7460                           ;	unspecified, using default values
  7461   200000                     	org	2097152
  7462   200000  0FFF               	dw	4095
  7463                           
  7464                           ;Config register IDLOC1 @ 0x200002
  7465                           ;	unspecified, using default values
  7466   200002                     	org	2097154
  7467   200002  0FFF               	dw	4095
  7468                           
  7469                           ;Config register IDLOC2 @ 0x200004
  7470                           ;	unspecified, using default values
  7471   200004                     	org	2097156
  7472   200004  0FFF               	dw	4095
  7473                           
  7474                           ;Config register IDLOC3 @ 0x200006
  7475                           ;	unspecified, using default values
  7476   200006                     	org	2097158
  7477   200006  0FFF               	dw	4095
  7478                           
  7479                           ;Config register IDLOC4 @ 0x200008
  7480                           ;	unspecified, using default values
  7481   200008                     	org	2097160
  7482   200008  0FFF               	dw	4095
  7483                           
  7484                           ;Config register IDLOC5 @ 0x20000A
  7485                           ;	unspecified, using default values
  7486   20000A                     	org	2097162
  7487   20000A  0FFF               	dw	4095
  7488                           
  7489                           ;Config register IDLOC6 @ 0x20000C
  7490                           ;	unspecified, using default values
  7491   20000C                     	org	2097164
  7492   20000C  0FFF               	dw	4095
  7493                           
  7494                           ;Config register IDLOC7 @ 0x20000E
  7495                           ;	unspecified, using default values
  7496   20000E                     	org	2097166
  7497   20000E  0FFF               	dw	4095
  7498                           
  7499                           ;Config register IDLOC8 @ 0x200010
  7500                           ;	unspecified, using default values
  7501   200010                     	org	2097168
  7502   200010  0FFF               	dw	4095
  7503                           
  7504                           ;Config register IDLOC9 @ 0x200012
  7505                           ;	unspecified, using default values
  7506   200012                     	org	2097170
  7507   200012  0FFF               	dw	4095
  7508                           
  7509                           ;Config register IDLOC10 @ 0x200014
  7510                           ;	unspecified, using default values
  7511   200014                     	org	2097172
  7512   200014  0FFF               	dw	4095
  7513                           
  7514                           ;Config register IDLOC11 @ 0x200016
  7515                           ;	unspecified, using default values
  7516   200016                     	org	2097174
  7517   200016  0FFF               	dw	4095
  7518                           
  7519                           ;Config register IDLOC12 @ 0x200018
  7520                           ;	unspecified, using default values
  7521   200018                     	org	2097176
  7522   200018  0FFF               	dw	4095
  7523                           
  7524                           ;Config register IDLOC13 @ 0x20001A
  7525                           ;	unspecified, using default values
  7526   20001A                     	org	2097178
  7527   20001A  0FFF               	dw	4095
  7528                           
  7529                           ;Config register IDLOC14 @ 0x20001C
  7530                           ;	unspecified, using default values
  7531   20001C                     	org	2097180
  7532   20001C  0FFF               	dw	4095
  7533                           
  7534                           ;Config register IDLOC15 @ 0x20001E
  7535                           ;	unspecified, using default values
  7536   20001E                     	org	2097182
  7537   20001E  0FFF               	dw	4095
  7538                           
  7539                           	psect	config
  7540                           
  7541                           ;Config register CONFIG1 @ 0x300000
  7542                           ;	External Oscillator Selection
  7543                           ;	FEXTOSC = OFF, Oscillator not enabled
  7544                           ;	Reset Oscillator Selection
  7545                           ;	RSTOSC = HFINTOSC_64MHZ, HFINTOSC with HFFRQ = 64 MHz and CDIV = 1:1
  7546   300000                     	org	3145728
  7547   300000  8C                 	db	140
  7548                           
  7549                           ;Config register CONFIG2 @ 0x300001
  7550                           ;	Clock out Enable bit
  7551                           ;	CLKOUTEN = OFF, CLKOUT function is disabled
  7552                           ;	PRLOCKED One-Way Set Enable bit
  7553                           ;	PR1WAY = ON, PRLOCKED bit can be cleared and set only once
  7554                           ;	Clock Switch Enable bit
  7555                           ;	CSWEN = ON, Writing to NOSC and NDIV is allowed
  7556                           ;	Fail-Safe Clock Monitor Enable bit
  7557                           ;	FCMEN = ON, Fail-Safe Clock Monitor enabled
  7558                           ;	Fail-Safe Clock Monitor - Primary XTAL Enable bit
  7559                           ;	FCMENP = ON, Fail-Safe Clock Monitor enabled; timer will flag FSCMP bit and OSFIF inte
      +                          rrupt on EXTOSC failure.
  7560                           ;	Fail-Safe Clock Monitor - Secondary XTAL Enable bit
  7561                           ;	FCMENS = ON, Fail-Safe Clock Monitor enabled; timer will flag FSCMP bit and OSFIF inte
      +                          rrupt on SOSC failure.
  7562   300001                     	org	3145729
  7563   300001  FF                 	db	255
  7564                           
  7565                           ;Config register CONFIG3 @ 0x300002
  7566                           ;	MCLR Enable bit
  7567                           ;	MCLRE = EXTMCLR, If LVP = 0, MCLR pin is MCLR; If LVP = 1, RE3 pin function is MCLR
  7568                           ;	Power-up timer selection bits
  7569                           ;	PWRTS = PWRT_OFF, PWRT is disabled
  7570                           ;	Multi-vector enable bit
  7571                           ;	MVECEN = OFF, Interrupt contoller does not use vector table to prioritze interrupts
  7572                           ;	IVTLOCK bit One-way set enable bit
  7573                           ;	IVT1WAY = ON, IVTLOCKED bit can be cleared and set only once
  7574                           ;	Low Power BOR Enable bit
  7575                           ;	LPBOREN = OFF, Low-Power BOR disabled
  7576                           ;	Brown-out Reset Enable bits
  7577                           ;	BOREN = SBORDIS, Brown-out Reset enabled , SBOREN bit is ignored
  7578   300002                     	org	3145730
  7579   300002  F7                 	db	247
  7580                           
  7581                           ;Config register CONFIG4 @ 0x300003
  7582                           ;	Brown-out Reset Voltage Selection bits
  7583                           ;	BORV = VBOR_1P9, Brown-out Reset Voltage (VBOR) set to 1.9V
  7584                           ;	ZCD Disable bit
  7585                           ;	ZCD = OFF, ZCD module is disabled. ZCD can be enabled by setting the ZCDSEN bit of ZCD
      +                          CON
  7586                           ;	PPSLOCK bit One-Way Set Enable bit
  7587                           ;	PPS1WAY = ON, PPSLOCKED bit can be cleared and set only once; PPS registers remain loc
      +                          ked after one clear/set cycle
  7588                           ;	Stack Full/Underflow Reset Enable bit
  7589                           ;	STVREN = ON, Stack full/underflow will cause Reset
  7590                           ;	Low Voltage Programming Enable bit
  7591                           ;	LVP = ON, Low voltage programming enabled. MCLR/VPP pin function is MCLR. MCLRE config
      +                          uration bit is ignored
  7592                           ;	Extended Instruction Set Enable bit
  7593                           ;	XINST = OFF, Extended Instruction Set and Indexed Addressing Mode disabled
  7594   300003                     	org	3145731
  7595   300003  FF                 	db	255
  7596                           
  7597                           ;Config register CONFIG5 @ 0x300004
  7598                           ;	WDT Period selection bits
  7599                           ;	WDTCPS = WDTCPS_31, Divider ratio 1:65536; software control of WDTPS
  7600                           ;	WDT operating mode
  7601                           ;	WDTE = OFF, WDT Disabled; SWDTEN is ignored
  7602   300004                     	org	3145732
  7603   300004  9F                 	db	159
  7604                           
  7605                           ;Config register CONFIG6 @ 0x300005
  7606                           ;	WDT Window Select bits
  7607                           ;	WDTCWS = WDTCWS_7, window always open (100%); software control; keyed access not requi
      +                          red
  7608                           ;	WDT input clock selector
  7609                           ;	WDTCCS = SC, Software Control
  7610   300005                     	org	3145733
  7611   300005  FF                 	db	255
  7612                           
  7613                           ;Config register CONFIG7 @ 0x300006
  7614                           ;	Boot Block Size selection bits
  7615                           ;	BBSIZE = BBSIZE_512, Boot Block size is 512 words
  7616                           ;	Boot Block enable bit
  7617                           ;	BBEN = OFF, Boot block disabled
  7618                           ;	Storage Area Flash enable bit
  7619                           ;	SAFEN = OFF, SAF disabled
  7620                           ;	Background Debugger
  7621                           ;	DEBUG = OFF, Background Debugger disabled
  7622   300006                     	org	3145734
  7623   300006  FF                 	db	255
  7624                           
  7625                           ;Config register CONFIG8 @ 0x300007
  7626                           ;	Boot Block Write Protection bit
  7627                           ;	WRTB = OFF, Boot Block not Write protected
  7628                           ;	Configuration Register Write Protection bit
  7629                           ;	WRTC = OFF, Configuration registers not Write protected
  7630                           ;	Data EEPROM Write Protection bit
  7631                           ;	WRTD = OFF, Data EEPROM not Write protected
  7632                           ;	SAF Write protection bit
  7633                           ;	WRTSAF = OFF, SAF not Write Protected
  7634                           ;	Application Block write protection bit
  7635                           ;	WRTAPP = OFF, Application Block not write protected
  7636   300007                     	org	3145735
  7637   300007  FF                 	db	255
  7638                           
  7639                           ;Config register CONFIG9 @ 0x300008
  7640                           ;	PFM and Data EEPROM Code Protection bit
  7641                           ;	CP = OFF, PFM and Data EEPROM code protection disabled
  7642   300008                     	org	3145736
  7643   300008  FF                 	db	255
  7644                           
  7645                           ; Padding undefined space
  7646   300009                     	org	3145737
  7647   300009  FF                 	db	255
  7648                           tosu	equ	0x4FF
  7649                           tosh	equ	0x4FE
  7650                           tosl	equ	0x4FD
  7651                           stkptr	equ	0x4FC
  7652                           pclatu	equ	0x4FB
  7653                           pclath	equ	0x4FA
  7654                           pcl	equ	0x4F9
  7655                           tblptru	equ	0x4F8
  7656                           tblptrh	equ	0x4F7
  7657                           tblptrl	equ	0x4F6
  7658                           tablat	equ	0x4F5
  7659                           prodh	equ	0x4F4
  7660                           prodl	equ	0x4F3
  7661                           indf0	equ	0x4EF
  7662                           postinc0	equ	0x4EE
  7663                           postdec0	equ	0x4ED
  7664                           preinc0	equ	0x4EC
  7665                           plusw0	equ	0x4EB
  7666                           fsr0h	equ	0x4EA
  7667                           fsr0l	equ	0x4E9
  7668                           wreg	equ	0x4E8
  7669                           indf1	equ	0x4E7
  7670                           postinc1	equ	0x4E6
  7671                           postdec1	equ	0x4E5
  7672                           preinc1	equ	0x4E4
  7673                           plusw1	equ	0x4E3
  7674                           fsr1h	equ	0x4E2
  7675                           fsr1l	equ	0x4E1
  7676                           bsr	equ	0x4E0
  7677                           indf2	equ	0x4DF
  7678                           postinc2	equ	0x4DE
  7679                           postdec2	equ	0x4DD
  7680                           preinc2	equ	0x4DC
  7681                           plusw2	equ	0x4DB
  7682                           fsr2h	equ	0x4DA
  7683                           fsr2l	equ	0x4D9
  7684                           status	equ	0x4D8

Data Sizes:
    Strings     0
    Constant    0
    Data        0
    BSS         4
    Persistent  0
    Stack       0

Auto Spaces:
    Space          Size  Autos    Used
    COMRAM           95     51      55
    BANK5           160     52      52
    BANK6           256      0       0
    BANK7           256      0       0
    BANK8           256      0       0
    BANK9           256      0       0
    BANK10          256      0       0
    BANK11          256      0       0
    BANK12          256      0       0
    BANK13          256      0       0
    BANK14          256      0       0
    BANK15          256      0       0
    BANK16          256      0       0
    BANK17          256      0       0
    BANK18          256      0       0
    BANK19          256      0       0
    BANK20          256      0       0
    BANK21          254      0       0

Pointer List with Targets:

    None.

Critical Paths under _main in COMRAM

    _main->_map
    _map->___aldiv
    ___aldiv->___lmul
    _LED_WriteFull->___ltdiv
    _WS2812B_Write->_ws_send_byte

Critical Paths under _main in BANK5

    None.

Critical Paths under _main in BANK6

    None.

Critical Paths under _main in BANK7

    None.

Critical Paths under _main in BANK8

    None.

Critical Paths under _main in BANK9

    None.

Critical Paths under _main in BANK10

    None.

Critical Paths under _main in BANK11

    None.

Critical Paths under _main in BANK12

    None.

Critical Paths under _main in BANK13

    None.

Critical Paths under _main in BANK14

    None.

Critical Paths under _main in BANK15

    None.

Critical Paths under _main in BANK16

    None.

Critical Paths under _main in BANK17

    None.

Critical Paths under _main in BANK18

    None.

Critical Paths under _main in BANK19

    None.

Critical Paths under _main in BANK20

    None.

Critical Paths under _main in BANK21

    None.

Call Graph Tables:

 ---------------------------------------------------------------------------------
 (Depth) Function   	        Calls       Base Space   Used Autos Params    Refs
 ---------------------------------------------------------------------------------
 (0) _main                                                58    58      0   30511
                                             46 COMRAM     5     5      0
                                              0 BANK5     52    52      0
      _ADCC_DischargeSampleCapacitor
           _ADCC_GetSingleConversion
                    _DATAEE_ReadByte
                   _DATAEE_WriteByte
                      _LED_WriteFull
                  _SYSTEM_Initialize
                                _map
 ---------------------------------------------------------------------------------
 (1) _map                                                 20     0     20    2116
                                             26 COMRAM    20     0     20
           _ADCC_GetSingleConversion (ARG)
                            ___aldiv
                             ___lmul
 ---------------------------------------------------------------------------------
 (2) ___lmul                                              12     4      8     370
                                              0 COMRAM    12     4      8
 ---------------------------------------------------------------------------------
 (2) ___aldiv                                             14     6      8     452
                                             12 COMRAM    14     6      8
                             ___lmul (ARG)
 ---------------------------------------------------------------------------------
 (1) _SYSTEM_Initialize                                    0     0      0       0
                    _ADCC_Initialize
              _OSCILLATOR_Initialize
             _PIN_MANAGER_Initialize
                     _PMD_Initialize
 ---------------------------------------------------------------------------------
 (2) _PMD_Initialize                                       0     0      0       0
 ---------------------------------------------------------------------------------
 (2) _PIN_MANAGER_Initialize                               0     0      0       0
 ---------------------------------------------------------------------------------
 (2) _OSCILLATOR_Initialize                                0     0      0       0
 ---------------------------------------------------------------------------------
 (2) _ADCC_Initialize                                      0     0      0       0
 ---------------------------------------------------------------------------------
 (1) _LED_WriteFull                                       10     5      5    5426
                                             10 COMRAM    10     5      5
                      _WS2812B_Write
                            ___ltdiv
 ---------------------------------------------------------------------------------
 (2) ___ltdiv                                             10     4      6     314
                                              0 COMRAM    10     4      6
 ---------------------------------------------------------------------------------
 (2) _WS2812B_Write                                        3     1      2     394
                                              1 COMRAM     3     1      2
                       _ws_send_byte
 ---------------------------------------------------------------------------------
 (3) _ws_send_byte                                         1     1      0     176
                                              0 COMRAM     1     1      0
                           _onePulse
                          _zeroPulse
 ---------------------------------------------------------------------------------
 (4) _zeroPulse                                            0     0      0       0
 ---------------------------------------------------------------------------------
 (4) _onePulse                                             0     0      0       0
 ---------------------------------------------------------------------------------
 (1) _DATAEE_WriteByte                                     4     1      3   13465
                                              0 COMRAM     4     1      3
 ---------------------------------------------------------------------------------
 (1) _DATAEE_ReadByte                                      2     0      2    2020
                                              0 COMRAM     2     0      2
 ---------------------------------------------------------------------------------
 (1) _ADCC_GetSingleConversion                             5     3      2      22
                                              0 COMRAM     5     3      2
 ---------------------------------------------------------------------------------
 (1) _ADCC_DischargeSampleCapacitor                        0     0      0       0
 ---------------------------------------------------------------------------------
 Estimated maximum stack depth 4
 ---------------------------------------------------------------------------------

 Call Graph Graphs:

 _main (ROOT)
   _ADCC_DischargeSampleCapacitor
   _ADCC_GetSingleConversion
   _DATAEE_ReadByte
   _DATAEE_WriteByte
   _LED_WriteFull
     _WS2812B_Write
       _ws_send_byte
         _onePulse
         _zeroPulse
     ___ltdiv
   _SYSTEM_Initialize
     _ADCC_Initialize
     _OSCILLATOR_Initialize
     _PIN_MANAGER_Initialize
     _PMD_Initialize
   _map
     _ADCC_GetSingleConversion (ARG)
     ___aldiv (ARG)
       ___lmul (ARG)
     ___lmul (ARG)

 Address spaces:
Name               Size   Autos  Total    Cost      Usage
BIGRAMl            FFF      0       0      40        0.0%
EEDATA             400      0       0       0        0.0%
BITBIGSFRlllllh    325      0       0      52        0.0%
BITBANK20          100      0       0      35        0.0%
BANK20             100      0       0      36        0.0%
BITBANK19          100      0       0      33        0.0%
BANK19             100      0       0      34        0.0%
BITBANK18          100      0       0      31        0.0%
BANK18             100      0       0      32        0.0%
BITBANK17          100      0       0      29        0.0%
BANK17             100      0       0      30        0.0%
BITBANK16          100      0       0      27        0.0%
BANK16             100      0       0      28        0.0%
BITBANK15          100      0       0      25        0.0%
BANK15             100      0       0      26        0.0%
BITBANK14          100      0       0      23        0.0%
BANK14             100      0       0      24        0.0%
BITBANK13          100      0       0      21        0.0%
BANK13             100      0       0      22        0.0%
BITBANK12          100      0       0      19        0.0%
BANK12             100      0       0      20        0.0%
BITBANK11          100      0       0      16        0.0%
BANK11             100      0       0      17        0.0%
BITBANK10          100      0       0      14        0.0%
BANK10             100      0       0      15        0.0%
BITBANK9           100      0       0      12        0.0%
BANK9              100      0       0      13        0.0%
BITBANK8           100      0       0      10        0.0%
BANK8              100      0       0      11        0.0%
BITBANK7           100      0       0       8        0.0%
BANK7              100      0       0       9        0.0%
BITBANK6           100      0       0       6        0.0%
BANK6              100      0       0       7        0.0%
BIGRAMh             FE      0       0      39        0.0%
BITBANK21           FE      0       0      37        0.0%
BANK21              FE      0       0      38        0.0%
BITBANK5            A0      0       0       4        0.0%
BANK5               A0     34      34       5       32.5%
BITBIGSFRlhl        9E      0       0      47        0.0%
BITCOMRAM           5F      0       0       0        0.0%
COMRAM              5F     33      37       1       57.9%
BITBIGSFRllllll     43      0       0      55        0.0%
BITBIGSFRllllll     40      0       0      57        0.0%
BITBIGSFRhhlh       1E      0       0      42        0.0%
BITBIGSFRllllll     1C      0       0      56        0.0%
BITBIGSFRlhh         A      0       0      46        0.0%
BITBIGSFRhhh         7      0       0      41        0.0%
BITBIGSFRhhllh       5      0       0      43        0.0%
BITBIGSFRllllhh      5      0       0      50        0.0%
BITBIGSFRhhllll      5      0       0      44        0.0%
BITBIGSFRhl          5      0       0      45        0.0%
BITBIGSFRlllh        3      0       0      49        0.0%
BITBIGSFRllh         3      0       0      48        0.0%
BITBIGSFRlllllh      1      0       0      53        0.0%
BITBIGSFRlllllh      1      0       0      54        0.0%
BITBIGSFRllllhh      1      0       0      51        0.0%
BIGSFR               0      0       0     200        0.0%
BITSFR_5             0      0       0     200        0.0%
SFR_5                0      0       0     200        0.0%
BITSFR_4             0      0       0     200        0.0%
SFR_4                0      0       0     200        0.0%
BITSFR_3             0      0       0     200        0.0%
SFR_3                0      0       0     200        0.0%
BITSFR_2             0      0       0     200        0.0%
SFR_2                0      0       0     200        0.0%
BITSFR_1             0      0       0     200        0.0%
SFR_1                0      0       0     200        0.0%
BITSFR               0      0       0     200        0.0%
SFR                  0      0       0     200        0.0%
STACK                0      0       0       2        0.0%
NULL                 0      0       0       0        0.0%
ABS                  0      0      6B      18        0.0%
DATA                 0      0      6B       3        0.0%
CODE                 0      0       0       0        0.0%


Microchip Technology PIC18 Macro Assembler V2.40 build 20220703182018 
Symbol Table                                                                                   Sun Aug 06 14:05:50 2023

                                   l45 DB36                                    l142 DA94  
                                  l151 D9B2                                    l127 DB92  
                                  l321 DA10                                    l402 EBDA  
                                  l139 DA74                                    l315 DAC4  
                                  l243 D9D0                                    l411 ED62  
                                  l317 DAD2                                    l501 DA2C  
                                  l405 EC66                                    l318 DAE2  
                                  l246 DA48                                    l414 EDD2  
                                  l431 F1C8                                    l504 D9BE  
                                  l440 F614                                    l424 F1DC  
                                  l408 ECF2                                    l249 DA64  
                                  l441 F492                                    l425 F05A  
                                  l417 EE42                                    l523 DE50  
                                  l531 DC76                                    l443 F50C  
                                  l427 F0D4                                    l355 E05A  
                                  l356 E0B6                                    l461 F9C0  
                                  l445 F586                                    l429 F14E  
                                  l357 E112                                    l630 DF5C  
                                  l358 E16E                                    l463 FA3A  
                                  l447 F600                                    l359 E2F0  
                                  l472 FE82                                    l456 FA4E  
                                  l529 DC34                                    l473 FD00  
                                  l457 F8CC                                    l562 DBEC  
                                  l386 E7F0                                    l378 E5FE  
                                  l563 DBFC                                    l475 FD7A  
                                  l459 F946                                    l379 E672  
                                  l396 EAA2                                    l477 FDF4  
                                  l495 D9F8                                    l479 FE6E  
                                  l399 EB4E                                    l498 DCF0  
                       WS2812B_Write@B 0503                         WS2812B_Write@G 0502  
                       WS2812B_Write@R 0504                                    _map DC78  
                                  wreg 0004E8                            main@blueAdj 0578  
                                 l1022 DD62                                   l1024 DD7C  
                                 l1017 DD70                                   l3000 E544  
                                 l3010 E596                                   l3002 E556  
                                 l3100 E872                                   l3020 E5DA  
                                 l3004 E566                                   l3012 E59A  
                                 l3110 E8C2                                   l3102 E882  
                                 l3030 E630                                   l3022 E5EA  
                                 l3014 E5A8                                   l3006 E576  
                                 l3200 EB5E                                   l3120 E906  
                                 l3112 E8C6                                   l3104 E894  
                                 l3040 E69A                                   l3032 E640  
                                 l3024 E5FA                                   l3016 E5BA  
                                 l3008 E586                                   l3210 EBAC  
                                 l3202 EB78                                   l3130 E956  
                                 l3114 E8D6                                   l3106 E8A2  
                                 l3122 E916                                   l3050 E708  
                                 l3042 E6BC                                   l3034 E65A  
                                 l3026 E610                                   l3018 E5CA  
                                 l3300 EE50                                   l3220 EBEA  
                                 l3212 EBC6                                   l3204 EB7E  
                                 l3140 E99A                                   l3132 E95A  
                                 l3124 E928                                   l3116 E8E6  
                                 l3108 E8B2                                   l3060 E766  
                                 l3052 E71A                                   l3044 E6CE  
                                 l3036 E682                                   l3028 E620  
                                 l3310 EE84                                   l3302 EE52  
                                 l3230 EC38                                   l3222 EC04  
                                 l3206 EB8E                                   l3150 E9EA  
                                 l3134 E96A                                   l3126 E936  
                                 l3142 E9AA                                   l3118 E8F6  
                                 l3070 E7C4                                   l3062 E77A  
                                 l3054 E72E                                   l3046 E6E2  
                                 l3038 E696                                   l3400 F24C  
                                 l3320 EEF2                                   l3312 EE9E  
                                 l3304 EE56                                   l3240 EC76  
                                 l3232 EC52                                   l3224 EC0A  
                                 l3208 EB9E                                   l3160 EA2E  
                                 l3152 E9EE                                   l3144 E9BC  
                                 l3136 E97A                                   l3128 E946  
                                 l3080 E7EC                                   l3072 E7D4  
                                 l3064 E77E                                   l3056 E732  
                                 l3048 E6E6                                   l2610 D9B4  
                                 l3410 F292                                   l3402 F25E  
                                 l3330 EF48                                   l3322 EEF6  
                                 l3314 EEB2                                   l3306 EE66  
                                 l3250 ECC4                                   l3242 EC90  
                                 l3226 EC1A                                   l3218 EBE8  
                                 l3170 EA6E                                   l3154 E9FE  
                                 l3146 E9CA                                   l3162 EA3E  
                                 l3138 E98A                                   l3090 E82E  
                                 l3082 E7EE                                   l3074 E7E4  
                                 l3066 E7A2                                   l3058 E754  
      ??_ADCC_DischargeSampleCapacitor 0501                                   l2620 DDA8  
                                 l2612 DD80                                   l2700 DEAA  
                                 l3500 F632                                   l3420 F2E0  
                                 l3404 F262                                   l3412 F2A2  
                                 l3340 EF7E                                   l3332 EF4C  
                                 l3324 EF18                                   l3316 EECC  
                                 l3308 EE76                                   l3260 ED02  
                                 l3252 ECDE                                   l3244 EC96  
                                 l3228 EC2A                                   l3180 EAB2  
                                 l3172 EA7C                                   l3164 EA4C  
                                 l3156 EA0E                                   l3148 E9DA  
                                 l3092 E832                                   l3084 E800  
                                 l3076 E7E8                                   l3068 E7B4  
                                 l2630 DDCE                                   l2622 DDB0  
                                 l2614 DD8E                                   l2710 DEEC  
                                 l2702 DEC0                                   l3502 F636  
                                 l3510 F676                                   l3430 F316  
                                 l3414 F2B0                                   l3406 F27C  
                                 l3350 EFD2                                   l3342 EF92  
                                 l3334 EF5A                                   l3326 EF26  
                                 l3318 EEDE                                   l3270 ED4E  
                                 l3262 ED06                                   l3246 ECA6  
                                 l3238 EC74                                   l3190 EB00  
                                 l3182 EACC                                   l3174 EA86  
                                 l3166 EA56                                   l3158 EA1E  
                                 l3094 E842                                   l3086 E80E  
                                 l3078 E7EA                                   l2608 DA12  
                                 l2640 DDFE                                   l2632 DDDC  
                                 l2624 DDB4                                   l2616 DD96  
                                 l2800 DC10                                   l2712 DF0A  
                                 l2704 DEC8                                   l2720 DF2C  
                                 l3600 F9BC                                   l3520 F6BA  
                                 l3512 F684                                   l3504 F650  
                                 l3440 F370                                   l3432 F32A  
                                 l3416 F2C2                                   l3408 F282  
                                 l3360 F06A                                   l3344 EFA2  
                                 l3336 EF6C                                   l3352 EFE2  
                                 l3328 EF38                                   l3272 ED70  
                                 l3280 ED96                                   l3264 ED16  
                                 l3248 ECB6                                   l3192 EB1A  
                                 l3184 EAD2                                   l3176 EA94  
                                 l3168 EA64                                   l3096 E852  
                                 l3088 E81E                                   l2650 DE2A  
                                 l2642 DE02                                   l2634 DDE4  
                                 l2626 DDC2                                   l2618 DD9A  
                                 l2730 DCFE                                   l2810 DC24  
                                 l2722 DF3C                                   l2714 DF1A  
                                 l2706 DED4                                   l3610 FA4A  
                                 l3602 F9D0                                   l3530 F6FE  
                                 l3522 F6CA                                   l3514 F696  
                                 l3506 F656                                   l3450 F3B4  
                                 l3442 F380                                   l3434 F32E  
                                 l3426 F2EA                                   l3418 F2C6  
                                 l3370 F0E8                                   l3362 F06E  
                                 l3354 EFF4                                   l3346 EFB2  
                                 l3338 EF7C                                   l3290 EDE6  
                                 l3282 EDA4                                   l3274 ED72  
                                 l3258 ED00                                   l3266 ED26  
                                 l3194 EB2A                                   l3186 EAE2  
                                 l3178 EAB0                                   l3098 E862  
                                 l2652 DE32                                   l2644 DE10  
                                 l2636 DDE8                                   l2628 DDCA  
                                 l2740 DD3A                                   l2732 DD12  
                                 l2812 DC40                                   l2660 DAE4  
                                 l2724 DF4C                                   l2716 DF1C  
                                 l2708 DEE2                                   l3700 FD14  
                                 l3620 FA90                                   l3612 FA5C  
                                 l3604 F9D4                                   l3540 F736  
                                 l3516 F69A                                   l3524 F6DA  
                                 l3508 F666                                   l3460 F3FA  
                                 l3452 F3B6                                   l3444 F384  
                                 l3436 F350                                   l3428 F304  
                                 l3380 F192                                   l3372 F118  
                                 l3364 F09E                                   l3356 F024  
                                 l3348 EFC2                                   l3292 EDF6  
                                 l3284 EDBE                                   l3276 ED76  
                                 l3268 ED34                                   l3196 EB3A  
                                 l3188 EAF2                                   l2900 E1C6  
                                 l2820 DF6C                                   l2750 DA6C  
                                 l2654 DE36                                   l2646 DE18  
                                 l2638 DDF6                                   l2742 DD54  
                                 l2734 DD1A                                   l2806 DC14  
                                 l2670 DA2E                                   l2662 DB2A  
                                 l2718 DF26                                   l3710 FDBE  
                                 l3702 FD44                                   l3630 FAD4  
                                 l3622 FAA0                                   l3614 FA6C  
                                 l3606 FA04                                   l3550 F790  
                                 l3542 F748                                   l3526 F6E8  
                                 l3518 F6B4                                   l3470 F48E  
                                 l3462 F40A                                   l3454 F3CA  
                                 l3446 F392                                   l3438 F35E  
                                 l3390 F1FE                                   l3382 F1C4  
                                 l3374 F14A                                   l3366 F0D0  
                                 l3358 F056                                   l3286 EDE0  
                                 l3294 EE06                                   l3278 ED86  
                                 l3198 EB5C                                   l2910 E1FE  
                                 l2902 E1C8                                   l2830 DF7E  
                                 l2822 DF6E                                   l2814 DF5E  
                                 l2760 D9AC                                   l2752 DA70  
                                 l2656 DE44                                   l2648 DE1C  
                                 l2672 D9E6                                   l2744 DD60  
                                 l2736 DD24                                   l2728 DCF2  
                                 l2808 DC22                                   l2664 DB34  
                                 l2680 DBC2                                   l3720 FE6A  
                                 l3712 FDF0                                   l3704 FD76  
                                 l3640 FB22                                   l3632 FAEE  
                                 l3616 FA70                                   l3624 FAB0  
                                 l3608 FA36                                   l3560 F7D6  
                                 l3552 F7A2                                   l3544 F75C  
                                 l3528 F6FA                                   l3480 F51C  
                                 l3472 F4A2                                   l3456 F3DA  
                                 l3448 F3A4                                   l3464 F41A  
                                 l3392 F218                                   l3384 F1D8  
                                 l3376 F15E                                   l3368 F0E4  
                                 l3296 EE14                                   l3288 EDE2  
                                 l2920 E240                                   l2912 E21A  
                                 l2904 E1D4                                   l2840 DF92  
                                 l2832 DF82                                   l2824 DF72  
                                 l2816 DF62                                   l2754 DA72  
                                 l2770 DAA8                                   l2658 DE4C  
                                 l2746 DD6A                                   l2738 DD32  
                                 l2666 DB38                                   l2762 D9C0  
                                 l2690 DE74                                   l2682 DBCC  
                                 l2674 DB94                                   l3802 FF8A  
                                 l3730 FEA8                                   l3722 FE7E  
                                 l3714 FE04                                   l3706 FD8A  
                                 l3642 FB34                                   l3634 FAF4  
                                 l3626 FABE                                   l3618 FA8A  
                                 l3570 F81C                                   l3562 F7E6  
                                 l3554 F7B2                                   l3546 F760  
                                 l3538 F71C                                   l3490 F59A  
                                 l3482 F520                                   l3474 F4A6  
                                 l3466 F42C                                   l3458 F3EA  
                                 l3394 F21E                                   l3386 F1EA  
                                 l3378 F162                                   l3298 EE2E  
                                 l2930 E292                                   l2922 E254  
                                 l2914 E21C                                   l2906 E1E6  
                                 l2850 DFA6                                   l2842 DF96  
                                 l2834 DF86                                   l2826 DF76  
                                 l2818 DF68                                   l2756 DA82  
                                 l2748 DA68                                   l2780 DABE  
                                 l2772 DAAC                                   l2764 DA96  
                                 l2668 DA4A                                   l2692 DE78  
                                 l2684 DE52                                   l2676 DBA4  
                                 l3740 FEEC                                   l3732 FEB8  
                                 l3724 FE90                                   l3716 FE08  
                                 l3708 FD8E                                   l3660 FB9A  
                                 l3652 FB56                                   l3644 FB38  
                                 l3636 FB04                                   l3628 FAD0  
                                 l3580 F866                                   l3572 F82C  
                                 l3564 F7E8                                   l3556 F7B6  
                                 l3548 F782                                   l3492 F5CA  
                                 l3484 F550                                   l3476 F4D6  
                                 l3468 F45C                                   l3396 F22E  
                                 l3388 F1FA                                   l2940 E2D4  
                                 l2932 E296                                   l2924 E270  
                                 l2916 E228                                   l2908 E1EA  
                                 l2860 DFBA                                   l2852 DFAA  
                                 l2844 DF9A                                   l2836 DF8A  
                                 l2828 DF7A                                   l2790 DA0C  
                                 l2782 DAC2                                   l2774 DAB0  
                                 l2766 DA9E                                   l2694 DE86  
                                 l2686 DE56                                   l2678 DBB2  
                                 l3750 FF3A                                   l3742 FF06  
                                 l3726 FEA0                                   l3734 FEC8  
                                 l3718 FE38                                   l3670 FBF2  
                                 l3662 FBBE                                   l3654 FB70  
                                 l3638 FB14                                   l3590 F910  
                                 l3582 F896                                   l3574 F83C  
                                 l3566 F7FC                                   l3558 F7C4  
                                 l3494 F5FC                                   l3486 F582  
                                 l3478 F508                                   l3398 F23E  
                                 l2950 E30A                                   l2942 E2E8  
                                 l2934 E2AA                                   l2926 E272  
                                 l2918 E23C                                   l2870 DFE2  
                                 l2862 DFC2                                   l2854 DFAE  
                                 l2846 DF9E                                   l2838 DF8E  
                                 ?_map 051B                                   l2784 DADC  
                                 l2776 DAB8                                   l2768 DAA4  
                                 l2696 DE96                                   l2688 DE64  
                                 l3752 FF4C                                   l3744 FF0C  
                                 l3736 FED6                                   l3728 FEA4  
                                 l3680 FC38                                   l3672 FC00  
                                 l3664 FBCC                                   l3656 FB82  
                                 l3592 F942                                   l3584 F8C8  
                                 l3568 F80C                                   l3576 F84C  
                                 l3496 F610                                   l3488 F596  
                                 l2960 E3D2                                   l2952 E312  
                                 l2936 E2C6                                   l2928 E27E  
                                 l2944 E2F0                                   l2880 DFF6  
                                 l2872 DFEA                                   l2864 DFCA  
                                 l2856 DFB2                                   l2848 DFA2  
                                 l2786 D9FA                                   l2778 DABA  
                                 l2698 DE9A                                   l2794 DC78  
                                 l3754 FF50                                   l3746 FF1C  
                                 l3738 FEE8                                   l3682 FC48  
                                 l3674 FC12                                   l3690 FC88  
                                 l3666 FBDE                                   l3658 FB96  
                                 l3594 F956                                   l3586 F8DC  
                                 l3578 F856                                   l3498 F622  
                                 l2970 E46E                                   l2962 E3D6  
                                 l2954 E316                                   l2946 E2FA  
                                 l2938 E2C8                                   l2890 E0D2  
                                 l2882 DFF8                                   l2874 DFEE  
                                 l2866 DFD2                                   l2858 DFB6  
                                 l2788 DA04                                   l3756 FF6A  
                                 l3748 FF2C                                   l3692 FC9A  
                                 l3684 FC58                                   l3676 FC22  
                                 l3668 FBEE                                   l3596 F95A  
                                 l3588 F8E0                                   l2980 E4BE  
                                 l2972 E47C                                   l3764 FF74  
                                 l2964 E432                                   l2956 E372  
                                 l2948 E302                                   l2892 E12E  
                                 l2884 DFFA                                   l2876 DFF2  
                                 l2868 DFDA                                   l2798 DC00  
                                 l3694 FCCA                                   l3686 FC68  
                                 l3678 FC24                                   l3598 F98A  
                                 l2990 E502                                   l2982 E4CE  
                                 l2974 E48E                                   l2966 E446  
                                 l2958 E376                                   l2894 E18A  
                                 l2886 E01A                                   l2878 DFF4  
                                 l3696 FCFC                                   l3688 FC78  
                                 l2992 E512                                   l2976 E49E  
                                 l2984 E4D2                                   l2968 E460  
                                 l2896 E19A                                   l2888 E076  
                                 l3698 FD10                                   l2994 E522  
                                 l2986 E4E0                                   l2978 E4AE  
                                 l2898 E1AA                                   l2996 E532  
                                 l2988 E4F2                                   l2998 E536  
                                 u3000 E49E                                   u3001 E49A  
                                 u3010 E4AE                                   u3011 E4AA  
                                 u3100 E544                                   u3020 E4BE  
                                 u3101 E540                                   u3021 E4BA  
                                 _LATA 0004BE                                   u3110 E556  
                                 u3030 E4CE                                   _LATB 0004BF  
                                 u3111 E552                                   u3031 E4CA  
                                 _LATC 0004C0                                   u4000 F06A  
                                 u3200 E5EA                                   u3120 E566  
                                 u3040 E4E0                                   u4001 F066  
                                 u3201 E5E6                                   u3121 E562  
                                 u3041 E4DC                                   u4010 F09E  
                                 u3210 E5FA                                   u3130 E576  
                                 u3050 E4F2                                   u4011 F09A  
                                 u3211 E5F6                                   u3131 E572  
                                 u3051 E4EE                                   u4100 F1EA  
                                 u4020 F0D0                                   u3220 E610  
                                 u3140 E586                                   u3060 E502  
                                 u4101 F1E6                                   u4021 F0CC  
                                 u3221 E60C                                   u3141 E582  
                                 u3061 E4FE                                   u4110 F1FA  
                                 u4030 F0E4                                   u3310 E6CE  
                                 u3230 E620                                   u3150 E596  
                                 u3070 E512                                   u4111 F1F6  
                                 u4031 F0E0                                   u3311 E6CA  
                                 u3231 E61C                                   u3151 E592  
                                 u3071 E50E                                   u2600 DDDC  
                                 u5000 FEE8                                   u4200 F35E  
                                 u4120 F24C                                   u4040 F118  
                                 u3400 E77A                                   u3320 E6E2  
                                 u3240 E630                                   u3160 E5A8  
                                 u3080 E522                                   u2601 DDD8  
                                 u5001 FEE4                                   u4201 F35A  
                                 u4121 F248                                   u4041 F114  
                                 u3401 E776                                   u3321 E6DE  
                                 u3241 E62C                                   u3161 E5A4  
                                 u3081 E51E                                   u2610 DDF6  
                                 u5010 FF3A                                   u4210 F370  
                                 u4130 F25E                                   u4050 F14A  
                                 u3410 E790                                   u3330 E6F8  
                                 u3250 E640                                   u3170 E5BA  
                                 u3090 E532                                   u2611 DDF2  
                                 u5011 FF36                                   u4211 F36C  
                                 u4131 F25A                                   u4051 F146  
                                 u3411 E788                                   u3331 E6F0  
                                 u3251 E63C                                   u3171 E5B6  
                                 u3091 E52E                                   u2620 DE10  
                                 u2700 DEE2                                   u5020 FF4C  
                                 u4300 F4D6                                   u4220 F380  
                                 u4140 F2B0                                   u4060 F15E  
                                 u3500 E894                                   u3308 E6AE  
                                 u3260 E65A                                   u3180 E5CA  
                                 u2621 DE0C                                   u2701 DEDE  
                                 u5021 FF48                                   u4301 F4D2  
                                 u4221 F37C                                   u4141 F2AC  
                                 u4061 F15A                                   u3501 E890  
                                 u3261 E656                                   u3181 E5C6  
                                 u2630 DE2A                                   u2710 DF0A  
                                 u4310 F508                                   u4230 F392  
                                 u4150 F2C2                                   u4070 F192  
                                 u3510 E8A2                                   u3430 E7B4  
                                 u3350 E71A                                   u3270 E682  
                                 u3190 E5DA                                   u2631 DE26  
                                 u2711 DF06                                   u4311 F504  
                                 u4231 F38E                                   u4151 F2BE  
                                 u4071 F18E                                   u3511 E89E  
                                 u3431 E7B0                                   u3351 E716  
                                 u3271 E67E                                   u3191 E5D6  
                                 u2640 DE44                                   u2800 DC76  
                                 u2720 DF3C                                   u4400 F632  
                                 u4320 F51C                                   u4240 F3A4  
                                 u4160 F316                                   u4080 F1C4  
                                 u3600 EA64                                   u3520 E8B2  
                                 u3440 E7C4                                   u3360 E72E  
                                 u3280 E696                                   u2641 DE40  
                                 u2801 DC72                                   u2721 DF38  
                                 u4401 F62E                                   u4321 F518  
                                 u4241 F3A0                                   u4161 F312  
                                 u4081 F1C0                                   u3601 EA60  
                                 u3521 E8AE                                   u3441 E7C0  
                                 u3361 E72A                                   u3281 E692  
                                 u2570 DD8E                                   u2730 DD12  
                                 u2650 DBB2                                   u4410 F684  
                                 u4330 F550                                   u4250 F3B4  
                                 u4170 F32A                                   u4090 F1D8  
                                 u3610 EA7C                                   u3530 E928  
                                 u3450 E7D4                                   u3370 E744  
                                 u3290 E6AC                                   u2810 E01A  
                                 u2571 DD8A                                   u2731 DD0E  
                                 u2651 DBAE                                   u4411 F680  
                                 u4331 F54C                                   u4251 F3B0  
                                 u4171 F326                                   u4091 F1D4  
                                 u3611 EA78                                   u3531 E924  
                                 u3451 E7D0                                   u3371 E73C  
                                 u3291 E6A4                                   u2811 E016  
                                 u2580 DDA8                                   u2740 DD32  
                                 u2660 DBEC                                   u4500 F7A2  
                                 u4420 F696                                   u4340 F582  
                                 u4260 F42C                                   u4180 F340  
                                 u3700 EC38                                   u3620 EA94  
                                 u3540 E936                                   u3460 E7E4  
                                 u3428 E792                                   u3348 E6FA  
                                 u2900 E21A                                   u2820 E076  
                                 u2581 DDA4                                   u2741 DD2E  
                                 u2661 DBE8                                   u4501 F79E  
                                 u4421 F692                                   u4341 F57E  
                                 u4261 F428                                   u4181 F338  
                                 u3701 EC34                                   u3621 EA90  
                                 u3541 E932                                   u3461 E7E0  
                                 u2901 E216                                   u5037 E1CA  
                                 u2821 E072                                   u2590 DDC2  
                                 u2750 DD54                                   u2670 DE64  
                                 u4510 F7B2                                   u4430 F6E8  
                                 u4350 F596                                   u4270 F45C  
                                 u3710 EC52                                   u3630 EAB0  
                                 u3550 E946                                   u3470 E800  
                                 u3390 E766                                   u2910 E23C  
                                 u2830 E0D2                                   u2591 DDBE  
                                 u2751 DD50                                   u2671 DE60  
                                 u4511 F7AE                                   u4431 F6E4  
                                 u4351 F592                                   u4271 F458  
                                 u3711 EC4E                                   u3631 EAAC  
                                 u3551 E942                                   u3471 E7FC  
                                 u3391 E762                                   u2911 E238  
                                 u5047 E21E                                   u2831 E0CE  
                                 u2760 DA82                                   u2680 DE86  
                                 u4600 F942                                   u4520 F7C4  
                                 u4440 F6FA                                   u4360 F5CA  
                                 u4280 F48E                                   u3800 EDBE  
                                 u3720 EC74                                   u3640 EB00  
                                 u3560 E9BC                                   u3480 E80E  
                                 u2920 E254                                   u2840 E12E  
                                 u2761 DA7E                                   u2681 DE82  
                                 u4601 F93E                                   u4521 F7C0  
                                 u4441 F6F6                                   u4361 F5C6  
                                 u4281 F48A                                   u3801 EDBA  
                                 u3721 EC70                                   u3641 EAFC  
                                 u3561 E9B8                                   u3481 E80A  
                                 u5057 E274                                   u2921 E250  
                                 u2841 E12A                                   u2770 DAD2  
                                 u2690 DEC0                                   u4610 F956  
                                 u4530 F7D6                                   u4450 F748  
                                 u4370 F5FC                                   u4290 F4A2  
                                 u3810 EDE0                                   u3730 ECC4  
                                 u3650 EB1A                                   u3570 E9CA  
                                 u3490 E81E                                   u2930 E270  
                                 u2850 E18A                                   u2771 DACE  
                                 u2691 DEBC                                   u4611 F952  
                                 u4531 F7D2                                   u4451 F744  
                                 u4371 F5F8                                   u4291 F49E  
                                 u3811 EDDC                                   u3731 ECC0  
                                 u3651 EB16                                   u3571 E9C6  
                                 u3491 E81A                                   u5067 E2CA  
                                 u2931 E26C                                   u2851 E186  
                                 u4700 FABE                                   u4620 F98A  
                                 u4540 F7E6                                   u4460 F75C  
                                 u4380 F610                                   u3820 EE14  
                                 u3740 ECDE                                   u3660 EB5C  
                                 u3580 E9DA                                   u3388 E746  
                                 u2940 E292                                   u2860 E1AA  
                                 _PMD0 000063                                   u4701 FABA  
                                 u4621 F986                                   u4541 F7E2  
                                 u4461 F758                                   u4381 F60C  
                                 u3821 EE10                                   u3741 ECDA  
                                 u3661 EB58                                   u3581 E9D6  
                                 u5077 E438                                   u2941 E28E  
                                 u2861 E1A6                                   _PMD1 000064  
                                 u2790 DC34                                   u4710 FAD0  
                                 u4630 F9BC                                   u4550 F866  
                                 u4470 F772                                   u4390 F622  
                                 u4198 F342                                   u3910 EF26  
                                 u3830 EE2E                                   u3750 ED00  
                                 u3670 EBAC                                   u3590 EA4C  
                                 u2950 E2AA                                   u2870 E1C6  
                                 _PMD2 000065                                   u2791 DC30  
                                 u4711 FACC                                   u4631 F9B8  
                                 u4551 F862                                   u4471 F76A  
                                 u4391 F61E                                   u3911 EF22  
                                 u3831 EE2A                                   u3751 ECFC  
                                 u3671 EBA8                                   u3591 EA48  
                                 u5087 E462                                   u2951 E2A6  
                                 u2871 E1C2                                   _PMD3 000066  
                                 u4800 FBEE                                   u4720 FB22  
                                 u4640 F9D0                                   u4560 F896  
                                 u3920 EF38                                   u3840 EE50  
                                 u3760 ED34                                   u3680 EBC6  
                                 u2960 E2C6                                   u2880 E1E6  
                                 _PMD4 000067                                   u2785 DADA  
                                 u4801 FBEA                                   u4721 FB1E  
                                 u4641 F9CC                                   u4561 F892  
                                 u3921 EF34                                   u3841 EE4C  
                                 u3761 ED30                                   u3681 EBC2  
                                 u2961 E2C2                                   u2881 E1E2  
                                 _PMD5 000068                                   u2786 DADC  
                                 u4810 FC00                                   u4730 FB34  
                                 u4650 FA04                                   u4570 F8C8  
                                 u4490 F790                                   u3930 EF48  
                                 u3850 EE84                                   u3770 ED4E  
                                 u3690 EBE8                                   u2970 E2E8  
                                 u2890 E1FE                                   u4811 FBFC  
                                 u4731 FB30                                   u4651 FA00  
                                 u4571 F8C4                                   u4491 F78C  
                                 u3931 EF44                                   u3851 EE80  
                                 u3771 ED4A                                   u3691 EBE4  
                                 u2971 E2E4                                   u2891 E1FA  
                                 u4900 FD8A                                   u4820 FC12  
                                 u4740 FB82                                   u4660 FA36  
                                 u4580 F8DC                                   u3940 EF5A  
                                 u3908 EF0A                                   u3860 EE9E  
                                 u3780 ED70                                   u2980 E47C  
                                 u4901 FD86                                   u4821 FC0E  
                                 u4741 FB7E                                   u4661 FA32  
                                 u4581 F8D8                                   u3941 EF56  
                                 u3861 EE9A                                   u3781 ED6C  
                                 u2981 E478                                   u4910 FDBE  
                                 u4830 FC22                                   u4750 FB96  
                                 u4670 FA4A                                   u4590 F910  
                                 u3950 EF6C                                   u3870 EEDE  
                                 u3790 EDA4                                   u2990 E48E  
                                 u4911 FDBA                                   u4831 FC1E  
                                 u4751 FB92                                   u4671 FA46  
                                 u4591 F90C                                   u3951 EF68  
                                 u3871 EEDA                                   u3791 EDA0  
                                 u2991 E48A                                   u4920 FDF0  
                                 u4840 FC9A                                   u4760 FBAC  
                                 u4680 FA5C                                   u4488 F774  
                                 u3960 EF7C                                   u3880 EEF2  
                                 u4921 FDEC                                   u4841 FC96  
                                 u4761 FBA4                                   u4681 FA58  
                                 u3961 EF78                                   u3881 EEEE  
                                 u4930 FE04                                   u4850 FCCA  
                                 u4690 FA6C                                   u3970 EFF4  
                                 u3890 EF08                                   u4931 FE00  
                                 u4851 FCC6                                   u4691 FA68  
                                 u3971 EFF0                                   u3891 EF00  
                                 u4940 FE38                                   u4860 FCFC  
                                 u4780 FBCC                                   u3980 F024  
                                 u4941 FE34                                   u4861 FCF8  
                                 u4781 FBC8                                   u3981 F020  
                                 u4950 FE6A                                   u4870 FD10  
                                 u4790 FBDE                                   u3990 F056  
                                 u4951 FE66                                   u4871 FD0C  
                                 u4791 FBDA                                   u3991 F052  
                                 u4960 FE7E                                   u4880 FD44  
                                 u4961 FE7A                                   u4881 FD40  
                                 u4970 FE90                                   u4890 FD76  
                                 u4778 FBAE                                   u4971 FE8C  
                                 u4891 FD72                                   u4980 FEA0  
                                 u4981 FE9C                                   u4990 FED6  
                                 u4991 FED2                                   _WPUA 000401  
                                 _WPUB 000409                                   _WPUC 000411  
                                 _main DF5E                                   map@x 051B  
                                 start FFFC                  main@timeout5sPressed1 0565  
                main@timeout5sPressed2 0567                  main@timeout5sPressed3 0569  
                main@timeout5sPressed4 056B                           ___param_bank 000000  
                                ??_map 052F                         LED_WriteFull@i 0514  
                       LED_WriteFull@x 0511          __end_of_OSCILLATOR_Initialize DA4A  
                      __end_of___aldiv DF5E                                  _ADACT 0003F9  
                                _ADCAP 0003F0                                  ?_main 0501  
                                _ADCLK 0003FA                                  _ADCNT 0003E6  
                                _ADPCH 0003EC                                  _ADREF 0003F8  
                                _ADRPT 0003E7                           main@greenAdj 0577  
                      __end_of___ltdiv DD7E                                  _OSCEN 0000B3  
                         main@redMode1 058C                           main@redMode2 057F  
                         main@redMode3 0582                           main@redMode4 0585  
                                _TRISA 0004C6                                  _TRISB 0004C7  
                                _TRISC 0004C8                    ___lmul@multiplicand 0505  
                      _DATAEE_ReadByte D9FA                           main@whiteAdj 0579  
                                status 0004D8                        __initialization D9D2  
                        _LED_WriteFull DBFE                           _ws_send_byte DD7E  
                        main@led1Blink 0588                          main@led2Blink 0589  
                        main@led3Blink 058A                          main@led4Blink 058B  
                         __end_of_main FFFC                                 ??_main 052F  
                        main@blueMode1 058E                          main@blueMode2 0581  
                        main@blueMode3 0584                          main@blueMode4 0587  
                        __activetblptr 000002                                 _ADACCH 0003E4  
                               _ADACCL 0003E3                                 _ADACCU 0003E5  
                               _ADACQH 0003EF                                 _ADACQL 0003EE  
                               _ADCON0 0003F3                                 _ADCON1 0003F4  
                               _ADCON2 0003F5                                 _ADCON3 0003F6  
                               _ADERRH 0003DE                                 _ADERRL 0003DD  
                               _ACTCON 0000AC                                 _ADLTHH 0003DA  
                               _ADLTHL 0003D9                                 _ADRESH 0003EB  
                               _ADRESL 0003EA                                 _ADPREH 0003F2  
                               _ADPREL 0003F1                                 _ADSTAT 0003F7  
                               _ADUTHH 0003DC                                 _ADUTHL 0003DB  
                               _ANSELA 000400                                 _ANSELB 000408  
                               _ANSELC 000410                                 _ODCONA 000402  
                               _ODCONB 00040A                                 _ODCONC 000412  
                               _INLVLA 000404                                 _INLVLB 00040C  
                               _INLVLC 000414                                 _TABLAT 0004F5  
                               _OSCFRQ 0000B1  __end_of_ADCC_DischargeSampleCapacitor D9B4  
        _ADCC_DischargeSampleCapacitor D9AC                         ?_LED_WriteFull 050B  
                               ___lmul DB94                              ??___aldiv 0515  
                            ??___ltdiv 0507                                 isa$std 000001  
                     __end_of_onePulse DA2E                __end_of_DATAEE_ReadByte DA12  
                      _ADCC_Initialize DB38                         _PMD_Initialize DA4A  
                        main@timeout5s 0560                                 tblptru 0004F8  
            ?_ADCC_GetSingleConversion 0501                     LED_WriteFull@green 050B  
                    _SYSTEM_Initialize D9C0                             __accesstop 0560  
              __end_of__initialization D9DA                     ?_SYSTEM_Initialize 0501  
                        ___rparam_used 000001                         __pcstackCOMRAM 0501  
                  ??_SYSTEM_Initialize 0501                       _DATAEE_WriteByte DA96  
               __end_of_PMD_Initialize DA66              __end_of_SYSTEM_Initialize D9D2  
                     LED_WriteFull@red 0510                        ??_LED_WriteFull 0510  
       ?_ADCC_DischargeSampleCapacitor 0501                                ?___lmul 0501  
              __end_of_ADCC_Initialize DB94                                _ADFLTRH 0003E2  
                              _ADFLTRL 0003E1                         ___lmul@product 0509  
                              _ADPREVH 0003E9                                _ADPREVL 0003E8  
                              _ADSTPTH 0003E0                                _ADSTPTL 0003DF  
                      ?_PMD_Initialize 0501                         main@greenMode1 058D  
                       main@greenMode2 0580                         main@greenMode3 0583  
                       main@greenMode4 0586                       ?_DATAEE_ReadByte 0501  
                              _OSCCON1 0000AD                                _OSCCON3 0000AF  
                              _TBLPTRH 0004F7                                _TBLPTRL 0004F6  
                              _TBLPTRU 0004F8                                _NVMADRH 000044  
                              _NVMADRL 000043                                _NVMADRU 000045  
                              _OSCTUNE 0000B0                                _NVMDATL 000046  
                              _NVMLOCK 000042                                _SLRCONA 000403  
                              _SLRCONB 00040B                                _SLRCONC 000413  
                        _WS2812B_Write D9E4                   DATAEE_WriteByte@bAdd 0501  
                            ?_onePulse 0501                                __Hparam 0000  
                              __Lparam 0000                                ___aldiv DE52  
                              ___ltdiv DCF2                                __pcinit D9D2  
                              __ramtop 1600                                __ptext0 DF5E  
                              __ptext1 DC78                                __ptext2 DB94  
                              __ptext3 DE52                                __ptext4 D9C0  
                              __ptext5 DA4A                                __ptext6 DAE4  
                              __ptext7 DA2E                                __ptext8 DB38  
                              __ptext9 DBFE                  _OSCILLATOR_Initialize DA2E  
                     ___aldiv@dividend 050D               ??_PIN_MANAGER_Initialize 0501  
                       ?_WS2812B_Write 0502                                main@red 0590  
                 end_of_initialization D9DA                             _loopTimeMS 0534  
                       main@timeout10s 0563                          __Lmediumconst 0000  
                           ??_onePulse 0501                       ___ltdiv@dividend 0501  
                       main@whiteMode1 057E                         main@whiteMode2 056D  
                       main@whiteMode3 056E                         main@whiteMode4 056F  
                     ___aldiv@quotient 0517                       ?_ADCC_Initialize 0501  
     __end_of_ADCC_GetSingleConversion DA96                      __end_of_zeroPulse D9C0  
                            _PORTAbits 0004CE                              _PORTBbits 0004CF  
                            _PORTCbits 0004D0                     main@led1StateBlink 0570  
                     ___ltdiv@quotient 0507                     main@led2StateBlink 0571  
             __end_of_DATAEE_WriteByte DAE4                             map@out_max 052B  
                           map@out_min 0527                             main@redAdj 0576  
                   main@led3StateBlink 0572                     main@led4StateBlink 0573  
                       __end_of___lmul DBFE                 ?_OSCILLATOR_Initialize 0501  
                      ??_WS2812B_Write 0504                    start_initialization D9D2  
                          __end_of_map DCF2                    DATAEE_ReadByte@bAdd 0501  
                     ??_PMD_Initialize 0501                               ??___lmul 0509  
                    LED_WriteFull@blue 050C               _ADCC_GetSingleConversion DA66  
                          __pbssCOMRAM 0534                          __pcstackBANK5 0560  
                __end_of_LED_WriteFull DC78                 _PIN_MANAGER_Initialize DAE4  
                        ?_ws_send_byte 0501                               ?___aldiv 050D  
      ADCC_GetSingleConversion@channel 0505                               ?___ltdiv 0501  
                            _bufferRAM 001500                        ___aldiv@divisor 0511  
                      ___aldiv@counter 0515                               _LATAbits 0004BE  
                             _LATBbits 0004BF                               _LATCbits 0004C0  
                       ??_ws_send_byte 0501                               _PIR0bits 0004B3  
                      ___ltdiv@divisor 0504                        ___ltdiv@counter 050A  
                            map@in_max 0523                              map@in_min 051F  
                           _ADCON0bits 0003F3                             _ADCON1bits 0003F4  
                           _ADCON2bits 0003F5                             _ADCON3bits 0003F6  
                            main@green 0591                              _zeroPulse D9B4  
                            main@state 0593                              main@white 058F  
                DATAEE_WriteByte@bData 0503                            _INTCON0bits 0004D6  
                    ___lmul@multiplier 0501                      ?_DATAEE_WriteByte 0501  
                   ??_DATAEE_WriteByte 0504                             _ADSTATbits 0003F7  
                             __Hrparam 0000                               __Lrparam 0000  
                     main@timeout100ms 0562                       main@timeout250ms 0574  
                     main@timeout500ms 0575                          ws_send_byte@K 0501  
              ??_OSCILLATOR_Initialize 0501                             ?_zeroPulse 0501  
                             __ptext10 DCF2                               __ptext11 D9E4  
                             __ptext12 DD7E                               __ptext13 D9B4  
                             __ptext14 DA12                               __ptext15 DA96  
                             __ptext16 D9FA                               __ptext17 DA66  
                             __ptext18 D9AC            DATAEE_WriteByte@GIEBitValue 0504  
                             _onePulse DA12                      ??_DATAEE_ReadByte 0503  
                      main@taster1Flag 057A                        main@taster2Flag 057B  
                      main@taster3Flag 057D                        main@taster4Flag 057C  
                             isa$xinst 000000             ??_ADCC_GetSingleConversion 0503  
                             main@blue 0592                            _loopTimeCnt 0536  
                          _NVMCON0bits 000040                            _NVMCON1bits 000041  
                 __end_of_ws_send_byte DE52                  __end_of_WS2812B_Write D9FA  
              ?_PIN_MANAGER_Initialize 0501                  LED_WriteFull@ledcount 050D  
                          ??_zeroPulse 0501                           ___aldiv@sign 0516  
       __end_of_PIN_MANAGER_Initialize DB38                      ??_ADCC_Initialize 0501  
