

Microchip MPLAB XC8 Assembler V2.31 build 20201012212115 
                                                                                               Thu Jul 21 23:55:11 2022

Microchip MPLAB XC8 C Compiler v2.31 (Free license) build 20201012212115 Og1 
     1                           	processor	18F16Q40
     2                           	fnconf	rparam,??,?,0
     3                           	pagewidth 120
     4                           	opt	flic
     5                           	psect	smallconst,global,reloc=2,class=SMALLCONST,delta=1,noexec
     6                           	psect	nvCOMRAM,global,class=COMRAM,space=1,delta=1,lowdata,noexec
     7                           	psect	cinit,global,reloc=2,class=CODE,delta=1
     8                           	psect	bssCOMRAM,global,class=COMRAM,space=1,delta=1,lowdata,noexec
     9                           	psect	cstackBANK5,global,class=BANK5,space=1,delta=1,lowdata,noexec
    10                           	psect	cstackCOMRAM,global,class=COMRAM,space=1,delta=1,lowdata,noexec
    11                           	psect	text0,global,reloc=2,class=CODE,delta=1
    12                           	psect	text1,global,reloc=2,class=CODE,delta=1
    13                           	psect	text2,global,reloc=2,class=CODE,delta=1,group=1
    14                           	psect	text3,global,reloc=2,class=CODE,delta=1,group=1
    15                           	psect	text4,global,reloc=2,class=CODE,delta=1
    16                           	psect	text5,global,reloc=2,class=CODE,delta=1
    17                           	psect	text6,global,reloc=2,class=CODE,delta=1
    18                           	psect	text7,global,reloc=2,class=CODE,delta=1
    19                           	psect	text8,global,reloc=2,class=CODE,delta=1
    20                           	psect	text9,global,reloc=2,class=CODE,delta=1
    21                           	psect	text10,global,reloc=2,class=CODE,delta=1
    22                           	psect	text11,global,reloc=2,class=CODE,delta=1
    23                           	psect	text12,global,reloc=2,class=CODE,delta=1
    24                           	psect	text13,global,reloc=2,class=CODE,delta=1
    25                           	psect	text14,global,reloc=2,class=CODE,delta=1
    26                           	psect	text15,global,reloc=2,class=CODE,delta=1
    27                           	psect	text16,global,reloc=2,class=CODE,delta=1
    28                           	psect	text17,global,reloc=2,class=CODE,delta=1
    29                           	psect	text18,global,reloc=2,class=CODE,delta=1
    30                           	psect	text19,global,reloc=2,class=CODE,delta=1
    31                           	psect	text20,global,reloc=2,class=CODE,delta=1
    32                           	psect	text21,global,reloc=2,class=CODE,delta=1
    33                           	psect	text22,global,reloc=2,class=CODE,delta=1
    34                           	psect	text23,global,reloc=2,class=CODE,delta=1
    35                           	psect	text24,global,reloc=2,class=CODE,delta=1
    36                           	psect	text25,global,reloc=2,class=CODE,delta=1
    37                           	psect	text26,global,reloc=2,class=CODE,delta=1
    38                           	psect	text27,global,reloc=2,class=CODE,delta=1
    39                           	psect	text28,global,reloc=2,class=CODE,delta=1
    40                           	psect	text29,global,reloc=2,class=CODE,delta=1
    41                           	psect	text30,global,reloc=2,class=CODE,delta=1
    42                           	psect	ivt0x8,global,reloc=2,class=CODE,delta=1,noexec,keep,optim=
    43                           	psect	intsave_regs,global,class=BIGRAM,space=1,delta=1,noexec
    44                           	psect	text31,global,reloc=2,class=CODE,delta=1
    45                           	psect	rparam,global,class=COMRAM,space=1,delta=1,noexec
    46                           	psect	idloc,global,abs,ovrld,class=IDLOC,space=5,delta=1,noexec
    47                           	psect	config,global,abs,ovrld,class=CONFIG,space=4,delta=1,noexec
    48                           	dabs	1,0x1500,2,_bufferRAM
    49  0000                     
    50                           ; Version 2.30
    51                           ; Generated 20/08/2020 GMT
    52                           ; 
    53                           ; Copyright © 2020, Microchip Technology Inc. and its subsidiaries ("Microchip")
    54                           ; All rights reserved.
    55                           ; 
    56                           ; This software is developed by Microchip Technology Inc. and its subsidiaries ("Microch
      +                          ip").
    57                           ; 
    58                           ; Redistribution and use in source and binary forms, with or without modification, are
    59                           ; permitted provided that the following conditions are met:
    60                           ; 
    61                           ;     1. Redistributions of source code must retain the above copyright notice, this lis
      +                          t of
    62                           ;        conditions and the following disclaimer.
    63                           ; 
    64                           ;     2. Redistributions in binary form must reproduce the above copyright notice, this 
      +                          list
    65                           ;        of conditions and the following disclaimer in the documentation and/or other
    66                           ;        materials provided with the distribution. Publication is not required when
    67                           ;        this file is used in an embedded application.
    68                           ; 
    69                           ;     3. Microchip's name may not be used to endorse or promote products derived from th
      +                          is
    70                           ;        software without specific prior written permission.
    71                           ; 
    72                           ; THIS SOFTWARE IS PROVIDED BY MICROCHIP "AS IS" AND ANY EXPRESS OR IMPLIED WARRANTIES,
    73                           ; INCLUDING, BUT NOT LIMITED TO, THE IMPLIED WARRANTIES OF MERCHANTABILITY AND FITNESS F
      +                          OR
    74                           ; PURPOSE ARE DISCLAIMED.  IN NO EVENT SHALL MICROCHIP BE LIABLE FOR ANY DIRECT, INDIREC
      +                          T,
    75                           ; INCIDENTAL, SPECIAL, EXEMPLARY, OR CONSEQUENTIAL DAMAGES (INCLUDING BUT NOT LIMITED TO
    76                           ; PROCUREMENT OF SUBSTITUTE GOODS OR SERVICES; LOSS OF USE, DATA OR PROFITS; OR BUSINESS
    77                           ; INTERRUPTION) HOWSOEVER CAUSED AND ON ANY THEORY OF LIABILITY, WHETHER IN CONTRACT, ST
      +                          RICT
    78                           ; LIABILITY, OR TORT (INCLUDING NEGLIGENCE OR OTHERWISE) ARISING IN ANY WAY OUT OF THE U
      +                          SE OF
    79                           ; THIS SOFTWARE, EVEN IF ADVISED OF THE POSSIBILITY OF SUCH DAMAGE.
    80                           ; 
    81                           ; 
    82                           ; Code-generator required, PIC18F16Q40 Definitions
    83                           ; 
    84                           ; SFR Addresses
    85  0000                     
    86                           	psect	smallconst
    87  001600                     __psmallconst:
    88                           	callstack 0
    89  001600  00                 	db	0
    90  001601                     _spi1_configuration:
    91                           	callstack 0
    92  001601  02                 	db	2
    93  001602  40                 	db	64
    94  001603  00                 	db	0
    95  001604  03                 	db	3
    96  001605  00                 	db	0
    97  001606                     __end_of_spi1_configuration:
    98                           	callstack 0
    99  001606  00                 	db	0	; dummy byte at the end
   100  0000                     
   101                           	psect	nvCOMRAM
   102  00053A                     __pnvCOMRAM:
   103                           	callstack 0
   104  00053A                     _TMR2_InterruptHandler:
   105                           	callstack 0
   106  00053A                     	ds	2
   107  0000                     _NVMDATL	set	70
   108  0000                     _NVMCON0bits	set	64
   109  0000                     _NVMLOCK	set	66
   110  0000                     _NVMCON1bits	set	65
   111  0000                     _NVMADRL	set	67
   112  0000                     _NVMADRH	set	68
   113  0000                     _NVMADRU	set	69
   114  0000                     _SPI1RXB	set	128
   115  0000                     _SPI1TXB	set	129
   116  0000                     _SPI1TCNTL	set	130
   117  0000                     _SPI1CON0bits	set	132
   118  0000                     _SPI1BAUD	set	137
   119  0000                     _SPI1CLK	set	140
   120  0000                     _SPI1CON2	set	134
   121  0000                     _SPI1CON1	set	133
   122  0000                     _SPI1CON0	set	132
   123  0000                     _PMD5	set	104
   124  0000                     _PMD4	set	103
   125  0000                     _PMD3	set	102
   126  0000                     _PMD2	set	101
   127  0000                     _PMD1	set	100
   128  0000                     _PMD0	set	99
   129  0000                     _ACTCON	set	172
   130  0000                     _OSCTUNE	set	176
   131  0000                     _OSCFRQ	set	177
   132  0000                     _OSCEN	set	179
   133  0000                     _OSCCON3	set	175
   134  0000                     _OSCCON1	set	173
   135  0000                     _SPI1SDIPPS	set	619
   136  0000                     _RB4PPS	set	525
   137  0000                     _RB6PPS	set	527
   138  0000                     _SPI1SCKPPS	set	618
   139  0000                     _PR2	set	797
   140  0000                     _TMR2	set	796
   141  0000                     _T2CONbits	set	798
   142  0000                     _T2RSTbits	set	801
   143  0000                     _T2HLTbits	set	799
   144  0000                     _T2CON	set	798
   145  0000                     _T2TMR	set	796
   146  0000                     _T2PR	set	797
   147  0000                     _T2RST	set	801
   148  0000                     _T2HLT	set	799
   149  0000                     _T2CLKCON	set	800
   150  0000                     _ADCON1bits	set	1012
   151  0000                     _ADERRL	set	989
   152  0000                     _ADERRH	set	990
   153  0000                     _ADPREVL	set	1000
   154  0000                     _ADPREVH	set	1001
   155  0000                     _ADFLTRL	set	993
   156  0000                     _ADFLTRH	set	994
   157  0000                     _ADSTATbits	set	1015
   158  0000                     _ADACCL	set	995
   159  0000                     _ADACCH	set	996
   160  0000                     _ADCON2bits	set	1013
   161  0000                     _ADCNT	set	998
   162  0000                     _ADCON3bits	set	1014
   163  0000                     _ADRESL	set	1002
   164  0000                     _ADRESH	set	1003
   165  0000                     _ADCON0bits	set	1011
   166  0000                     _ADCON0	set	1011
   167  0000                     _ADCLK	set	1018
   168  0000                     _ADACT	set	1017
   169  0000                     _ADREF	set	1016
   170  0000                     _ADSTAT	set	1015
   171  0000                     _ADCON3	set	1014
   172  0000                     _ADCON2	set	1013
   173  0000                     _ADCON1	set	1012
   174  0000                     _ADPREH	set	1010
   175  0000                     _ADPREL	set	1009
   176  0000                     _ADCAP	set	1008
   177  0000                     _ADACQH	set	1007
   178  0000                     _ADACQL	set	1006
   179  0000                     _ADPCH	set	1004
   180  0000                     _ADRPT	set	999
   181  0000                     _ADACCU	set	997
   182  0000                     _ADSTPTH	set	992
   183  0000                     _ADSTPTL	set	991
   184  0000                     _ADUTHH	set	988
   185  0000                     _ADUTHL	set	987
   186  0000                     _ADLTHH	set	986
   187  0000                     _ADLTHL	set	985
   188  0000                     _INLVLC	set	1044
   189  0000                     _INLVLB	set	1036
   190  0000                     _INLVLA	set	1028
   191  0000                     _SLRCONC	set	1043
   192  0000                     _SLRCONB	set	1035
   193  0000                     _SLRCONA	set	1027
   194  0000                     _ODCONC	set	1042
   195  0000                     _ODCONB	set	1034
   196  0000                     _ODCONA	set	1026
   197  0000                     _WPUC	set	1041
   198  0000                     _WPUA	set	1025
   199  0000                     _WPUB	set	1033
   200  0000                     _ANSELA	set	1024
   201  0000                     _ANSELB	set	1032
   202  0000                     _ANSELC	set	1040
   203  0000                     _PORTBbits	set	1231
   204  0000                     _PORTAbits	set	1230
   205  0000                     _PORTCbits	set	1232
   206  0000                     _LATAbits	set	1214
   207  0000                     _LATCbits	set	1216
   208  0000                     _PIE3bits	set	1195
   209  0000                     _PIR0bits	set	1203
   210  0000                     _INTCON0bits	set	1238
   211  0000                     _TABLAT	set	1269
   212  0000                     _TBLPTRL	set	1270
   213  0000                     _TBLPTRH	set	1271
   214  0000                     _TBLPTRU	set	1272
   215  0000                     _PIR3bits	set	1206
   216  0000                     _TRISBbits	set	1223
   217  0000                     _TRISC	set	1224
   218  0000                     _TRISB	set	1223
   219  0000                     _TRISA	set	1222
   220  0000                     _LATC	set	1216
   221  0000                     _LATB	set	1215
   222  0000                     _LATA	set	1214
   223                           
   224                           ; #config settings
   225                           
   226                           	psect	cinit
   227  003E4A                     __pcinit:
   228                           	callstack 0
   229  003E4A                     start_initialization:
   230                           	callstack 0
   231  003E4A                     __initialization:
   232                           	callstack 0
   233                           
   234                           ; Clear objects allocated to COMRAM (4 bytes)
   235  003E4A  6A39               	clrf	(__pbssCOMRAM+3)& (0+255),c
   236  003E4C  6A38               	clrf	(__pbssCOMRAM+2)& (0+255),c
   237  003E4E  6A37               	clrf	(__pbssCOMRAM+1)& (0+255),c
   238  003E50  6A36               	clrf	__pbssCOMRAM& (0+255),c
   239                           
   240                           ;
   241                           ; Setup IVTBASE
   242                           ;
   243  003E52  0104               	movlb	4
   244  003E54  0E08               	movlw	(ivt0x8_base shr 0)& (0+255)
   245  003E56  6F5D               	movwf	93,b
   246  003E58  0E00               	movlw	(ivt0x8_base shr (0+8))& (0+255)
   247  003E5A  6F5E               	movwf	94,b
   248  003E5C  0E00               	movlw	(ivt0x8_base shr (0+16))& (0+255)
   249  003E5E  6F5F               	movwf	95,b
   250  003E60                     end_of_initialization:
   251                           	callstack 0
   252  003E60                     __end_of__initialization:
   253                           	callstack 0
   254  003E60  0100               	movlb	0
   255  003E62  EF04  F00B         	goto	_main	;jump to C main() function
   256                           
   257                           	psect	bssCOMRAM
   258  000536                     __pbssCOMRAM:
   259                           	callstack 0
   260  000536                     _loopTimeMS:
   261                           	callstack 0
   262  000536                     	ds	2
   263  000538                     _loopTimeCnt:
   264                           	callstack 0
   265  000538                     	ds	2
   266                           
   267                           	psect	cstackBANK5
   268  000560                     __pcstackBANK5:
   269                           	callstack 0
   270  000560                     main@timeout5s:
   271                           	callstack 0
   272                           
   273                           ; 2 bytes @ 0x0
   274  000560                     	ds	2
   275  000562                     main@timeout100ms:
   276                           	callstack 0
   277                           
   278                           ; 1 bytes @ 0x2
   279  000562                     	ds	1
   280  000563                     main@timeout10s:
   281                           	callstack 0
   282                           
   283                           ; 2 bytes @ 0x3
   284  000563                     	ds	2
   285  000565                     main@timeout5sPressed1:
   286                           	callstack 0
   287                           
   288                           ; 2 bytes @ 0x5
   289  000565                     	ds	2
   290  000567                     main@timeout5sPressed2:
   291                           	callstack 0
   292                           
   293                           ; 2 bytes @ 0x7
   294  000567                     	ds	2
   295  000569                     main@timeout5sPressed3:
   296                           	callstack 0
   297                           
   298                           ; 2 bytes @ 0x9
   299  000569                     	ds	2
   300  00056B                     main@timeout5sPressed4:
   301                           	callstack 0
   302                           
   303                           ; 2 bytes @ 0xB
   304  00056B                     	ds	2
   305  00056D                     main@led1StateBlink:
   306                           	callstack 0
   307                           
   308                           ; 1 bytes @ 0xD
   309  00056D                     	ds	1
   310  00056E                     main@led2StateBlink:
   311                           	callstack 0
   312                           
   313                           ; 1 bytes @ 0xE
   314  00056E                     	ds	1
   315  00056F                     main@led3StateBlink:
   316                           	callstack 0
   317                           
   318                           ; 1 bytes @ 0xF
   319  00056F                     	ds	1
   320  000570                     main@led4StateBlink:
   321                           	callstack 0
   322                           
   323                           ; 1 bytes @ 0x10
   324  000570                     	ds	1
   325  000571                     main@timeout250ms:
   326                           	callstack 0
   327                           
   328                           ; 1 bytes @ 0x11
   329  000571                     	ds	1
   330  000572                     main@timeout500ms:
   331                           	callstack 0
   332                           
   333                           ; 1 bytes @ 0x12
   334  000572                     	ds	1
   335  000573                     main@redAdj:
   336                           	callstack 0
   337                           
   338                           ; 1 bytes @ 0x13
   339  000573                     	ds	1
   340  000574                     main@greenAdj:
   341                           	callstack 0
   342                           
   343                           ; 1 bytes @ 0x14
   344  000574                     	ds	1
   345  000575                     main@blueAdj:
   346                           	callstack 0
   347                           
   348                           ; 1 bytes @ 0x15
   349  000575                     	ds	1
   350  000576                     main@whiteAdj:
   351                           	callstack 0
   352                           
   353                           ; 1 bytes @ 0x16
   354  000576                     	ds	1
   355  000577                     main@taster1Flag:
   356                           	callstack 0
   357                           
   358                           ; 1 bytes @ 0x17
   359  000577                     	ds	1
   360  000578                     main@taster2Flag:
   361                           	callstack 0
   362                           
   363                           ; 1 bytes @ 0x18
   364  000578                     	ds	1
   365  000579                     main@taster4Flag:
   366                           	callstack 0
   367                           
   368                           ; 1 bytes @ 0x19
   369  000579                     	ds	1
   370  00057A                     main@taster3Flag:
   371                           	callstack 0
   372                           
   373                           ; 1 bytes @ 0x1A
   374  00057A                     	ds	1
   375  00057B                     main@redMode2:
   376                           	callstack 0
   377                           
   378                           ; 1 bytes @ 0x1B
   379  00057B                     	ds	1
   380  00057C                     main@greenMode2:
   381                           	callstack 0
   382                           
   383                           ; 1 bytes @ 0x1C
   384  00057C                     	ds	1
   385  00057D                     main@blueMode2:
   386                           	callstack 0
   387                           
   388                           ; 1 bytes @ 0x1D
   389  00057D                     	ds	1
   390  00057E                     main@redMode3:
   391                           	callstack 0
   392                           
   393                           ; 1 bytes @ 0x1E
   394  00057E                     	ds	1
   395  00057F                     main@greenMode3:
   396                           	callstack 0
   397                           
   398                           ; 1 bytes @ 0x1F
   399  00057F                     	ds	1
   400  000580                     main@blueMode3:
   401                           	callstack 0
   402                           
   403                           ; 1 bytes @ 0x20
   404  000580                     	ds	1
   405  000581                     main@redMode4:
   406                           	callstack 0
   407                           
   408                           ; 1 bytes @ 0x21
   409  000581                     	ds	1
   410  000582                     main@greenMode4:
   411                           	callstack 0
   412                           
   413                           ; 1 bytes @ 0x22
   414  000582                     	ds	1
   415  000583                     main@blueMode4:
   416                           	callstack 0
   417                           
   418                           ; 1 bytes @ 0x23
   419  000583                     	ds	1
   420  000584                     main@whiteMode2:
   421                           	callstack 0
   422                           
   423                           ; 1 bytes @ 0x24
   424  000584                     	ds	1
   425  000585                     main@whiteMode3:
   426                           	callstack 0
   427                           
   428                           ; 1 bytes @ 0x25
   429  000585                     	ds	1
   430  000586                     main@whiteMode4:
   431                           	callstack 0
   432                           
   433                           ; 1 bytes @ 0x26
   434  000586                     	ds	1
   435  000587                     main@led1Blink:
   436                           	callstack 0
   437                           
   438                           ; 1 bytes @ 0x27
   439  000587                     	ds	1
   440  000588                     main@led2Blink:
   441                           	callstack 0
   442                           
   443                           ; 1 bytes @ 0x28
   444  000588                     	ds	1
   445  000589                     main@led3Blink:
   446                           	callstack 0
   447                           
   448                           ; 1 bytes @ 0x29
   449  000589                     	ds	1
   450  00058A                     main@led4Blink:
   451                           	callstack 0
   452                           
   453                           ; 1 bytes @ 0x2A
   454  00058A                     	ds	1
   455  00058B                     main@redMode1:
   456                           	callstack 0
   457                           
   458                           ; 1 bytes @ 0x2B
   459  00058B                     	ds	1
   460  00058C                     main@greenMode1:
   461                           	callstack 0
   462                           
   463                           ; 1 bytes @ 0x2C
   464  00058C                     	ds	1
   465  00058D                     main@blueMode1:
   466                           	callstack 0
   467                           
   468                           ; 1 bytes @ 0x2D
   469  00058D                     	ds	1
   470  00058E                     main@whiteMode1:
   471                           	callstack 0
   472                           
   473                           ; 1 bytes @ 0x2E
   474  00058E                     	ds	1
   475  00058F                     main@red:
   476                           	callstack 0
   477                           
   478                           ; 1 bytes @ 0x2F
   479  00058F                     	ds	1
   480  000590                     main@green:
   481                           	callstack 0
   482                           
   483                           ; 1 bytes @ 0x30
   484  000590                     	ds	1
   485  000591                     main@blue:
   486                           	callstack 0
   487                           
   488                           ; 1 bytes @ 0x31
   489  000591                     	ds	1
   490  000592                     main@white:
   491                           	callstack 0
   492                           
   493                           ; 1 bytes @ 0x32
   494  000592                     	ds	1
   495  000593                     main@state:
   496                           	callstack 0
   497                           
   498                           ; 1 bytes @ 0x33
   499  000593                     	ds	1
   500                           
   501                           	psect	cstackCOMRAM
   502  000501                     __pcstackCOMRAM:
   503                           	callstack 0
   504  000501                     ??_SPI1_Open:
   505  000501                     ?_ADCC_GetSingleConversion:
   506                           	callstack 0
   507  000501                     ?___lmul:
   508                           	callstack 0
   509  000501                     SPI1_ExchangeByte@data:
   510                           	callstack 0
   511  000501                     DATAEE_WriteByte@bAdd:
   512                           	callstack 0
   513  000501                     DATAEE_ReadByte@bAdd:
   514                           	callstack 0
   515  000501                     TMR2_SetInterruptHandler@InterruptHandler:
   516                           	callstack 0
   517  000501                     LOOPDELAY_Init@newLoopTimeMS:
   518                           	callstack 0
   519  000501                     ___lmul@multiplier:
   520                           	callstack 0
   521                           
   522                           ; 4 bytes @ 0x0
   523  000501                     	ds	1
   524  000502                     SPI1_Open@spi1UniqueConfiguration:
   525                           	callstack 0
   526  000502                     ws_send_byte@K:
   527                           	callstack 0
   528                           
   529                           ; 1 bytes @ 0x1
   530  000502                     	ds	1
   531  000503                     ??_ADCC_GetSingleConversion:
   532  000503                     DATAEE_WriteByte@bData:
   533                           	callstack 0
   534  000503                     WS2812B_Write@G:
   535                           	callstack 0
   536                           
   537                           ; 1 bytes @ 0x2
   538  000503                     	ds	1
   539  000504                     DATAEE_WriteByte@GIEBitValue:
   540                           	callstack 0
   541  000504                     WS2812B_Write@B:
   542                           	callstack 0
   543                           
   544                           ; 1 bytes @ 0x3
   545  000504                     	ds	1
   546  000505                     ADCC_GetSingleConversion@channel:
   547                           	callstack 0
   548  000505                     WS2812B_Write@W:
   549                           	callstack 0
   550  000505                     ___lmul@multiplicand:
   551                           	callstack 0
   552                           
   553                           ; 4 bytes @ 0x4
   554  000505                     	ds	1
   555  000506                     WS2812B_Write@R:
   556                           	callstack 0
   557                           
   558                           ; 1 bytes @ 0x5
   559  000506                     	ds	1
   560  000507                     LED_WriteFull@green:
   561                           	callstack 0
   562                           
   563                           ; 1 bytes @ 0x6
   564  000507                     	ds	1
   565  000508                     LED_WriteFull@blue:
   566                           	callstack 0
   567                           
   568                           ; 1 bytes @ 0x7
   569  000508                     	ds	1
   570  000509                     LED_WriteFull@white:
   571                           	callstack 0
   572  000509                     ___lmul@product:
   573                           	callstack 0
   574                           
   575                           ; 4 bytes @ 0x8
   576  000509                     	ds	1
   577  00050A                     LED_WriteFull@ledcount:
   578                           	callstack 0
   579                           
   580                           ; 3 bytes @ 0x9
   581  00050A                     	ds	3
   582  00050D                     ?___aldiv:
   583                           	callstack 0
   584  00050D                     LED_WriteFull@red:
   585                           	callstack 0
   586  00050D                     ___aldiv@dividend:
   587                           	callstack 0
   588                           
   589                           ; 4 bytes @ 0xC
   590  00050D                     	ds	1
   591  00050E                     LED_WriteFull@i:
   592                           	callstack 0
   593                           
   594                           ; 3 bytes @ 0xD
   595  00050E                     	ds	3
   596  000511                     ___aldiv@divisor:
   597                           	callstack 0
   598                           
   599                           ; 4 bytes @ 0x10
   600  000511                     	ds	4
   601  000515                     ___aldiv@counter:
   602                           	callstack 0
   603                           
   604                           ; 1 bytes @ 0x14
   605  000515                     	ds	1
   606  000516                     ___aldiv@sign:
   607                           	callstack 0
   608                           
   609                           ; 1 bytes @ 0x15
   610  000516                     	ds	1
   611  000517                     ___aldiv@quotient:
   612                           	callstack 0
   613                           
   614                           ; 4 bytes @ 0x16
   615  000517                     	ds	4
   616  00051B                     ?_map:
   617                           	callstack 0
   618  00051B                     map@x:
   619                           	callstack 0
   620                           
   621                           ; 4 bytes @ 0x1A
   622  00051B                     	ds	4
   623  00051F                     map@in_min:
   624                           	callstack 0
   625                           
   626                           ; 4 bytes @ 0x1E
   627  00051F                     	ds	4
   628  000523                     map@in_max:
   629                           	callstack 0
   630                           
   631                           ; 4 bytes @ 0x22
   632  000523                     	ds	4
   633  000527                     map@out_min:
   634                           	callstack 0
   635                           
   636                           ; 4 bytes @ 0x26
   637  000527                     	ds	4
   638  00052B                     map@out_max:
   639                           	callstack 0
   640                           
   641                           ; 4 bytes @ 0x2A
   642  00052B                     	ds	4
   643  00052F                     ??_main:
   644                           
   645                           ; 1 bytes @ 0x2E
   646  00052F                     	ds	7
   647                           
   648 ;;
   649 ;;Main: autosize = 0, tempsize = 7, incstack = 0, save=0
   650 ;;
   651 ;; *************** function _main *****************
   652 ;; Defined at:
   653 ;;		line 42 in file "main.c"
   654 ;; Parameters:    Size  Location     Type
   655 ;;		None
   656 ;; Auto vars:     Size  Location     Type
   657 ;;  timeout5sPre    2   11[BANK5 ] unsigned short 
   658 ;;  timeout5sPre    2    9[BANK5 ] unsigned short 
   659 ;;  timeout5sPre    2    7[BANK5 ] unsigned short 
   660 ;;  timeout5sPre    2    5[BANK5 ] unsigned short 
   661 ;;  timeout10s      2    3[BANK5 ] unsigned short 
   662 ;;  timeout5s       2    0[BANK5 ] unsigned short 
   663 ;;  state           1   51[BANK5 ] enum E13475
   664 ;;  white           1   50[BANK5 ] unsigned char 
   665 ;;  blue            1   49[BANK5 ] unsigned char 
   666 ;;  green           1   48[BANK5 ] unsigned char 
   667 ;;  red             1   47[BANK5 ] unsigned char 
   668 ;;  whiteMode1      1   46[BANK5 ] unsigned char 
   669 ;;  blueMode1       1   45[BANK5 ] unsigned char 
   670 ;;  greenMode1      1   44[BANK5 ] unsigned char 
   671 ;;  redMode1        1   43[BANK5 ] unsigned char 
   672 ;;  led4Blink       1   42[BANK5 ] _Bool 
   673 ;;  led3Blink       1   41[BANK5 ] _Bool 
   674 ;;  led2Blink       1   40[BANK5 ] _Bool 
   675 ;;  led1Blink       1   39[BANK5 ] _Bool 
   676 ;;  whiteMode4      1   38[BANK5 ] unsigned char 
   677 ;;  whiteMode3      1   37[BANK5 ] unsigned char 
   678 ;;  whiteMode2      1   36[BANK5 ] unsigned char 
   679 ;;  blueMode4       1   35[BANK5 ] unsigned char 
   680 ;;  greenMode4      1   34[BANK5 ] unsigned char 
   681 ;;  redMode4        1   33[BANK5 ] unsigned char 
   682 ;;  blueMode3       1   32[BANK5 ] unsigned char 
   683 ;;  greenMode3      1   31[BANK5 ] unsigned char 
   684 ;;  redMode3        1   30[BANK5 ] unsigned char 
   685 ;;  blueMode2       1   29[BANK5 ] unsigned char 
   686 ;;  greenMode2      1   28[BANK5 ] unsigned char 
   687 ;;  redMode2        1   27[BANK5 ] unsigned char 
   688 ;;  taster3Flag     1   26[BANK5 ] unsigned char 
   689 ;;  taster4Flag     1   25[BANK5 ] unsigned char 
   690 ;;  taster2Flag     1   24[BANK5 ] unsigned char 
   691 ;;  taster1Flag     1   23[BANK5 ] unsigned char 
   692 ;;  whiteAdj        1   22[BANK5 ] _Bool 
   693 ;;  blueAdj         1   21[BANK5 ] _Bool 
   694 ;;  greenAdj        1   20[BANK5 ] _Bool 
   695 ;;  redAdj          1   19[BANK5 ] _Bool 
   696 ;;  timeout500ms    1   18[BANK5 ] unsigned char 
   697 ;;  timeout250ms    1   17[BANK5 ] unsigned char 
   698 ;;  led4StateBli    1   16[BANK5 ] _Bool 
   699 ;;  led3StateBli    1   15[BANK5 ] _Bool 
   700 ;;  led2StateBli    1   14[BANK5 ] _Bool 
   701 ;;  led1StateBli    1   13[BANK5 ] _Bool 
   702 ;;  timeout100ms    1    2[BANK5 ] unsigned char 
   703 ;;  timeout1s       1    0        unsigned char 
   704 ;; Return value:  Size  Location     Type
   705 ;;                  1    wreg      void 
   706 ;; Registers used:
   707 ;;		wreg, status,2, status,0, tblptrl, tblptrh, tblptru, prodl, prodh, cstack
   708 ;; Tracked objects:
   709 ;;		On entry : 0/0
   710 ;;		On exit  : 0/0
   711 ;;		Unchanged: 0/0
   712 ;; Data sizes:     COMRAM   BANK5   BANK6   BANK7   BANK8   BANK9  BANK10  BANK11  BANK12  BANK13  BANK14  BANK15  BANK1
      +6  BANK17  BANK18  BANK19  BANK20  BANK21
   713 ;;      Params:         0       0       0       0       0       0       0       0       0       0       0       0       
      +0       0       0       0       0       0
   714 ;;      Locals:         0      52       0       0       0       0       0       0       0       0       0       0       
      +0       0       0       0       0       0
   715 ;;      Temps:          7       0       0       0       0       0       0       0       0       0       0       0       
      +0       0       0       0       0       0
   716 ;;      Totals:         7      52       0       0       0       0       0       0       0       0       0       0       
      +0       0       0       0       0       0
   717 ;;Total ram usage:       59 bytes
   718 ;; Hardware stack levels required when called:    9
   719 ;; This function calls:
   720 ;;		_ADCC_DischargeSampleCapacitor
   721 ;;		_ADCC_GetSingleConversion
   722 ;;		_DATAEE_ReadByte
   723 ;;		_DATAEE_WriteByte
   724 ;;		_LED_WriteFull
   725 ;;		_LOOPDELAY_Init
   726 ;;		_LOOPDELAY_Wait
   727 ;;		_SPI1_Open
   728 ;;		_SYSTEM_Initialize
   729 ;;		_TMR2_SetInterruptHandler
   730 ;;		_map
   731 ;; This function is called by:
   732 ;;		Startup code after reset
   733 ;; This function uses a non-reentrant model
   734 ;;
   735                           
   736                           	psect	text0
   737  001608                     __ptext0:
   738                           	callstack 0
   739  001608                     _main:
   740                           	callstack 119
   741  001608                     
   742                           ;main.c: 45:     SYSTEM_Initialize();
   743  001608  EC07  F01F         	call	_SYSTEM_Initialize	;wreg free
   744  00160C                     
   745                           ;main.c: 46:     SPI1_Open(SPI1_DEFAULT);
   746  00160C  0E00               	movlw	0
   747  00160E  EC96  F01C         	call	_SPI1_Open
   748  001612                     
   749                           ;main.c: 47:     (INTCON0bits.GIE = 1);
   750  001612  8ED6               	bsf	214,7,c	;volatile
   751  001614                     
   752                           ;main.c: 49:     TMR2_SetInterruptHandler(LOOPDELAY_TimerISR);
   753  001614  0E2C               	movlw	low _LOOPDELAY_TimerISR
   754  001616  6E01               	movwf	TMR2_SetInterruptHandler@InterruptHandler^(0+1280),c
   755  001618  0E3E               	movlw	high _LOOPDELAY_TimerISR
   756  00161A  6E02               	movwf	(TMR2_SetInterruptHandler@InterruptHandler+1)^(0+1280),c
   757  00161C  EC77  F01F         	call	_TMR2_SetInterruptHandler	;wreg free
   758  001620                     
   759                           ;main.c: 52:     uint8_t redMode1, greenMode1, blueMode1, whiteMode1 = 20;
   760  001620  0E14               	movlw	20
   761  001622  0105               	movlb	5	; () banked
   762  001624  6F8E               	movwf	main@whiteMode1& (0+255),b
   763  001626                     
   764                           ; BSR set to: 5
   765                           ;main.c: 53:     uint8_t redMode2, greenMode2, blueMode2, whiteMode2 = 255;
   766  001626  6984               	setf	main@whiteMode2& (0+255),b
   767  001628                     
   768                           ; BSR set to: 5
   769                           ;main.c: 54:     uint8_t redMode3, greenMode3, blueMode3, whiteMode3 = 50;
   770  001628  0E32               	movlw	50
   771  00162A  6F85               	movwf	main@whiteMode3& (0+255),b
   772  00162C                     
   773                           ; BSR set to: 5
   774                           ;main.c: 55:     uint8_t redMode4, greenMode4, blueMode4, whiteMode4 = 0;
   775  00162C  0E00               	movlw	0
   776  00162E  6F86               	movwf	main@whiteMode4& (0+255),b
   777  001630                     
   778                           ; BSR set to: 5
   779                           ;main.c: 56:     uint8_t taster1Flag = 0;
   780  001630  0E00               	movlw	0
   781  001632  6F77               	movwf	main@taster1Flag& (0+255),b
   782  001634                     
   783                           ; BSR set to: 5
   784                           ;main.c: 57:     uint8_t taster2Flag = 0;
   785  001634  0E00               	movlw	0
   786  001636  6F78               	movwf	main@taster2Flag& (0+255),b
   787  001638                     
   788                           ; BSR set to: 5
   789                           ;main.c: 58:     uint8_t taster3Flag = 0;
   790  001638  0E00               	movlw	0
   791  00163A  6F7A               	movwf	main@taster3Flag& (0+255),b
   792  00163C                     
   793                           ; BSR set to: 5
   794                           ;main.c: 59:     uint8_t taster4Flag = 0;
   795  00163C  0E00               	movlw	0
   796  00163E  6F79               	movwf	main@taster4Flag& (0+255),b
   797  001640                     
   798                           ; BSR set to: 5
   799                           ;main.c: 62:     _Bool led1Blink = 0;
   800  001640  0E00               	movlw	0
   801  001642  6F87               	movwf	main@led1Blink& (0+255),b
   802  001644                     
   803                           ; BSR set to: 5
   804                           ;main.c: 63:     _Bool led2Blink = 0;
   805  001644  0E00               	movlw	0
   806  001646  6F88               	movwf	main@led2Blink& (0+255),b
   807  001648                     
   808                           ; BSR set to: 5
   809                           ;main.c: 64:     _Bool led3Blink = 0;
   810  001648  0E00               	movlw	0
   811  00164A  6F89               	movwf	main@led3Blink& (0+255),b
   812  00164C                     
   813                           ; BSR set to: 5
   814                           ;main.c: 65:     _Bool led4Blink = 0;
   815  00164C  0E00               	movlw	0
   816  00164E  6F8A               	movwf	main@led4Blink& (0+255),b
   817  001650                     
   818                           ; BSR set to: 5
   819                           ;main.c: 68:     _Bool led1StateBlink = 0;
   820  001650  0E00               	movlw	0
   821  001652  6F6D               	movwf	main@led1StateBlink& (0+255),b
   822  001654                     
   823                           ; BSR set to: 5
   824                           ;main.c: 69:     _Bool led2StateBlink = 0;
   825  001654  0E00               	movlw	0
   826  001656  6F6E               	movwf	main@led2StateBlink& (0+255),b
   827  001658                     
   828                           ; BSR set to: 5
   829                           ;main.c: 70:     _Bool led3StateBlink = 0;
   830  001658  0E00               	movlw	0
   831  00165A  6F6F               	movwf	main@led3StateBlink& (0+255),b
   832  00165C                     
   833                           ; BSR set to: 5
   834                           ;main.c: 71:     _Bool led4StateBlink = 0;
   835  00165C  0E00               	movlw	0
   836  00165E  6F70               	movwf	main@led4StateBlink& (0+255),b
   837  001660                     
   838                           ; BSR set to: 5
   839                           ;main.c: 73:     _Bool redAdj = 0;
   840  001660  0E00               	movlw	0
   841  001662  6F73               	movwf	main@redAdj& (0+255),b
   842  001664                     
   843                           ; BSR set to: 5
   844                           ;main.c: 74:     _Bool greenAdj = 0;
   845  001664  0E00               	movlw	0
   846  001666  6F74               	movwf	main@greenAdj& (0+255),b
   847  001668                     
   848                           ; BSR set to: 5
   849                           ;main.c: 75:     _Bool blueAdj = 0;
   850  001668  0E00               	movlw	0
   851  00166A  6F75               	movwf	main@blueAdj& (0+255),b
   852  00166C                     
   853                           ; BSR set to: 5
   854                           ;main.c: 76:     _Bool whiteAdj = 0;
   855  00166C  0E00               	movlw	0
   856  00166E  6F76               	movwf	main@whiteAdj& (0+255),b
   857  001670                     
   858                           ; BSR set to: 5
   859                           ;main.c: 78:     uint8_t timeout1s, timeout100ms = 0;
   860  001670  0E00               	movlw	0
   861  001672  6F62               	movwf	main@timeout100ms& (0+255),b
   862  001674                     
   863                           ; BSR set to: 5
   864                           ;main.c: 79:     uint16_t timeout5s = 0;
   865  001674  0E00               	movlw	0
   866  001676  6F61               	movwf	(main@timeout5s+1)& (0+255),b
   867  001678  0E00               	movlw	0
   868  00167A  6F60               	movwf	main@timeout5s& (0+255),b
   869  00167C                     
   870                           ; BSR set to: 5
   871                           ;main.c: 80:     uint16_t timeout5sPressed1 = 0;
   872  00167C  0E00               	movlw	0
   873  00167E  6F66               	movwf	(main@timeout5sPressed1+1)& (0+255),b
   874  001680  0E00               	movlw	0
   875  001682  6F65               	movwf	main@timeout5sPressed1& (0+255),b
   876  001684                     
   877                           ; BSR set to: 5
   878                           ;main.c: 81:     uint16_t timeout5sPressed2 = 0;
   879  001684  0E00               	movlw	0
   880  001686  6F68               	movwf	(main@timeout5sPressed2+1)& (0+255),b
   881  001688  0E00               	movlw	0
   882  00168A  6F67               	movwf	main@timeout5sPressed2& (0+255),b
   883  00168C                     
   884                           ; BSR set to: 5
   885                           ;main.c: 82:     uint16_t timeout5sPressed3 = 0;
   886  00168C  0E00               	movlw	0
   887  00168E  6F6A               	movwf	(main@timeout5sPressed3+1)& (0+255),b
   888  001690  0E00               	movlw	0
   889  001692  6F69               	movwf	main@timeout5sPressed3& (0+255),b
   890  001694                     
   891                           ; BSR set to: 5
   892                           ;main.c: 83:     uint16_t timeout5sPressed4 = 0;
   893  001694  0E00               	movlw	0
   894  001696  6F6C               	movwf	(main@timeout5sPressed4+1)& (0+255),b
   895  001698  0E00               	movlw	0
   896  00169A  6F6B               	movwf	main@timeout5sPressed4& (0+255),b
   897  00169C                     
   898                           ; BSR set to: 5
   899                           ;main.c: 84:     uint16_t timeout10s = 0;
   900  00169C  0E00               	movlw	0
   901  00169E  6F64               	movwf	(main@timeout10s+1)& (0+255),b
   902  0016A0  0E00               	movlw	0
   903  0016A2  6F63               	movwf	main@timeout10s& (0+255),b
   904  0016A4                     
   905                           ; BSR set to: 5
   906                           ;main.c: 85:     uint8_t timeout500ms = 0;
   907  0016A4  0E00               	movlw	0
   908  0016A6  6F72               	movwf	main@timeout500ms& (0+255),b
   909  0016A8                     
   910                           ; BSR set to: 5
   911                           ;main.c: 86:     uint8_t timeout250ms = 0;
   912  0016A8  0E00               	movlw	0
   913  0016AA  6F71               	movwf	main@timeout250ms& (0+255),b
   914  0016AC                     
   915                           ; BSR set to: 5
   916                           ;main.c: 88:     LATCbits.LATC7 = 0;
   917  0016AC  9EC0               	bcf	192,7,c	;volatile
   918  0016AE                     
   919                           ; BSR set to: 5
   920                           ;main.c: 89:     LATCbits.LATC5 = 0;
   921  0016AE  9AC0               	bcf	192,5,c	;volatile
   922  0016B0                     
   923                           ; BSR set to: 5
   924                           ;main.c: 90:     LATAbits.LATA5 = 0;
   925  0016B0  9ABE               	bcf	190,5,c	;volatile
   926  0016B2                     
   927                           ; BSR set to: 5
   928                           ;main.c: 91:     LATCbits.LATC3 = 0;
   929  0016B2  96C0               	bcf	192,3,c	;volatile
   930  0016B4                     
   931                           ; BSR set to: 5
   932                           ;main.c: 100:     state_t state = MANUAL;
   933  0016B4  0E00               	movlw	0
   934  0016B6  6F93               	movwf	main@state& (0+255),b
   935  0016B8                     
   936                           ; BSR set to: 5
   937                           ;main.c: 104:     if(DATAEE_ReadByte(3) == 69)
   938  0016B8  0E00               	movlw	0
   939  0016BA  6E02               	movwf	(DATAEE_ReadByte@bAdd+1)^(0+1280),c
   940  0016BC  0E03               	movlw	3
   941  0016BE  6E01               	movwf	DATAEE_ReadByte@bAdd^(0+1280),c
   942  0016C0  EC6A  F01F         	call	_DATAEE_ReadByte	;wreg free
   943  0016C4  0A45               	xorlw	69
   944  0016C6  A4D8               	btfss	status,2,c
   945  0016C8  EF68  F00B         	goto	u2881
   946  0016CC  EF6A  F00B         	goto	u2880
   947  0016D0                     u2881:
   948  0016D0  EF8A  F00B         	goto	l552
   949  0016D4                     u2880:
   950  0016D4                     
   951                           ;main.c: 105:     {;main.c: 106:         redMode1 = DATAEE_ReadByte(11);
   952  0016D4  0E00               	movlw	0
   953  0016D6  6E02               	movwf	(DATAEE_ReadByte@bAdd+1)^(0+1280),c
   954  0016D8  0E0B               	movlw	11
   955  0016DA  6E01               	movwf	DATAEE_ReadByte@bAdd^(0+1280),c
   956  0016DC  EC6A  F01F         	call	_DATAEE_ReadByte	;wreg free
   957  0016E0  0105               	movlb	5	; () banked
   958  0016E2  6F8B               	movwf	main@redMode1& (0+255),b
   959                           
   960                           ;main.c: 107:         greenMode1 = DATAEE_ReadByte(12);
   961  0016E4  0E00               	movlw	0
   962  0016E6  6E02               	movwf	(DATAEE_ReadByte@bAdd+1)^(0+1280),c
   963  0016E8  0E0C               	movlw	12
   964  0016EA  6E01               	movwf	DATAEE_ReadByte@bAdd^(0+1280),c
   965  0016EC  EC6A  F01F         	call	_DATAEE_ReadByte	;wreg free
   966  0016F0  0105               	movlb	5	; () banked
   967  0016F2  6F8C               	movwf	main@greenMode1& (0+255),b
   968                           
   969                           ;main.c: 108:         blueMode1 = DATAEE_ReadByte(15);
   970  0016F4  0E00               	movlw	0
   971  0016F6  6E02               	movwf	(DATAEE_ReadByte@bAdd+1)^(0+1280),c
   972  0016F8  0E0F               	movlw	15
   973  0016FA  6E01               	movwf	DATAEE_ReadByte@bAdd^(0+1280),c
   974  0016FC  EC6A  F01F         	call	_DATAEE_ReadByte	;wreg free
   975  001700  0105               	movlb	5	; () banked
   976  001702  6F8D               	movwf	main@blueMode1& (0+255),b
   977                           
   978                           ;main.c: 109:         whiteMode1 = DATAEE_ReadByte(17);
   979  001704  0E00               	movlw	0
   980  001706  6E02               	movwf	(DATAEE_ReadByte@bAdd+1)^(0+1280),c
   981  001708  0E11               	movlw	17
   982  00170A  6E01               	movwf	DATAEE_ReadByte@bAdd^(0+1280),c
   983  00170C  EC6A  F01F         	call	_DATAEE_ReadByte	;wreg free
   984  001710  0105               	movlb	5	; () banked
   985  001712  6F8E               	movwf	main@whiteMode1& (0+255),b
   986  001714                     l552:
   987                           
   988                           ;main.c: 112:     if(DATAEE_ReadByte(4) == 69)
   989  001714  0E00               	movlw	0
   990  001716  6E02               	movwf	(DATAEE_ReadByte@bAdd+1)^(0+1280),c
   991  001718  0E04               	movlw	4
   992  00171A  6E01               	movwf	DATAEE_ReadByte@bAdd^(0+1280),c
   993  00171C  EC6A  F01F         	call	_DATAEE_ReadByte	;wreg free
   994  001720  0A45               	xorlw	69
   995  001722  A4D8               	btfss	status,2,c
   996  001724  EF96  F00B         	goto	u2891
   997  001728  EF98  F00B         	goto	u2890
   998  00172C                     u2891:
   999  00172C  EFB8  F00B         	goto	l553
  1000  001730                     u2890:
  1001  001730                     
  1002                           ;main.c: 113:     {;main.c: 114:         redMode2 = DATAEE_ReadByte(18);
  1003  001730  0E00               	movlw	0
  1004  001732  6E02               	movwf	(DATAEE_ReadByte@bAdd+1)^(0+1280),c
  1005  001734  0E12               	movlw	18
  1006  001736  6E01               	movwf	DATAEE_ReadByte@bAdd^(0+1280),c
  1007  001738  EC6A  F01F         	call	_DATAEE_ReadByte	;wreg free
  1008  00173C  0105               	movlb	5	; () banked
  1009  00173E  6F7B               	movwf	main@redMode2& (0+255),b
  1010                           
  1011                           ;main.c: 115:         greenMode2 = DATAEE_ReadByte(19);
  1012  001740  0E00               	movlw	0
  1013  001742  6E02               	movwf	(DATAEE_ReadByte@bAdd+1)^(0+1280),c
  1014  001744  0E13               	movlw	19
  1015  001746  6E01               	movwf	DATAEE_ReadByte@bAdd^(0+1280),c
  1016  001748  EC6A  F01F         	call	_DATAEE_ReadByte	;wreg free
  1017  00174C  0105               	movlb	5	; () banked
  1018  00174E  6F7C               	movwf	main@greenMode2& (0+255),b
  1019                           
  1020                           ;main.c: 116:         blueMode2 = DATAEE_ReadByte(20);
  1021  001750  0E00               	movlw	0
  1022  001752  6E02               	movwf	(DATAEE_ReadByte@bAdd+1)^(0+1280),c
  1023  001754  0E14               	movlw	20
  1024  001756  6E01               	movwf	DATAEE_ReadByte@bAdd^(0+1280),c
  1025  001758  EC6A  F01F         	call	_DATAEE_ReadByte	;wreg free
  1026  00175C  0105               	movlb	5	; () banked
  1027  00175E  6F7D               	movwf	main@blueMode2& (0+255),b
  1028                           
  1029                           ;main.c: 117:         whiteMode2 = DATAEE_ReadByte(21);
  1030  001760  0E00               	movlw	0
  1031  001762  6E02               	movwf	(DATAEE_ReadByte@bAdd+1)^(0+1280),c
  1032  001764  0E15               	movlw	21
  1033  001766  6E01               	movwf	DATAEE_ReadByte@bAdd^(0+1280),c
  1034  001768  EC6A  F01F         	call	_DATAEE_ReadByte	;wreg free
  1035  00176C  0105               	movlb	5	; () banked
  1036  00176E  6F84               	movwf	main@whiteMode2& (0+255),b
  1037  001770                     l553:
  1038                           
  1039                           ;main.c: 120:     if(DATAEE_ReadByte(6) == 69)
  1040  001770  0E00               	movlw	0
  1041  001772  6E02               	movwf	(DATAEE_ReadByte@bAdd+1)^(0+1280),c
  1042  001774  0E06               	movlw	6
  1043  001776  6E01               	movwf	DATAEE_ReadByte@bAdd^(0+1280),c
  1044  001778  EC6A  F01F         	call	_DATAEE_ReadByte	;wreg free
  1045  00177C  0A45               	xorlw	69
  1046  00177E  A4D8               	btfss	status,2,c
  1047  001780  EFC4  F00B         	goto	u2901
  1048  001784  EFC6  F00B         	goto	u2900
  1049  001788                     u2901:
  1050  001788  EFE6  F00B         	goto	l554
  1051  00178C                     u2900:
  1052  00178C                     
  1053                           ;main.c: 121:     {;main.c: 122:         redMode3 = DATAEE_ReadByte(22);
  1054  00178C  0E00               	movlw	0
  1055  00178E  6E02               	movwf	(DATAEE_ReadByte@bAdd+1)^(0+1280),c
  1056  001790  0E16               	movlw	22
  1057  001792  6E01               	movwf	DATAEE_ReadByte@bAdd^(0+1280),c
  1058  001794  EC6A  F01F         	call	_DATAEE_ReadByte	;wreg free
  1059  001798  0105               	movlb	5	; () banked
  1060  00179A  6F7E               	movwf	main@redMode3& (0+255),b
  1061                           
  1062                           ;main.c: 123:         greenMode3 = DATAEE_ReadByte(24);
  1063  00179C  0E00               	movlw	0
  1064  00179E  6E02               	movwf	(DATAEE_ReadByte@bAdd+1)^(0+1280),c
  1065  0017A0  0E18               	movlw	24
  1066  0017A2  6E01               	movwf	DATAEE_ReadByte@bAdd^(0+1280),c
  1067  0017A4  EC6A  F01F         	call	_DATAEE_ReadByte	;wreg free
  1068  0017A8  0105               	movlb	5	; () banked
  1069  0017AA  6F7F               	movwf	main@greenMode3& (0+255),b
  1070                           
  1071                           ;main.c: 124:         blueMode3 = DATAEE_ReadByte(25);
  1072  0017AC  0E00               	movlw	0
  1073  0017AE  6E02               	movwf	(DATAEE_ReadByte@bAdd+1)^(0+1280),c
  1074  0017B0  0E19               	movlw	25
  1075  0017B2  6E01               	movwf	DATAEE_ReadByte@bAdd^(0+1280),c
  1076  0017B4  EC6A  F01F         	call	_DATAEE_ReadByte	;wreg free
  1077  0017B8  0105               	movlb	5	; () banked
  1078  0017BA  6F80               	movwf	main@blueMode3& (0+255),b
  1079                           
  1080                           ;main.c: 125:         whiteMode3 = DATAEE_ReadByte(27);
  1081  0017BC  0E00               	movlw	0
  1082  0017BE  6E02               	movwf	(DATAEE_ReadByte@bAdd+1)^(0+1280),c
  1083  0017C0  0E1B               	movlw	27
  1084  0017C2  6E01               	movwf	DATAEE_ReadByte@bAdd^(0+1280),c
  1085  0017C4  EC6A  F01F         	call	_DATAEE_ReadByte	;wreg free
  1086  0017C8  0105               	movlb	5	; () banked
  1087  0017CA  6F85               	movwf	main@whiteMode3& (0+255),b
  1088  0017CC                     l554:
  1089                           
  1090                           ;main.c: 128:     if(DATAEE_ReadByte(8) == 69)
  1091  0017CC  0E00               	movlw	0
  1092  0017CE  6E02               	movwf	(DATAEE_ReadByte@bAdd+1)^(0+1280),c
  1093  0017D0  0E08               	movlw	8
  1094  0017D2  6E01               	movwf	DATAEE_ReadByte@bAdd^(0+1280),c
  1095  0017D4  EC6A  F01F         	call	_DATAEE_ReadByte	;wreg free
  1096  0017D8  0A45               	xorlw	69
  1097  0017DA  A4D8               	btfss	status,2,c
  1098  0017DC  EFF2  F00B         	goto	u2911
  1099  0017E0  EFF4  F00B         	goto	u2910
  1100  0017E4                     u2911:
  1101  0017E4  EF14  F00C         	goto	l555
  1102  0017E8                     u2910:
  1103  0017E8                     
  1104                           ;main.c: 129:     {;main.c: 130:         redMode4 = DATAEE_ReadByte(30);
  1105  0017E8  0E00               	movlw	0
  1106  0017EA  6E02               	movwf	(DATAEE_ReadByte@bAdd+1)^(0+1280),c
  1107  0017EC  0E1E               	movlw	30
  1108  0017EE  6E01               	movwf	DATAEE_ReadByte@bAdd^(0+1280),c
  1109  0017F0  EC6A  F01F         	call	_DATAEE_ReadByte	;wreg free
  1110  0017F4  0105               	movlb	5	; () banked
  1111  0017F6  6F81               	movwf	main@redMode4& (0+255),b
  1112                           
  1113                           ;main.c: 131:         greenMode4 = DATAEE_ReadByte(31);
  1114  0017F8  0E00               	movlw	0
  1115  0017FA  6E02               	movwf	(DATAEE_ReadByte@bAdd+1)^(0+1280),c
  1116  0017FC  0E1F               	movlw	31
  1117  0017FE  6E01               	movwf	DATAEE_ReadByte@bAdd^(0+1280),c
  1118  001800  EC6A  F01F         	call	_DATAEE_ReadByte	;wreg free
  1119  001804  0105               	movlb	5	; () banked
  1120  001806  6F82               	movwf	main@greenMode4& (0+255),b
  1121                           
  1122                           ;main.c: 132:         blueMode4 = DATAEE_ReadByte(32);
  1123  001808  0E00               	movlw	0
  1124  00180A  6E02               	movwf	(DATAEE_ReadByte@bAdd+1)^(0+1280),c
  1125  00180C  0E20               	movlw	32
  1126  00180E  6E01               	movwf	DATAEE_ReadByte@bAdd^(0+1280),c
  1127  001810  EC6A  F01F         	call	_DATAEE_ReadByte	;wreg free
  1128  001814  0105               	movlb	5	; () banked
  1129  001816  6F83               	movwf	main@blueMode4& (0+255),b
  1130                           
  1131                           ;main.c: 133:         whiteMode4 = DATAEE_ReadByte(34);
  1132  001818  0E00               	movlw	0
  1133  00181A  6E02               	movwf	(DATAEE_ReadByte@bAdd+1)^(0+1280),c
  1134  00181C  0E22               	movlw	34
  1135  00181E  6E01               	movwf	DATAEE_ReadByte@bAdd^(0+1280),c
  1136  001820  EC6A  F01F         	call	_DATAEE_ReadByte	;wreg free
  1137  001824  0105               	movlb	5	; () banked
  1138  001826  6F86               	movwf	main@whiteMode4& (0+255),b
  1139  001828                     l555:
  1140                           
  1141                           ;main.c: 138:     if(DATAEE_ReadByte(2) == 69)
  1142  001828  0E00               	movlw	0
  1143  00182A  6E02               	movwf	(DATAEE_ReadByte@bAdd+1)^(0+1280),c
  1144  00182C  0E02               	movlw	2
  1145  00182E  6E01               	movwf	DATAEE_ReadByte@bAdd^(0+1280),c
  1146  001830  EC6A  F01F         	call	_DATAEE_ReadByte	;wreg free
  1147  001834  0A45               	xorlw	69
  1148  001836  A4D8               	btfss	status,2,c
  1149  001838  EF20  F00C         	goto	u2921
  1150  00183C  EF22  F00C         	goto	u2920
  1151  001840                     u2921:
  1152  001840  EFD3  F00C         	goto	l3301
  1153  001844                     u2920:
  1154  001844                     
  1155                           ;main.c: 139:     {;main.c: 140:         state = DATAEE_ReadByte(36);
  1156  001844  0E00               	movlw	0
  1157  001846  6E02               	movwf	(DATAEE_ReadByte@bAdd+1)^(0+1280),c
  1158  001848  0E24               	movlw	36
  1159  00184A  6E01               	movwf	DATAEE_ReadByte@bAdd^(0+1280),c
  1160  00184C  EC6A  F01F         	call	_DATAEE_ReadByte	;wreg free
  1161  001850  0105               	movlb	5	; () banked
  1162  001852  6F93               	movwf	main@state& (0+255),b
  1163  001854                     
  1164                           ; BSR set to: 5
  1165                           ;main.c: 142:         if(state == 1 && (DATAEE_ReadByte(3) == 69))
  1166  001854  0593               	decf	main@state& (0+255),w,b
  1167  001856  A4D8               	btfss	status,2,c
  1168  001858  EF30  F00C         	goto	u2931
  1169  00185C  EF32  F00C         	goto	u2930
  1170  001860                     u2931:
  1171  001860  EF47  F00C         	goto	l3261
  1172  001864                     u2930:
  1173  001864                     
  1174                           ; BSR set to: 5
  1175  001864  0E00               	movlw	0
  1176  001866  6E02               	movwf	(DATAEE_ReadByte@bAdd+1)^(0+1280),c
  1177  001868  0E03               	movlw	3
  1178  00186A  6E01               	movwf	DATAEE_ReadByte@bAdd^(0+1280),c
  1179  00186C  EC6A  F01F         	call	_DATAEE_ReadByte	;wreg free
  1180  001870  0A45               	xorlw	69
  1181  001872  A4D8               	btfss	status,2,c
  1182  001874  EF3E  F00C         	goto	u2941
  1183  001878  EF40  F00C         	goto	u2940
  1184  00187C                     u2941:
  1185  00187C  EF47  F00C         	goto	l3261
  1186  001880                     u2940:
  1187  001880                     
  1188                           ;main.c: 143:         {;main.c: 144:             LATCbits.LATC7 = 1;
  1189  001880  8EC0               	bsf	192,7,c	;volatile
  1190  001882                     
  1191                           ;main.c: 145:             _delay((unsigned long)((50)*(64000000/4000000.0)));
  1192  001882  0EA0               	movlw	160
  1193  001884                     u5107:
  1194  001884  D000               	nop2	
  1195  001886  2EE8               	decfsz	wreg,f,c
  1196  001888  D7FD               	bra	u5107
  1197                           
  1198                           ;main.c: 146:         }
  1199  00188A  EF52  F00C         	goto	l3265
  1200  00188E                     l3261:
  1201  00188E  0105               	movlb	5	; () banked
  1202  001890  0593               	decf	main@state& (0+255),w,b
  1203  001892  A4D8               	btfss	status,2,c
  1204  001894  EF4E  F00C         	goto	u2951
  1205  001898  EF50  F00C         	goto	u2950
  1206  00189C                     u2951:
  1207  00189C  EF52  F00C         	goto	l3265
  1208  0018A0                     u2950:
  1209  0018A0                     
  1210                           ; BSR set to: 5
  1211                           ;main.c: 148:         {;main.c: 149:             state = MANUAL;
  1212  0018A0  0E00               	movlw	0
  1213  0018A2  6F93               	movwf	main@state& (0+255),b
  1214  0018A4                     l3265:
  1215                           
  1216                           ;main.c: 152:         if(state == 2 && (DATAEE_ReadByte(4) == 69))
  1217  0018A4  0E02               	movlw	2
  1218  0018A6  0105               	movlb	5	; () banked
  1219  0018A8  1993               	xorwf	main@state& (0+255),w,b
  1220  0018AA  A4D8               	btfss	status,2,c
  1221  0018AC  EF5A  F00C         	goto	u2961
  1222  0018B0  EF5C  F00C         	goto	u2960
  1223  0018B4                     u2961:
  1224  0018B4  EF71  F00C         	goto	l3273
  1225  0018B8                     u2960:
  1226  0018B8                     
  1227                           ; BSR set to: 5
  1228  0018B8  0E00               	movlw	0
  1229  0018BA  6E02               	movwf	(DATAEE_ReadByte@bAdd+1)^(0+1280),c
  1230  0018BC  0E04               	movlw	4
  1231  0018BE  6E01               	movwf	DATAEE_ReadByte@bAdd^(0+1280),c
  1232  0018C0  EC6A  F01F         	call	_DATAEE_ReadByte	;wreg free
  1233  0018C4  0A45               	xorlw	69
  1234  0018C6  A4D8               	btfss	status,2,c
  1235  0018C8  EF68  F00C         	goto	u2971
  1236  0018CC  EF6A  F00C         	goto	u2970
  1237  0018D0                     u2971:
  1238  0018D0  EF71  F00C         	goto	l3273
  1239  0018D4                     u2970:
  1240  0018D4                     
  1241                           ;main.c: 153:         {;main.c: 154:             LATCbits.LATC5 = 1;
  1242  0018D4  8AC0               	bsf	192,5,c	;volatile
  1243  0018D6                     
  1244                           ;main.c: 155:             _delay((unsigned long)((50)*(64000000/4000000.0)));
  1245  0018D6  0EA0               	movlw	160
  1246  0018D8                     u5117:
  1247  0018D8  D000               	nop2	
  1248  0018DA  2EE8               	decfsz	wreg,f,c
  1249  0018DC  D7FD               	bra	u5117
  1250                           
  1251                           ;main.c: 156:         }
  1252  0018DE  EF7D  F00C         	goto	l3277
  1253  0018E2                     l3273:
  1254  0018E2  0E02               	movlw	2
  1255  0018E4  0105               	movlb	5	; () banked
  1256  0018E6  1993               	xorwf	main@state& (0+255),w,b
  1257  0018E8  A4D8               	btfss	status,2,c
  1258  0018EA  EF79  F00C         	goto	u2981
  1259  0018EE  EF7B  F00C         	goto	u2980
  1260  0018F2                     u2981:
  1261  0018F2  EF7D  F00C         	goto	l3277
  1262  0018F6                     u2980:
  1263  0018F6                     
  1264                           ; BSR set to: 5
  1265                           ;main.c: 158:         {;main.c: 159:             state = MANUAL;
  1266  0018F6  0E00               	movlw	0
  1267  0018F8  6F93               	movwf	main@state& (0+255),b
  1268  0018FA                     l3277:
  1269                           
  1270                           ;main.c: 162:         if(state == 3 && (DATAEE_ReadByte(6) == 69))
  1271  0018FA  0E03               	movlw	3
  1272  0018FC  0105               	movlb	5	; () banked
  1273  0018FE  1993               	xorwf	main@state& (0+255),w,b
  1274  001900  A4D8               	btfss	status,2,c
  1275  001902  EF85  F00C         	goto	u2991
  1276  001906  EF87  F00C         	goto	u2990
  1277  00190A                     u2991:
  1278  00190A  EF9C  F00C         	goto	l3285
  1279  00190E                     u2990:
  1280  00190E                     
  1281                           ; BSR set to: 5
  1282  00190E  0E00               	movlw	0
  1283  001910  6E02               	movwf	(DATAEE_ReadByte@bAdd+1)^(0+1280),c
  1284  001912  0E06               	movlw	6
  1285  001914  6E01               	movwf	DATAEE_ReadByte@bAdd^(0+1280),c
  1286  001916  EC6A  F01F         	call	_DATAEE_ReadByte	;wreg free
  1287  00191A  0A45               	xorlw	69
  1288  00191C  A4D8               	btfss	status,2,c
  1289  00191E  EF93  F00C         	goto	u3001
  1290  001922  EF95  F00C         	goto	u3000
  1291  001926                     u3001:
  1292  001926  EF9C  F00C         	goto	l3285
  1293  00192A                     u3000:
  1294  00192A                     
  1295                           ;main.c: 163:         {;main.c: 164:             LATAbits.LATA5 = 1;
  1296  00192A  8ABE               	bsf	190,5,c	;volatile
  1297  00192C                     
  1298                           ;main.c: 165:             _delay((unsigned long)((50)*(64000000/4000000.0)));
  1299  00192C  0EA0               	movlw	160
  1300  00192E                     u5127:
  1301  00192E  D000               	nop2	
  1302  001930  2EE8               	decfsz	wreg,f,c
  1303  001932  D7FD               	bra	u5127
  1304                           
  1305                           ;main.c: 166:         }
  1306  001934  EFA8  F00C         	goto	l3289
  1307  001938                     l3285:
  1308  001938  0E03               	movlw	3
  1309  00193A  0105               	movlb	5	; () banked
  1310  00193C  1993               	xorwf	main@state& (0+255),w,b
  1311  00193E  A4D8               	btfss	status,2,c
  1312  001940  EFA4  F00C         	goto	u3011
  1313  001944  EFA6  F00C         	goto	u3010
  1314  001948                     u3011:
  1315  001948  EFA8  F00C         	goto	l3289
  1316  00194C                     u3010:
  1317  00194C                     
  1318                           ; BSR set to: 5
  1319                           ;main.c: 168:         {;main.c: 169:             state = MANUAL;
  1320  00194C  0E00               	movlw	0
  1321  00194E  6F93               	movwf	main@state& (0+255),b
  1322  001950                     l3289:
  1323                           
  1324                           ;main.c: 172:         if(state == 4 && (DATAEE_ReadByte(8) == 69))
  1325  001950  0E04               	movlw	4
  1326  001952  0105               	movlb	5	; () banked
  1327  001954  1993               	xorwf	main@state& (0+255),w,b
  1328  001956  A4D8               	btfss	status,2,c
  1329  001958  EFB0  F00C         	goto	u3021
  1330  00195C  EFB2  F00C         	goto	u3020
  1331  001960                     u3021:
  1332  001960  EFC7  F00C         	goto	l3297
  1333  001964                     u3020:
  1334  001964                     
  1335                           ; BSR set to: 5
  1336  001964  0E00               	movlw	0
  1337  001966  6E02               	movwf	(DATAEE_ReadByte@bAdd+1)^(0+1280),c
  1338  001968  0E08               	movlw	8
  1339  00196A  6E01               	movwf	DATAEE_ReadByte@bAdd^(0+1280),c
  1340  00196C  EC6A  F01F         	call	_DATAEE_ReadByte	;wreg free
  1341  001970  0A45               	xorlw	69
  1342  001972  A4D8               	btfss	status,2,c
  1343  001974  EFBE  F00C         	goto	u3031
  1344  001978  EFC0  F00C         	goto	u3030
  1345  00197C                     u3031:
  1346  00197C  EFC7  F00C         	goto	l3297
  1347  001980                     u3030:
  1348  001980                     
  1349                           ;main.c: 173:         {;main.c: 174:             LATCbits.LATC3 = 1;
  1350  001980  86C0               	bsf	192,3,c	;volatile
  1351  001982                     
  1352                           ;main.c: 175:             _delay((unsigned long)((50)*(64000000/4000000.0)));
  1353  001982  0EA0               	movlw	160
  1354  001984                     u5137:
  1355  001984  D000               	nop2	
  1356  001986  2EE8               	decfsz	wreg,f,c
  1357  001988  D7FD               	bra	u5137
  1358                           
  1359                           ;main.c: 176:         }
  1360  00198A  EFD3  F00C         	goto	l3301
  1361  00198E                     l3297:
  1362  00198E  0E04               	movlw	4
  1363  001990  0105               	movlb	5	; () banked
  1364  001992  1993               	xorwf	main@state& (0+255),w,b
  1365  001994  A4D8               	btfss	status,2,c
  1366  001996  EFCF  F00C         	goto	u3041
  1367  00199A  EFD1  F00C         	goto	u3040
  1368  00199E                     u3041:
  1369  00199E  EFD3  F00C         	goto	l3301
  1370  0019A2                     u3040:
  1371  0019A2                     
  1372                           ; BSR set to: 5
  1373                           ;main.c: 178:         {;main.c: 179:             state = MANUAL;
  1374  0019A2  0E00               	movlw	0
  1375  0019A4  6F93               	movwf	main@state& (0+255),b
  1376  0019A6                     l3301:
  1377                           
  1378                           ;main.c: 185:     LOOPDELAY_Init(20);
  1379  0019A6  0E00               	movlw	0
  1380  0019A8  6E02               	movwf	(LOOPDELAY_Init@newLoopTimeMS+1)^(0+1280),c
  1381  0019AA  0E14               	movlw	20
  1382  0019AC  6E01               	movwf	LOOPDELAY_Init@newLoopTimeMS^(0+1280),c
  1383  0019AE  EC7C  F01F         	call	_LOOPDELAY_Init	;wreg free
  1384  0019B2                     l3303:
  1385                           
  1386                           ;main.c: 188:     {;main.c: 189:         taster1Flag = PORTCbits.RC6;
  1387  0019B2  0E00               	movlw	0
  1388  0019B4  BCD0               	btfsc	208,6,c	;volatile
  1389  0019B6  0E01               	movlw	1
  1390  0019B8  0105               	movlb	5	; () banked
  1391  0019BA  6F77               	movwf	main@taster1Flag& (0+255),b
  1392  0019BC                     
  1393                           ; BSR set to: 5
  1394                           ;main.c: 190:         taster2Flag = PORTAbits.RA4;
  1395  0019BC  0E00               	movlw	0
  1396  0019BE  B8CE               	btfsc	206,4,c	;volatile
  1397  0019C0  0E01               	movlw	1
  1398  0019C2  6F78               	movwf	main@taster2Flag& (0+255),b
  1399  0019C4                     
  1400                           ; BSR set to: 5
  1401                           ;main.c: 191:         taster3Flag = PORTCbits.RC4;
  1402  0019C4  0E00               	movlw	0
  1403  0019C6  B8D0               	btfsc	208,4,c	;volatile
  1404  0019C8  0E01               	movlw	1
  1405  0019CA  6F7A               	movwf	main@taster3Flag& (0+255),b
  1406  0019CC                     
  1407                           ; BSR set to: 5
  1408                           ;main.c: 192:         taster4Flag = PORTBbits.RB7;
  1409  0019CC  0E00               	movlw	0
  1410  0019CE  BECF               	btfsc	207,7,c	;volatile
  1411  0019D0  0E01               	movlw	1
  1412  0019D2  6F79               	movwf	main@taster4Flag& (0+255),b
  1413  0019D4                     
  1414                           ; BSR set to: 5
  1415                           ;main.c: 194:         ADCC_DischargeSampleCapacitor();
  1416  0019D4  EC89  F01F         	call	_ADCC_DischargeSampleCapacitor	;wreg free
  1417  0019D8                     
  1418                           ;main.c: 195:         red = map(ADCC_GetSingleConversion(POT1),0,4095,0,255);
  1419  0019D8  0E02               	movlw	2
  1420  0019DA  EC8F  F01E         	call	_ADCC_GetSingleConversion
  1421  0019DE  C501  F51B         	movff	?_ADCC_GetSingleConversion,map@x
  1422  0019E2  C502  F51C         	movff	?_ADCC_GetSingleConversion+1,map@x+1
  1423  0019E6  6A1D               	clrf	(map@x+2)^(0+1280),c
  1424  0019E8  6A1E               	clrf	(map@x+3)^(0+1280),c
  1425  0019EA  0E00               	movlw	0
  1426  0019EC  6E1F               	movwf	map@in_min^(0+1280),c
  1427  0019EE  0E00               	movlw	0
  1428  0019F0  6E20               	movwf	(map@in_min+1)^(0+1280),c
  1429  0019F2  0E00               	movlw	0
  1430  0019F4  6E21               	movwf	(map@in_min+2)^(0+1280),c
  1431  0019F6  0E00               	movlw	0
  1432  0019F8  6E22               	movwf	(map@in_min+3)^(0+1280),c
  1433  0019FA  0EFF               	movlw	255
  1434  0019FC  6E23               	movwf	map@in_max^(0+1280),c
  1435  0019FE  0E0F               	movlw	15
  1436  001A00  6E24               	movwf	(map@in_max+1)^(0+1280),c
  1437  001A02  0E00               	movlw	0
  1438  001A04  6E25               	movwf	(map@in_max+2)^(0+1280),c
  1439  001A06  0E00               	movlw	0
  1440  001A08  6E26               	movwf	(map@in_max+3)^(0+1280),c
  1441  001A0A  0E00               	movlw	0
  1442  001A0C  6E27               	movwf	map@out_min^(0+1280),c
  1443  001A0E  0E00               	movlw	0
  1444  001A10  6E28               	movwf	(map@out_min+1)^(0+1280),c
  1445  001A12  0E00               	movlw	0
  1446  001A14  6E29               	movwf	(map@out_min+2)^(0+1280),c
  1447  001A16  0E00               	movlw	0
  1448  001A18  6E2A               	movwf	(map@out_min+3)^(0+1280),c
  1449  001A1A  0EFF               	movlw	255
  1450  001A1C  6E2B               	movwf	map@out_max^(0+1280),c
  1451  001A1E  0E00               	movlw	0
  1452  001A20  6E2C               	movwf	(map@out_max+1)^(0+1280),c
  1453  001A22  0E00               	movlw	0
  1454  001A24  6E2D               	movwf	(map@out_max+2)^(0+1280),c
  1455  001A26  0E00               	movlw	0
  1456  001A28  6E2E               	movwf	(map@out_max+3)^(0+1280),c
  1457  001A2A  EC6D  F01D         	call	_map	;wreg free
  1458  001A2E  501B               	movf	?_map^(0+1280),w,c
  1459  001A30  0105               	movlb	5	; () banked
  1460  001A32  6F8F               	movwf	main@red& (0+255),b
  1461  001A34                     
  1462                           ; BSR set to: 5
  1463                           ;main.c: 196:         ADCC_DischargeSampleCapacitor();
  1464  001A34  EC89  F01F         	call	_ADCC_DischargeSampleCapacitor	;wreg free
  1465  001A38                     
  1466                           ;main.c: 197:         green = map(ADCC_GetSingleConversion(POT2),0,4095,0,255);
  1467  001A38  0E10               	movlw	16
  1468  001A3A  EC8F  F01E         	call	_ADCC_GetSingleConversion
  1469  001A3E  C501  F51B         	movff	?_ADCC_GetSingleConversion,map@x
  1470  001A42  C502  F51C         	movff	?_ADCC_GetSingleConversion+1,map@x+1
  1471  001A46  6A1D               	clrf	(map@x+2)^(0+1280),c
  1472  001A48  6A1E               	clrf	(map@x+3)^(0+1280),c
  1473  001A4A  0E00               	movlw	0
  1474  001A4C  6E1F               	movwf	map@in_min^(0+1280),c
  1475  001A4E  0E00               	movlw	0
  1476  001A50  6E20               	movwf	(map@in_min+1)^(0+1280),c
  1477  001A52  0E00               	movlw	0
  1478  001A54  6E21               	movwf	(map@in_min+2)^(0+1280),c
  1479  001A56  0E00               	movlw	0
  1480  001A58  6E22               	movwf	(map@in_min+3)^(0+1280),c
  1481  001A5A  0EFF               	movlw	255
  1482  001A5C  6E23               	movwf	map@in_max^(0+1280),c
  1483  001A5E  0E0F               	movlw	15
  1484  001A60  6E24               	movwf	(map@in_max+1)^(0+1280),c
  1485  001A62  0E00               	movlw	0
  1486  001A64  6E25               	movwf	(map@in_max+2)^(0+1280),c
  1487  001A66  0E00               	movlw	0
  1488  001A68  6E26               	movwf	(map@in_max+3)^(0+1280),c
  1489  001A6A  0E00               	movlw	0
  1490  001A6C  6E27               	movwf	map@out_min^(0+1280),c
  1491  001A6E  0E00               	movlw	0
  1492  001A70  6E28               	movwf	(map@out_min+1)^(0+1280),c
  1493  001A72  0E00               	movlw	0
  1494  001A74  6E29               	movwf	(map@out_min+2)^(0+1280),c
  1495  001A76  0E00               	movlw	0
  1496  001A78  6E2A               	movwf	(map@out_min+3)^(0+1280),c
  1497  001A7A  0EFF               	movlw	255
  1498  001A7C  6E2B               	movwf	map@out_max^(0+1280),c
  1499  001A7E  0E00               	movlw	0
  1500  001A80  6E2C               	movwf	(map@out_max+1)^(0+1280),c
  1501  001A82  0E00               	movlw	0
  1502  001A84  6E2D               	movwf	(map@out_max+2)^(0+1280),c
  1503  001A86  0E00               	movlw	0
  1504  001A88  6E2E               	movwf	(map@out_max+3)^(0+1280),c
  1505  001A8A  EC6D  F01D         	call	_map	;wreg free
  1506  001A8E  501B               	movf	?_map^(0+1280),w,c
  1507  001A90  0105               	movlb	5	; () banked
  1508  001A92  6F90               	movwf	main@green& (0+255),b
  1509  001A94                     
  1510                           ; BSR set to: 5
  1511                           ;main.c: 198:         ADCC_DischargeSampleCapacitor();
  1512  001A94  EC89  F01F         	call	_ADCC_DischargeSampleCapacitor	;wreg free
  1513  001A98                     
  1514                           ;main.c: 199:         blue = map(ADCC_GetSingleConversion(POT3),0,4095,0,255);
  1515  001A98  0E11               	movlw	17
  1516  001A9A  EC8F  F01E         	call	_ADCC_GetSingleConversion
  1517  001A9E  C501  F51B         	movff	?_ADCC_GetSingleConversion,map@x
  1518  001AA2  C502  F51C         	movff	?_ADCC_GetSingleConversion+1,map@x+1
  1519  001AA6  6A1D               	clrf	(map@x+2)^(0+1280),c
  1520  001AA8  6A1E               	clrf	(map@x+3)^(0+1280),c
  1521  001AAA  0E00               	movlw	0
  1522  001AAC  6E1F               	movwf	map@in_min^(0+1280),c
  1523  001AAE  0E00               	movlw	0
  1524  001AB0  6E20               	movwf	(map@in_min+1)^(0+1280),c
  1525  001AB2  0E00               	movlw	0
  1526  001AB4  6E21               	movwf	(map@in_min+2)^(0+1280),c
  1527  001AB6  0E00               	movlw	0
  1528  001AB8  6E22               	movwf	(map@in_min+3)^(0+1280),c
  1529  001ABA  0EFF               	movlw	255
  1530  001ABC  6E23               	movwf	map@in_max^(0+1280),c
  1531  001ABE  0E0F               	movlw	15
  1532  001AC0  6E24               	movwf	(map@in_max+1)^(0+1280),c
  1533  001AC2  0E00               	movlw	0
  1534  001AC4  6E25               	movwf	(map@in_max+2)^(0+1280),c
  1535  001AC6  0E00               	movlw	0
  1536  001AC8  6E26               	movwf	(map@in_max+3)^(0+1280),c
  1537  001ACA  0E00               	movlw	0
  1538  001ACC  6E27               	movwf	map@out_min^(0+1280),c
  1539  001ACE  0E00               	movlw	0
  1540  001AD0  6E28               	movwf	(map@out_min+1)^(0+1280),c
  1541  001AD2  0E00               	movlw	0
  1542  001AD4  6E29               	movwf	(map@out_min+2)^(0+1280),c
  1543  001AD6  0E00               	movlw	0
  1544  001AD8  6E2A               	movwf	(map@out_min+3)^(0+1280),c
  1545  001ADA  0EFF               	movlw	255
  1546  001ADC  6E2B               	movwf	map@out_max^(0+1280),c
  1547  001ADE  0E00               	movlw	0
  1548  001AE0  6E2C               	movwf	(map@out_max+1)^(0+1280),c
  1549  001AE2  0E00               	movlw	0
  1550  001AE4  6E2D               	movwf	(map@out_max+2)^(0+1280),c
  1551  001AE6  0E00               	movlw	0
  1552  001AE8  6E2E               	movwf	(map@out_max+3)^(0+1280),c
  1553  001AEA  EC6D  F01D         	call	_map	;wreg free
  1554  001AEE  501B               	movf	?_map^(0+1280),w,c
  1555  001AF0  0105               	movlb	5	; () banked
  1556  001AF2  6F91               	movwf	main@blue& (0+255),b
  1557  001AF4                     
  1558                           ; BSR set to: 5
  1559                           ;main.c: 200:         ADCC_DischargeSampleCapacitor();
  1560  001AF4  EC89  F01F         	call	_ADCC_DischargeSampleCapacitor	;wreg free
  1561  001AF8                     
  1562                           ;main.c: 201:         white = map(ADCC_GetSingleConversion(POT4),0,4095,0,255);
  1563  001AF8  0E12               	movlw	18
  1564  001AFA  EC8F  F01E         	call	_ADCC_GetSingleConversion
  1565  001AFE  C501  F51B         	movff	?_ADCC_GetSingleConversion,map@x
  1566  001B02  C502  F51C         	movff	?_ADCC_GetSingleConversion+1,map@x+1
  1567  001B06  6A1D               	clrf	(map@x+2)^(0+1280),c
  1568  001B08  6A1E               	clrf	(map@x+3)^(0+1280),c
  1569  001B0A  0E00               	movlw	0
  1570  001B0C  6E1F               	movwf	map@in_min^(0+1280),c
  1571  001B0E  0E00               	movlw	0
  1572  001B10  6E20               	movwf	(map@in_min+1)^(0+1280),c
  1573  001B12  0E00               	movlw	0
  1574  001B14  6E21               	movwf	(map@in_min+2)^(0+1280),c
  1575  001B16  0E00               	movlw	0
  1576  001B18  6E22               	movwf	(map@in_min+3)^(0+1280),c
  1577  001B1A  0EFF               	movlw	255
  1578  001B1C  6E23               	movwf	map@in_max^(0+1280),c
  1579  001B1E  0E0F               	movlw	15
  1580  001B20  6E24               	movwf	(map@in_max+1)^(0+1280),c
  1581  001B22  0E00               	movlw	0
  1582  001B24  6E25               	movwf	(map@in_max+2)^(0+1280),c
  1583  001B26  0E00               	movlw	0
  1584  001B28  6E26               	movwf	(map@in_max+3)^(0+1280),c
  1585  001B2A  0E00               	movlw	0
  1586  001B2C  6E27               	movwf	map@out_min^(0+1280),c
  1587  001B2E  0E00               	movlw	0
  1588  001B30  6E28               	movwf	(map@out_min+1)^(0+1280),c
  1589  001B32  0E00               	movlw	0
  1590  001B34  6E29               	movwf	(map@out_min+2)^(0+1280),c
  1591  001B36  0E00               	movlw	0
  1592  001B38  6E2A               	movwf	(map@out_min+3)^(0+1280),c
  1593  001B3A  0EFF               	movlw	255
  1594  001B3C  6E2B               	movwf	map@out_max^(0+1280),c
  1595  001B3E  0E00               	movlw	0
  1596  001B40  6E2C               	movwf	(map@out_max+1)^(0+1280),c
  1597  001B42  0E00               	movlw	0
  1598  001B44  6E2D               	movwf	(map@out_max+2)^(0+1280),c
  1599  001B46  0E00               	movlw	0
  1600  001B48  6E2E               	movwf	(map@out_max+3)^(0+1280),c
  1601  001B4A  EC6D  F01D         	call	_map	;wreg free
  1602  001B4E  501B               	movf	?_map^(0+1280),w,c
  1603  001B50  0105               	movlb	5	; () banked
  1604  001B52  6F92               	movwf	main@white& (0+255),b
  1605  001B54                     
  1606                           ; BSR set to: 5
  1607                           ;main.c: 203:         LOOPDELAY_Wait();
  1608  001B54  ECF7  F01E         	call	_LOOPDELAY_Wait	;wreg free
  1609                           
  1610                           ;main.c: 205:         switch(state)
  1611  001B58  EFCC  F01B         	goto	l4125
  1612  001B5C                     l3329:
  1613                           
  1614                           ; BSR set to: 5
  1615                           ;main.c: 209:                 LED_WriteFull(red, green, blue, white, 300);
  1616  001B5C  C590  F507         	movff	main@green,LED_WriteFull@green
  1617  001B60  C591  F508         	movff	main@blue,LED_WriteFull@blue
  1618  001B64  C592  F509         	movff	main@white,LED_WriteFull@white
  1619  001B68  0E2C               	movlw	44
  1620  001B6A  6E0A               	movwf	LED_WriteFull@ledcount^(0+1280),c
  1621  001B6C  0E01               	movlw	1
  1622  001B6E  6E0B               	movwf	(LED_WriteFull@ledcount+1)^(0+1280),c
  1623  001B70  0E00               	movlw	0
  1624  001B72  6E0C               	movwf	(LED_WriteFull@ledcount+2)^(0+1280),c
  1625  001B74  518F               	movf	main@red& (0+255),w,b
  1626  001B76  EC69  F01E         	call	_LED_WriteFull
  1627  001B7A                     
  1628                           ;main.c: 211:                 _delay((unsigned long)((50)*(64000000/4000000.0)));
  1629  001B7A  0EA0               	movlw	160
  1630  001B7C                     u5147:
  1631  001B7C  D000               	nop2	
  1632  001B7E  2EE8               	decfsz	wreg,f,c
  1633  001B80  D7FD               	bra	u5147
  1634  001B82                     
  1635                           ;main.c: 215:                 if(!PORTCbits.RC6 && taster1Flag && !led1Blink && !led2Bli
      +                          nk && !led3Blink && !led4Blink)
  1636  001B82  BCD0               	btfsc	208,6,c	;volatile
  1637  001B84  EFC6  F00D         	goto	u3051
  1638  001B88  EFC8  F00D         	goto	u3050
  1639  001B8C                     u3051:
  1640  001B8C  EFF3  F00D         	goto	l3347
  1641  001B90                     u3050:
  1642  001B90  0105               	movlb	5	; () banked
  1643  001B92  5177               	movf	main@taster1Flag& (0+255),w,b
  1644  001B94  B4D8               	btfsc	status,2,c
  1645  001B96  EFCF  F00D         	goto	u3061
  1646  001B9A  EFD1  F00D         	goto	u3060
  1647  001B9E                     u3061:
  1648  001B9E  EFF3  F00D         	goto	l3347
  1649  001BA2                     u3060:
  1650  001BA2                     
  1651                           ; BSR set to: 5
  1652  001BA2  5187               	movf	main@led1Blink& (0+255),w,b
  1653  001BA4  A4D8               	btfss	status,2,c
  1654  001BA6  EFD7  F00D         	goto	u3071
  1655  001BAA  EFD9  F00D         	goto	u3070
  1656  001BAE                     u3071:
  1657  001BAE  EFF3  F00D         	goto	l3347
  1658  001BB2                     u3070:
  1659  001BB2                     
  1660                           ; BSR set to: 5
  1661  001BB2  5188               	movf	main@led2Blink& (0+255),w,b
  1662  001BB4  A4D8               	btfss	status,2,c
  1663  001BB6  EFDF  F00D         	goto	u3081
  1664  001BBA  EFE1  F00D         	goto	u3080
  1665  001BBE                     u3081:
  1666  001BBE  EFF3  F00D         	goto	l3347
  1667  001BC2                     u3080:
  1668  001BC2                     
  1669                           ; BSR set to: 5
  1670  001BC2  5189               	movf	main@led3Blink& (0+255),w,b
  1671  001BC4  A4D8               	btfss	status,2,c
  1672  001BC6  EFE7  F00D         	goto	u3091
  1673  001BCA  EFE9  F00D         	goto	u3090
  1674  001BCE                     u3091:
  1675  001BCE  EFF3  F00D         	goto	l3347
  1676  001BD2                     u3090:
  1677  001BD2                     
  1678                           ; BSR set to: 5
  1679  001BD2  518A               	movf	main@led4Blink& (0+255),w,b
  1680  001BD4  A4D8               	btfss	status,2,c
  1681  001BD6  EFEF  F00D         	goto	u3101
  1682  001BDA  EFF1  F00D         	goto	u3100
  1683  001BDE                     u3101:
  1684  001BDE  EFF3  F00D         	goto	l3347
  1685  001BE2                     u3100:
  1686  001BE2                     
  1687                           ; BSR set to: 5
  1688                           ;main.c: 216:                 {;main.c: 217:                     state = T1Dummy;
  1689  001BE2  0E05               	movlw	5
  1690  001BE4  6F93               	movwf	main@state& (0+255),b
  1691  001BE6                     l3347:
  1692                           
  1693                           ;main.c: 220:                 if(!PORTAbits.RA4 && taster2Flag && !led1Blink && !led2Bli
      +                          nk && !led3Blink && !led4Blink)
  1694  001BE6  B8CE               	btfsc	206,4,c	;volatile
  1695  001BE8  EFF8  F00D         	goto	u3111
  1696  001BEC  EFFA  F00D         	goto	u3110
  1697  001BF0                     u3111:
  1698  001BF0  EF25  F00E         	goto	l3361
  1699  001BF4                     u3110:
  1700  001BF4  0105               	movlb	5	; () banked
  1701  001BF6  5178               	movf	main@taster2Flag& (0+255),w,b
  1702  001BF8  B4D8               	btfsc	status,2,c
  1703  001BFA  EF01  F00E         	goto	u3121
  1704  001BFE  EF03  F00E         	goto	u3120
  1705  001C02                     u3121:
  1706  001C02  EF25  F00E         	goto	l3361
  1707  001C06                     u3120:
  1708  001C06                     
  1709                           ; BSR set to: 5
  1710  001C06  5187               	movf	main@led1Blink& (0+255),w,b
  1711  001C08  A4D8               	btfss	status,2,c
  1712  001C0A  EF09  F00E         	goto	u3131
  1713  001C0E  EF0B  F00E         	goto	u3130
  1714  001C12                     u3131:
  1715  001C12  EF25  F00E         	goto	l3361
  1716  001C16                     u3130:
  1717  001C16                     
  1718                           ; BSR set to: 5
  1719  001C16  5188               	movf	main@led2Blink& (0+255),w,b
  1720  001C18  A4D8               	btfss	status,2,c
  1721  001C1A  EF11  F00E         	goto	u3141
  1722  001C1E  EF13  F00E         	goto	u3140
  1723  001C22                     u3141:
  1724  001C22  EF25  F00E         	goto	l3361
  1725  001C26                     u3140:
  1726  001C26                     
  1727                           ; BSR set to: 5
  1728  001C26  5189               	movf	main@led3Blink& (0+255),w,b
  1729  001C28  A4D8               	btfss	status,2,c
  1730  001C2A  EF19  F00E         	goto	u3151
  1731  001C2E  EF1B  F00E         	goto	u3150
  1732  001C32                     u3151:
  1733  001C32  EF25  F00E         	goto	l3361
  1734  001C36                     u3150:
  1735  001C36                     
  1736                           ; BSR set to: 5
  1737  001C36  518A               	movf	main@led4Blink& (0+255),w,b
  1738  001C38  A4D8               	btfss	status,2,c
  1739  001C3A  EF21  F00E         	goto	u3161
  1740  001C3E  EF23  F00E         	goto	u3160
  1741  001C42                     u3161:
  1742  001C42  EF25  F00E         	goto	l3361
  1743  001C46                     u3160:
  1744  001C46                     
  1745                           ; BSR set to: 5
  1746                           ;main.c: 221:                 {;main.c: 222:                     state = T2Dummy;
  1747  001C46  0E06               	movlw	6
  1748  001C48  6F93               	movwf	main@state& (0+255),b
  1749  001C4A                     l3361:
  1750                           
  1751                           ;main.c: 225:                 if(!PORTCbits.RC4 && taster3Flag && !led1Blink && !led2Bli
      +                          nk && !led3Blink && !led4Blink)
  1752  001C4A  B8D0               	btfsc	208,4,c	;volatile
  1753  001C4C  EF2A  F00E         	goto	u3171
  1754  001C50  EF2C  F00E         	goto	u3170
  1755  001C54                     u3171:
  1756  001C54  EF57  F00E         	goto	l3375
  1757  001C58                     u3170:
  1758  001C58  0105               	movlb	5	; () banked
  1759  001C5A  517A               	movf	main@taster3Flag& (0+255),w,b
  1760  001C5C  B4D8               	btfsc	status,2,c
  1761  001C5E  EF33  F00E         	goto	u3181
  1762  001C62  EF35  F00E         	goto	u3180
  1763  001C66                     u3181:
  1764  001C66  EF57  F00E         	goto	l3375
  1765  001C6A                     u3180:
  1766  001C6A                     
  1767                           ; BSR set to: 5
  1768  001C6A  5187               	movf	main@led1Blink& (0+255),w,b
  1769  001C6C  A4D8               	btfss	status,2,c
  1770  001C6E  EF3B  F00E         	goto	u3191
  1771  001C72  EF3D  F00E         	goto	u3190
  1772  001C76                     u3191:
  1773  001C76  EF57  F00E         	goto	l3375
  1774  001C7A                     u3190:
  1775  001C7A                     
  1776                           ; BSR set to: 5
  1777  001C7A  5188               	movf	main@led2Blink& (0+255),w,b
  1778  001C7C  A4D8               	btfss	status,2,c
  1779  001C7E  EF43  F00E         	goto	u3201
  1780  001C82  EF45  F00E         	goto	u3200
  1781  001C86                     u3201:
  1782  001C86  EF57  F00E         	goto	l3375
  1783  001C8A                     u3200:
  1784  001C8A                     
  1785                           ; BSR set to: 5
  1786  001C8A  5189               	movf	main@led3Blink& (0+255),w,b
  1787  001C8C  A4D8               	btfss	status,2,c
  1788  001C8E  EF4B  F00E         	goto	u3211
  1789  001C92  EF4D  F00E         	goto	u3210
  1790  001C96                     u3211:
  1791  001C96  EF57  F00E         	goto	l3375
  1792  001C9A                     u3210:
  1793  001C9A                     
  1794                           ; BSR set to: 5
  1795  001C9A  518A               	movf	main@led4Blink& (0+255),w,b
  1796  001C9C  A4D8               	btfss	status,2,c
  1797  001C9E  EF53  F00E         	goto	u3221
  1798  001CA2  EF55  F00E         	goto	u3220
  1799  001CA6                     u3221:
  1800  001CA6  EF57  F00E         	goto	l3375
  1801  001CAA                     u3220:
  1802  001CAA                     
  1803                           ; BSR set to: 5
  1804                           ;main.c: 226:                 {;main.c: 227:                     state = T3Dummy;
  1805  001CAA  0E07               	movlw	7
  1806  001CAC  6F93               	movwf	main@state& (0+255),b
  1807  001CAE                     l3375:
  1808                           
  1809                           ;main.c: 229:                 if(!PORTBbits.RB7 && taster4Flag && !led1Blink && !led2Bli
      +                          nk && !led3Blink && !led4Blink)
  1810  001CAE  BECF               	btfsc	207,7,c	;volatile
  1811  001CB0  EF5C  F00E         	goto	u3231
  1812  001CB4  EF5E  F00E         	goto	u3230
  1813  001CB8                     u3231:
  1814  001CB8  EF89  F00E         	goto	l575
  1815  001CBC                     u3230:
  1816  001CBC  0105               	movlb	5	; () banked
  1817  001CBE  5179               	movf	main@taster4Flag& (0+255),w,b
  1818  001CC0  B4D8               	btfsc	status,2,c
  1819  001CC2  EF65  F00E         	goto	u3241
  1820  001CC6  EF67  F00E         	goto	u3240
  1821  001CCA                     u3241:
  1822  001CCA  EF89  F00E         	goto	l575
  1823  001CCE                     u3240:
  1824  001CCE                     
  1825                           ; BSR set to: 5
  1826  001CCE  5187               	movf	main@led1Blink& (0+255),w,b
  1827  001CD0  A4D8               	btfss	status,2,c
  1828  001CD2  EF6D  F00E         	goto	u3251
  1829  001CD6  EF6F  F00E         	goto	u3250
  1830  001CDA                     u3251:
  1831  001CDA  EF89  F00E         	goto	l575
  1832  001CDE                     u3250:
  1833  001CDE                     
  1834                           ; BSR set to: 5
  1835  001CDE  5188               	movf	main@led2Blink& (0+255),w,b
  1836  001CE0  A4D8               	btfss	status,2,c
  1837  001CE2  EF75  F00E         	goto	u3261
  1838  001CE6  EF77  F00E         	goto	u3260
  1839  001CEA                     u3261:
  1840  001CEA  EF89  F00E         	goto	l575
  1841  001CEE                     u3260:
  1842  001CEE                     
  1843                           ; BSR set to: 5
  1844  001CEE  5189               	movf	main@led3Blink& (0+255),w,b
  1845  001CF0  A4D8               	btfss	status,2,c
  1846  001CF2  EF7D  F00E         	goto	u3271
  1847  001CF6  EF7F  F00E         	goto	u3270
  1848  001CFA                     u3271:
  1849  001CFA  EF89  F00E         	goto	l575
  1850  001CFE                     u3270:
  1851  001CFE                     
  1852                           ; BSR set to: 5
  1853  001CFE  518A               	movf	main@led4Blink& (0+255),w,b
  1854  001D00  A4D8               	btfss	status,2,c
  1855  001D02  EF85  F00E         	goto	u3281
  1856  001D06  EF87  F00E         	goto	u3280
  1857  001D0A                     u3281:
  1858  001D0A  EF89  F00E         	goto	l575
  1859  001D0E                     u3280:
  1860  001D0E                     
  1861                           ; BSR set to: 5
  1862                           ;main.c: 230:                 {;main.c: 231:                     state = T4Dummy ;
  1863  001D0E  0E08               	movlw	8
  1864  001D10  6F93               	movwf	main@state& (0+255),b
  1865  001D12                     l575:
  1866                           
  1867                           ;main.c: 235:                 if((led1Blink || led2Blink || led3Blink || led4Blink) && (
      +                          ++timeout10s == 500))
  1868  001D12  0105               	movlb	5	; () banked
  1869  001D14  5187               	movf	main@led1Blink& (0+255),w,b
  1870  001D16  A4D8               	btfss	status,2,c
  1871  001D18  EF90  F00E         	goto	u3291
  1872  001D1C  EF92  F00E         	goto	u3290
  1873  001D20                     u3291:
  1874  001D20  EFAA  F00E         	goto	l3395
  1875  001D24                     u3290:
  1876  001D24                     
  1877                           ; BSR set to: 5
  1878  001D24  5188               	movf	main@led2Blink& (0+255),w,b
  1879  001D26  A4D8               	btfss	status,2,c
  1880  001D28  EF98  F00E         	goto	u3301
  1881  001D2C  EF9A  F00E         	goto	u3300
  1882  001D30                     u3301:
  1883  001D30  EFAA  F00E         	goto	l3395
  1884  001D34                     u3300:
  1885  001D34                     
  1886                           ; BSR set to: 5
  1887  001D34  5189               	movf	main@led3Blink& (0+255),w,b
  1888  001D36  A4D8               	btfss	status,2,c
  1889  001D38  EFA0  F00E         	goto	u3311
  1890  001D3C  EFA2  F00E         	goto	u3310
  1891  001D40                     u3311:
  1892  001D40  EFAA  F00E         	goto	l3395
  1893  001D44                     u3310:
  1894  001D44                     
  1895                           ; BSR set to: 5
  1896  001D44  518A               	movf	main@led4Blink& (0+255),w,b
  1897  001D46  B4D8               	btfsc	status,2,c
  1898  001D48  EFA8  F00E         	goto	u3321
  1899  001D4C  EFAA  F00E         	goto	u3320
  1900  001D50                     u3321:
  1901  001D50  EFC3  F00E         	goto	l576
  1902  001D54                     u3320:
  1903  001D54                     l3395:
  1904                           
  1905                           ; BSR set to: 5
  1906  001D54  4B63               	infsnz	main@timeout10s& (0+255),f,b
  1907  001D56  2B64               	incf	(main@timeout10s+1)& (0+255),f,b
  1908  001D58  0EF4               	movlw	244
  1909  001D5A  1963               	xorwf	main@timeout10s& (0+255),w,b
  1910  001D5C  E106               	bnz	u3331
  1911  001D5E  0564               	decf	(main@timeout10s+1)& (0+255),w,b
  1912  001D60  A4D8               	btfss	status,2,c
  1913  001D62  EFB5  F00E         	goto	u3331
  1914  001D66  EFB7  F00E         	goto	u3330
  1915  001D6A                     u3331:
  1916  001D6A  EFC3  F00E         	goto	l576
  1917  001D6E                     u3330:
  1918  001D6E                     
  1919                           ; BSR set to: 5
  1920                           ;main.c: 236:                 {;main.c: 237:                     timeout10s = 0;
  1921  001D6E  0E00               	movlw	0
  1922  001D70  6F64               	movwf	(main@timeout10s+1)& (0+255),b
  1923  001D72  0E00               	movlw	0
  1924  001D74  6F63               	movwf	main@timeout10s& (0+255),b
  1925                           
  1926                           ;main.c: 239:                     led1Blink = 0;
  1927  001D76  0E00               	movlw	0
  1928  001D78  6F87               	movwf	main@led1Blink& (0+255),b
  1929                           
  1930                           ;main.c: 240:                     led2Blink = 0;
  1931  001D7A  0E00               	movlw	0
  1932  001D7C  6F88               	movwf	main@led2Blink& (0+255),b
  1933                           
  1934                           ;main.c: 241:                     led3Blink = 0;
  1935  001D7E  0E00               	movlw	0
  1936  001D80  6F89               	movwf	main@led3Blink& (0+255),b
  1937                           
  1938                           ;main.c: 242:                     led4Blink = 0;
  1939  001D82  0E00               	movlw	0
  1940  001D84  6F8A               	movwf	main@led4Blink& (0+255),b
  1941  001D86                     l576:
  1942                           
  1943                           ; BSR set to: 5
  1944                           ;main.c: 245:                 if(led1Blink && ++timeout500ms == 12)
  1945  001D86  5187               	movf	main@led1Blink& (0+255),w,b
  1946  001D88  B4D8               	btfsc	status,2,c
  1947  001D8A  EFC9  F00E         	goto	u3341
  1948  001D8E  EFCB  F00E         	goto	u3340
  1949  001D92                     u3341:
  1950  001D92  EFE8  F00E         	goto	l3405
  1951  001D96                     u3340:
  1952  001D96                     
  1953                           ; BSR set to: 5
  1954  001D96  2B72               	incf	main@timeout500ms& (0+255),f,b
  1955  001D98  0E0C               	movlw	12
  1956  001D9A  1972               	xorwf	main@timeout500ms& (0+255),w,b
  1957  001D9C  A4D8               	btfss	status,2,c
  1958  001D9E  EFD3  F00E         	goto	u3351
  1959  001DA2  EFD5  F00E         	goto	u3350
  1960  001DA6                     u3351:
  1961  001DA6  EFE8  F00E         	goto	l3405
  1962  001DAA                     u3350:
  1963  001DAA                     
  1964                           ; BSR set to: 5
  1965                           ;main.c: 246:                 {;main.c: 247:                     timeout500ms = 0;
  1966  001DAA  0E00               	movlw	0
  1967  001DAC  6F72               	movwf	main@timeout500ms& (0+255),b
  1968  001DAE                     
  1969                           ; BSR set to: 5
  1970                           ;main.c: 248:                     LATCbits.LATC7 = !LATCbits.LATC7;
  1971  001DAE  AEC0               	btfss	192,7,c	;volatile
  1972  001DB0  EFDC  F00E         	goto	u3361
  1973  001DB4  EFE0  F00E         	goto	u3360
  1974  001DB8                     u3361:
  1975  001DB8  6A2F               	clrf	??_main^(0+1280),c
  1976  001DBA  2A2F               	incf	??_main^(0+1280),f,c
  1977  001DBC  EFE1  F00E         	goto	u3378
  1978  001DC0                     u3360:
  1979  001DC0  6A2F               	clrf	??_main^(0+1280),c
  1980  001DC2                     u3378:
  1981  001DC2  322F               	rrcf	??_main^(0+1280),f,c
  1982  001DC4  322F               	rrcf	??_main^(0+1280),f,c
  1983  001DC6  50C0               	movf	192,w,c	;volatile
  1984  001DC8  182F               	xorwf	??_main^(0+1280),w,c
  1985  001DCA  0B7F               	andlw	-129
  1986  001DCC  182F               	xorwf	??_main^(0+1280),w,c
  1987  001DCE  6EC0               	movwf	192,c	;volatile
  1988  001DD0                     l3405:
  1989                           
  1990                           ;main.c: 251:                 if(led2Blink && ++timeout500ms == 12)
  1991  001DD0  0105               	movlb	5	; () banked
  1992  001DD2  5188               	movf	main@led2Blink& (0+255),w,b
  1993  001DD4  B4D8               	btfsc	status,2,c
  1994  001DD6  EFEF  F00E         	goto	u3381
  1995  001DDA  EFF1  F00E         	goto	u3380
  1996  001DDE                     u3381:
  1997  001DDE  EF0E  F00F         	goto	l3413
  1998  001DE2                     u3380:
  1999  001DE2                     
  2000                           ; BSR set to: 5
  2001  001DE2  2B72               	incf	main@timeout500ms& (0+255),f,b
  2002  001DE4  0E0C               	movlw	12
  2003  001DE6  1972               	xorwf	main@timeout500ms& (0+255),w,b
  2004  001DE8  A4D8               	btfss	status,2,c
  2005  001DEA  EFF9  F00E         	goto	u3391
  2006  001DEE  EFFB  F00E         	goto	u3390
  2007  001DF2                     u3391:
  2008  001DF2  EF0E  F00F         	goto	l3413
  2009  001DF6                     u3390:
  2010  001DF6                     
  2011                           ; BSR set to: 5
  2012                           ;main.c: 252:                 {;main.c: 253:                     timeout500ms = 0;
  2013  001DF6  0E00               	movlw	0
  2014  001DF8  6F72               	movwf	main@timeout500ms& (0+255),b
  2015  001DFA                     
  2016                           ; BSR set to: 5
  2017                           ;main.c: 254:                     LATCbits.LATC5 = !LATCbits.LATC5;
  2018  001DFA  AAC0               	btfss	192,5,c	;volatile
  2019  001DFC  EF02  F00F         	goto	u3401
  2020  001E00  EF06  F00F         	goto	u3400
  2021  001E04                     u3401:
  2022  001E04  6A2F               	clrf	??_main^(0+1280),c
  2023  001E06  2A2F               	incf	??_main^(0+1280),f,c
  2024  001E08  EF07  F00F         	goto	u3418
  2025  001E0C                     u3400:
  2026  001E0C  6A2F               	clrf	??_main^(0+1280),c
  2027  001E0E                     u3418:
  2028  001E0E  3A2F               	swapf	??_main^(0+1280),f,c
  2029  001E10  462F               	rlncf	??_main^(0+1280),f,c
  2030  001E12  50C0               	movf	192,w,c	;volatile
  2031  001E14  182F               	xorwf	??_main^(0+1280),w,c
  2032  001E16  0BDF               	andlw	-33
  2033  001E18  182F               	xorwf	??_main^(0+1280),w,c
  2034  001E1A  6EC0               	movwf	192,c	;volatile
  2035  001E1C                     l3413:
  2036                           
  2037                           ;main.c: 257:                 if(led3Blink && ++timeout500ms == 12)
  2038  001E1C  0105               	movlb	5	; () banked
  2039  001E1E  5189               	movf	main@led3Blink& (0+255),w,b
  2040  001E20  B4D8               	btfsc	status,2,c
  2041  001E22  EF15  F00F         	goto	u3421
  2042  001E26  EF17  F00F         	goto	u3420
  2043  001E2A                     u3421:
  2044  001E2A  EF34  F00F         	goto	l3421
  2045  001E2E                     u3420:
  2046  001E2E                     
  2047                           ; BSR set to: 5
  2048  001E2E  2B72               	incf	main@timeout500ms& (0+255),f,b
  2049  001E30  0E0C               	movlw	12
  2050  001E32  1972               	xorwf	main@timeout500ms& (0+255),w,b
  2051  001E34  A4D8               	btfss	status,2,c
  2052  001E36  EF1F  F00F         	goto	u3431
  2053  001E3A  EF21  F00F         	goto	u3430
  2054  001E3E                     u3431:
  2055  001E3E  EF34  F00F         	goto	l3421
  2056  001E42                     u3430:
  2057  001E42                     
  2058                           ; BSR set to: 5
  2059                           ;main.c: 258:                 {;main.c: 259:                     timeout500ms = 0;
  2060  001E42  0E00               	movlw	0
  2061  001E44  6F72               	movwf	main@timeout500ms& (0+255),b
  2062  001E46                     
  2063                           ; BSR set to: 5
  2064                           ;main.c: 260:                     LATAbits.LATA5 = !LATAbits.LATA5;
  2065  001E46  AABE               	btfss	190,5,c	;volatile
  2066  001E48  EF28  F00F         	goto	u3441
  2067  001E4C  EF2C  F00F         	goto	u3440
  2068  001E50                     u3441:
  2069  001E50  6A2F               	clrf	??_main^(0+1280),c
  2070  001E52  2A2F               	incf	??_main^(0+1280),f,c
  2071  001E54  EF2D  F00F         	goto	u3458
  2072  001E58                     u3440:
  2073  001E58  6A2F               	clrf	??_main^(0+1280),c
  2074  001E5A                     u3458:
  2075  001E5A  3A2F               	swapf	??_main^(0+1280),f,c
  2076  001E5C  462F               	rlncf	??_main^(0+1280),f,c
  2077  001E5E  50BE               	movf	190,w,c	;volatile
  2078  001E60  182F               	xorwf	??_main^(0+1280),w,c
  2079  001E62  0BDF               	andlw	-33
  2080  001E64  182F               	xorwf	??_main^(0+1280),w,c
  2081  001E66  6EBE               	movwf	190,c	;volatile
  2082  001E68                     l3421:
  2083                           
  2084                           ;main.c: 263:                 if(led4Blink && ++timeout500ms == 12)
  2085  001E68  0105               	movlb	5	; () banked
  2086  001E6A  518A               	movf	main@led4Blink& (0+255),w,b
  2087  001E6C  B4D8               	btfsc	status,2,c
  2088  001E6E  EF3B  F00F         	goto	u3461
  2089  001E72  EF3D  F00F         	goto	u3460
  2090  001E76                     u3461:
  2091  001E76  EF5B  F00F         	goto	l3429
  2092  001E7A                     u3460:
  2093  001E7A                     
  2094                           ; BSR set to: 5
  2095  001E7A  2B72               	incf	main@timeout500ms& (0+255),f,b
  2096  001E7C  0E0C               	movlw	12
  2097  001E7E  1972               	xorwf	main@timeout500ms& (0+255),w,b
  2098  001E80  A4D8               	btfss	status,2,c
  2099  001E82  EF45  F00F         	goto	u3471
  2100  001E86  EF47  F00F         	goto	u3470
  2101  001E8A                     u3471:
  2102  001E8A  EF5B  F00F         	goto	l3429
  2103  001E8E                     u3470:
  2104  001E8E                     
  2105                           ; BSR set to: 5
  2106                           ;main.c: 264:                 {;main.c: 265:                     timeout500ms = 0;
  2107  001E8E  0E00               	movlw	0
  2108  001E90  6F72               	movwf	main@timeout500ms& (0+255),b
  2109  001E92                     
  2110                           ; BSR set to: 5
  2111                           ;main.c: 266:                     LATCbits.LATC3 = !LATCbits.LATC3;
  2112  001E92  A6C0               	btfss	192,3,c	;volatile
  2113  001E94  EF4E  F00F         	goto	u3481
  2114  001E98  EF52  F00F         	goto	u3480
  2115  001E9C                     u3481:
  2116  001E9C  6A2F               	clrf	??_main^(0+1280),c
  2117  001E9E  2A2F               	incf	??_main^(0+1280),f,c
  2118  001EA0  EF53  F00F         	goto	u3498
  2119  001EA4                     u3480:
  2120  001EA4  6A2F               	clrf	??_main^(0+1280),c
  2121  001EA6                     u3498:
  2122  001EA6  462F               	rlncf	??_main^(0+1280),f,c
  2123  001EA8  462F               	rlncf	??_main^(0+1280),f,c
  2124  001EAA  462F               	rlncf	??_main^(0+1280),f,c
  2125  001EAC  50C0               	movf	192,w,c	;volatile
  2126  001EAE  182F               	xorwf	??_main^(0+1280),w,c
  2127  001EB0  0BF7               	andlw	-9
  2128  001EB2  182F               	xorwf	??_main^(0+1280),w,c
  2129  001EB4  6EC0               	movwf	192,c	;volatile
  2130  001EB6                     l3429:
  2131                           
  2132                           ;main.c: 269:                 if(!(led1Blink || led2Blink || led3Blink || led4Blink))
  2133  001EB6  0105               	movlb	5	; () banked
  2134  001EB8  5187               	movf	main@led1Blink& (0+255),w,b
  2135  001EBA  A4D8               	btfss	status,2,c
  2136  001EBC  EF62  F00F         	goto	u3501
  2137  001EC0  EF64  F00F         	goto	u3500
  2138  001EC4                     u3501:
  2139  001EC4  EF82  F00F         	goto	l583
  2140  001EC8                     u3500:
  2141  001EC8                     
  2142                           ; BSR set to: 5
  2143  001EC8  5188               	movf	main@led2Blink& (0+255),w,b
  2144  001ECA  A4D8               	btfss	status,2,c
  2145  001ECC  EF6A  F00F         	goto	u3511
  2146  001ED0  EF6C  F00F         	goto	u3510
  2147  001ED4                     u3511:
  2148  001ED4  EF82  F00F         	goto	l583
  2149  001ED8                     u3510:
  2150  001ED8                     
  2151                           ; BSR set to: 5
  2152  001ED8  5189               	movf	main@led3Blink& (0+255),w,b
  2153  001EDA  A4D8               	btfss	status,2,c
  2154  001EDC  EF72  F00F         	goto	u3521
  2155  001EE0  EF74  F00F         	goto	u3520
  2156  001EE4                     u3521:
  2157  001EE4  EF82  F00F         	goto	l583
  2158  001EE8                     u3520:
  2159  001EE8                     
  2160                           ; BSR set to: 5
  2161  001EE8  518A               	movf	main@led4Blink& (0+255),w,b
  2162  001EEA  A4D8               	btfss	status,2,c
  2163  001EEC  EF7A  F00F         	goto	u3531
  2164  001EF0  EF7C  F00F         	goto	u3530
  2165  001EF4                     u3531:
  2166  001EF4  EF82  F00F         	goto	l583
  2167  001EF8                     u3530:
  2168  001EF8                     
  2169                           ; BSR set to: 5
  2170                           ;main.c: 270:                 {;main.c: 271:                     timeout500ms = 0;
  2171  001EF8  0E00               	movlw	0
  2172  001EFA  6F72               	movwf	main@timeout500ms& (0+255),b
  2173  001EFC                     
  2174                           ; BSR set to: 5
  2175                           ;main.c: 273:                     LATCbits.LATC7 = 0;
  2176  001EFC  9EC0               	bcf	192,7,c	;volatile
  2177  001EFE                     
  2178                           ; BSR set to: 5
  2179                           ;main.c: 274:                     LATCbits.LATC5 = 0;
  2180  001EFE  9AC0               	bcf	192,5,c	;volatile
  2181  001F00                     
  2182                           ; BSR set to: 5
  2183                           ;main.c: 275:                     LATAbits.LATA5 = 0;
  2184  001F00  9ABE               	bcf	190,5,c	;volatile
  2185  001F02                     
  2186                           ; BSR set to: 5
  2187                           ;main.c: 276:                     LATCbits.LATC3 = 0;
  2188  001F02  96C0               	bcf	192,3,c	;volatile
  2189  001F04                     l583:
  2190                           
  2191                           ; BSR set to: 5
  2192                           ;main.c: 281:                 if(led1Blink && !PORTCbits.RC6 && taster1Flag)
  2193  001F04  5187               	movf	main@led1Blink& (0+255),w,b
  2194  001F06  B4D8               	btfsc	status,2,c
  2195  001F08  EF88  F00F         	goto	u3541
  2196  001F0C  EF8A  F00F         	goto	u3540
  2197  001F10                     u3541:
  2198  001F10  EFCB  F00F         	goto	l3465
  2199  001F14                     u3540:
  2200  001F14                     
  2201                           ; BSR set to: 5
  2202  001F14  BCD0               	btfsc	208,6,c	;volatile
  2203  001F16  EF8F  F00F         	goto	u3551
  2204  001F1A  EF91  F00F         	goto	u3550
  2205  001F1E                     u3551:
  2206  001F1E  EFCB  F00F         	goto	l3465
  2207  001F22                     u3550:
  2208  001F22                     
  2209                           ; BSR set to: 5
  2210  001F22  5177               	movf	main@taster1Flag& (0+255),w,b
  2211  001F24  B4D8               	btfsc	status,2,c
  2212  001F26  EF97  F00F         	goto	u3561
  2213  001F2A  EF99  F00F         	goto	u3560
  2214  001F2E                     u3561:
  2215  001F2E  EFCB  F00F         	goto	l3465
  2216  001F32                     u3560:
  2217  001F32                     
  2218                           ; BSR set to: 5
  2219                           ;main.c: 282:                 {;main.c: 283:                     redMode1 = red;
  2220  001F32  C58F  F58B         	movff	main@red,main@redMode1
  2221                           
  2222                           ;main.c: 284:                     greenMode1 = green;
  2223  001F36  C590  F58C         	movff	main@green,main@greenMode1
  2224                           
  2225                           ;main.c: 285:                     blueMode1 = blue;
  2226  001F3A  C591  F58D         	movff	main@blue,main@blueMode1
  2227                           
  2228                           ;main.c: 286:                     whiteMode1 = white;
  2229  001F3E  C592  F58E         	movff	main@white,main@whiteMode1
  2230  001F42                     
  2231                           ; BSR set to: 5
  2232                           ;main.c: 287:                     led1Blink = 0;
  2233  001F42  0E00               	movlw	0
  2234  001F44  6F87               	movwf	main@led1Blink& (0+255),b
  2235  001F46                     
  2236                           ; BSR set to: 5
  2237                           ;main.c: 288:                     DATAEE_WriteByte(15, blueMode1);
  2238  001F46  0E00               	movlw	0
  2239  001F48  6E02               	movwf	(DATAEE_WriteByte@bAdd+1)^(0+1280),c
  2240  001F4A  0E0F               	movlw	15
  2241  001F4C  6E01               	movwf	DATAEE_WriteByte@bAdd^(0+1280),c
  2242  001F4E  C58D  F503         	movff	main@blueMode1,DATAEE_WriteByte@bData
  2243  001F52  EC40  F01E         	call	_DATAEE_WriteByte	;wreg free
  2244  001F56                     
  2245                           ;main.c: 289:                     DATAEE_WriteByte(12, greenMode1);
  2246  001F56  0E00               	movlw	0
  2247  001F58  6E02               	movwf	(DATAEE_WriteByte@bAdd+1)^(0+1280),c
  2248  001F5A  0E0C               	movlw	12
  2249  001F5C  6E01               	movwf	DATAEE_WriteByte@bAdd^(0+1280),c
  2250  001F5E  C58C  F503         	movff	main@greenMode1,DATAEE_WriteByte@bData
  2251  001F62  EC40  F01E         	call	_DATAEE_WriteByte	;wreg free
  2252  001F66                     
  2253                           ;main.c: 290:                     DATAEE_WriteByte(11, redMode1);
  2254  001F66  0E00               	movlw	0
  2255  001F68  6E02               	movwf	(DATAEE_WriteByte@bAdd+1)^(0+1280),c
  2256  001F6A  0E0B               	movlw	11
  2257  001F6C  6E01               	movwf	DATAEE_WriteByte@bAdd^(0+1280),c
  2258  001F6E  C58B  F503         	movff	main@redMode1,DATAEE_WriteByte@bData
  2259  001F72  EC40  F01E         	call	_DATAEE_WriteByte	;wreg free
  2260  001F76                     
  2261                           ;main.c: 291:                     DATAEE_WriteByte(17, whiteMode1);
  2262  001F76  0E00               	movlw	0
  2263  001F78  6E02               	movwf	(DATAEE_WriteByte@bAdd+1)^(0+1280),c
  2264  001F7A  0E11               	movlw	17
  2265  001F7C  6E01               	movwf	DATAEE_WriteByte@bAdd^(0+1280),c
  2266  001F7E  C58E  F503         	movff	main@whiteMode1,DATAEE_WriteByte@bData
  2267  001F82  EC40  F01E         	call	_DATAEE_WriteByte	;wreg free
  2268  001F86                     
  2269                           ;main.c: 292:                     DATAEE_WriteByte(3, 69);
  2270  001F86  0E00               	movlw	0
  2271  001F88  6E02               	movwf	(DATAEE_WriteByte@bAdd+1)^(0+1280),c
  2272  001F8A  0E03               	movlw	3
  2273  001F8C  6E01               	movwf	DATAEE_WriteByte@bAdd^(0+1280),c
  2274  001F8E  0E45               	movlw	69
  2275  001F90  6E03               	movwf	DATAEE_WriteByte@bData^(0+1280),c
  2276  001F92  EC40  F01E         	call	_DATAEE_WriteByte	;wreg free
  2277  001F96                     l3465:
  2278                           
  2279                           ;main.c: 295:                 if(led2Blink && !PORTAbits.RA4 && taster2Flag)
  2280  001F96  0105               	movlb	5	; () banked
  2281  001F98  5188               	movf	main@led2Blink& (0+255),w,b
  2282  001F9A  B4D8               	btfsc	status,2,c
  2283  001F9C  EFD2  F00F         	goto	u3571
  2284  001FA0  EFD4  F00F         	goto	u3570
  2285  001FA4                     u3571:
  2286  001FA4  EF15  F010         	goto	l3485
  2287  001FA8                     u3570:
  2288  001FA8                     
  2289                           ; BSR set to: 5
  2290  001FA8  B8CE               	btfsc	206,4,c	;volatile
  2291  001FAA  EFD9  F00F         	goto	u3581
  2292  001FAE  EFDB  F00F         	goto	u3580
  2293  001FB2                     u3581:
  2294  001FB2  EF15  F010         	goto	l3485
  2295  001FB6                     u3580:
  2296  001FB6                     
  2297                           ; BSR set to: 5
  2298  001FB6  5178               	movf	main@taster2Flag& (0+255),w,b
  2299  001FB8  B4D8               	btfsc	status,2,c
  2300  001FBA  EFE1  F00F         	goto	u3591
  2301  001FBE  EFE3  F00F         	goto	u3590
  2302  001FC2                     u3591:
  2303  001FC2  EF15  F010         	goto	l3485
  2304  001FC6                     u3590:
  2305  001FC6                     
  2306                           ; BSR set to: 5
  2307                           ;main.c: 296:                 {;main.c: 297:                     redMode2 = red;
  2308  001FC6  C58F  F57B         	movff	main@red,main@redMode2
  2309                           
  2310                           ;main.c: 298:                     greenMode2 = green;
  2311  001FCA  C590  F57C         	movff	main@green,main@greenMode2
  2312                           
  2313                           ;main.c: 299:                     blueMode2 = blue;
  2314  001FCE  C591  F57D         	movff	main@blue,main@blueMode2
  2315                           
  2316                           ;main.c: 300:                     whiteMode2 = white;
  2317  001FD2  C592  F584         	movff	main@white,main@whiteMode2
  2318  001FD6                     
  2319                           ; BSR set to: 5
  2320                           ;main.c: 301:                     led2Blink = 0;
  2321  001FD6  0E00               	movlw	0
  2322  001FD8  6F88               	movwf	main@led2Blink& (0+255),b
  2323  001FDA                     
  2324                           ; BSR set to: 5
  2325                           ;main.c: 302:                     DATAEE_WriteByte(20, blueMode2);
  2326  001FDA  0E00               	movlw	0
  2327  001FDC  6E02               	movwf	(DATAEE_WriteByte@bAdd+1)^(0+1280),c
  2328  001FDE  0E14               	movlw	20
  2329  001FE0  6E01               	movwf	DATAEE_WriteByte@bAdd^(0+1280),c
  2330  001FE2  C57D  F503         	movff	main@blueMode2,DATAEE_WriteByte@bData
  2331  001FE6  EC40  F01E         	call	_DATAEE_WriteByte	;wreg free
  2332  001FEA                     
  2333                           ;main.c: 303:                     DATAEE_WriteByte(19, greenMode2);
  2334  001FEA  0E00               	movlw	0
  2335  001FEC  6E02               	movwf	(DATAEE_WriteByte@bAdd+1)^(0+1280),c
  2336  001FEE  0E13               	movlw	19
  2337  001FF0  6E01               	movwf	DATAEE_WriteByte@bAdd^(0+1280),c
  2338  001FF2  C57C  F503         	movff	main@greenMode2,DATAEE_WriteByte@bData
  2339  001FF6  EC40  F01E         	call	_DATAEE_WriteByte	;wreg free
  2340  001FFA                     
  2341                           ;main.c: 304:                     DATAEE_WriteByte(18, redMode2);
  2342  001FFA  0E00               	movlw	0
  2343  001FFC  6E02               	movwf	(DATAEE_WriteByte@bAdd+1)^(0+1280),c
  2344  001FFE  0E12               	movlw	18
  2345  002000  6E01               	movwf	DATAEE_WriteByte@bAdd^(0+1280),c
  2346  002002  C57B  F503         	movff	main@redMode2,DATAEE_WriteByte@bData
  2347  002006  EC40  F01E         	call	_DATAEE_WriteByte	;wreg free
  2348  00200A                     
  2349                           ;main.c: 305:                     DATAEE_WriteByte(21, whiteMode2);
  2350  00200A  0E00               	movlw	0
  2351  00200C  6E02               	movwf	(DATAEE_WriteByte@bAdd+1)^(0+1280),c
  2352  00200E  0E15               	movlw	21
  2353  002010  6E01               	movwf	DATAEE_WriteByte@bAdd^(0+1280),c
  2354  002012  C584  F503         	movff	main@whiteMode2,DATAEE_WriteByte@bData
  2355  002016  EC40  F01E         	call	_DATAEE_WriteByte	;wreg free
  2356  00201A                     
  2357                           ;main.c: 306:                     DATAEE_WriteByte(4, 69);
  2358  00201A  0E00               	movlw	0
  2359  00201C  6E02               	movwf	(DATAEE_WriteByte@bAdd+1)^(0+1280),c
  2360  00201E  0E04               	movlw	4
  2361  002020  6E01               	movwf	DATAEE_WriteByte@bAdd^(0+1280),c
  2362  002022  0E45               	movlw	69
  2363  002024  6E03               	movwf	DATAEE_WriteByte@bData^(0+1280),c
  2364  002026  EC40  F01E         	call	_DATAEE_WriteByte	;wreg free
  2365  00202A                     l3485:
  2366                           
  2367                           ;main.c: 309:                 if(led3Blink && !PORTCbits.RC4 && taster3Flag)
  2368  00202A  0105               	movlb	5	; () banked
  2369  00202C  5189               	movf	main@led3Blink& (0+255),w,b
  2370  00202E  B4D8               	btfsc	status,2,c
  2371  002030  EF1C  F010         	goto	u3601
  2372  002034  EF1E  F010         	goto	u3600
  2373  002038                     u3601:
  2374  002038  EF5F  F010         	goto	l3505
  2375  00203C                     u3600:
  2376  00203C                     
  2377                           ; BSR set to: 5
  2378  00203C  B8D0               	btfsc	208,4,c	;volatile
  2379  00203E  EF23  F010         	goto	u3611
  2380  002042  EF25  F010         	goto	u3610
  2381  002046                     u3611:
  2382  002046  EF5F  F010         	goto	l3505
  2383  00204A                     u3610:
  2384  00204A                     
  2385                           ; BSR set to: 5
  2386  00204A  517A               	movf	main@taster3Flag& (0+255),w,b
  2387  00204C  B4D8               	btfsc	status,2,c
  2388  00204E  EF2B  F010         	goto	u3621
  2389  002052  EF2D  F010         	goto	u3620
  2390  002056                     u3621:
  2391  002056  EF5F  F010         	goto	l3505
  2392  00205A                     u3620:
  2393  00205A                     
  2394                           ; BSR set to: 5
  2395                           ;main.c: 310:                 {;main.c: 311:                     redMode3 = red;
  2396  00205A  C58F  F57E         	movff	main@red,main@redMode3
  2397                           
  2398                           ;main.c: 312:                     greenMode3 = green;
  2399  00205E  C590  F57F         	movff	main@green,main@greenMode3
  2400                           
  2401                           ;main.c: 313:                     blueMode3 = blue;
  2402  002062  C591  F580         	movff	main@blue,main@blueMode3
  2403                           
  2404                           ;main.c: 314:                     whiteMode3 = white;
  2405  002066  C592  F585         	movff	main@white,main@whiteMode3
  2406  00206A                     
  2407                           ; BSR set to: 5
  2408                           ;main.c: 315:                     led3Blink = 0;
  2409  00206A  0E00               	movlw	0
  2410  00206C  6F89               	movwf	main@led3Blink& (0+255),b
  2411  00206E                     
  2412                           ; BSR set to: 5
  2413                           ;main.c: 316:                     DATAEE_WriteByte(25, blueMode3);
  2414  00206E  0E00               	movlw	0
  2415  002070  6E02               	movwf	(DATAEE_WriteByte@bAdd+1)^(0+1280),c
  2416  002072  0E19               	movlw	25
  2417  002074  6E01               	movwf	DATAEE_WriteByte@bAdd^(0+1280),c
  2418  002076  C580  F503         	movff	main@blueMode3,DATAEE_WriteByte@bData
  2419  00207A  EC40  F01E         	call	_DATAEE_WriteByte	;wreg free
  2420  00207E                     
  2421                           ;main.c: 317:                     DATAEE_WriteByte(24, greenMode3);
  2422  00207E  0E00               	movlw	0
  2423  002080  6E02               	movwf	(DATAEE_WriteByte@bAdd+1)^(0+1280),c
  2424  002082  0E18               	movlw	24
  2425  002084  6E01               	movwf	DATAEE_WriteByte@bAdd^(0+1280),c
  2426  002086  C57F  F503         	movff	main@greenMode3,DATAEE_WriteByte@bData
  2427  00208A  EC40  F01E         	call	_DATAEE_WriteByte	;wreg free
  2428  00208E                     
  2429                           ;main.c: 318:                     DATAEE_WriteByte(22, redMode3);
  2430  00208E  0E00               	movlw	0
  2431  002090  6E02               	movwf	(DATAEE_WriteByte@bAdd+1)^(0+1280),c
  2432  002092  0E16               	movlw	22
  2433  002094  6E01               	movwf	DATAEE_WriteByte@bAdd^(0+1280),c
  2434  002096  C57E  F503         	movff	main@redMode3,DATAEE_WriteByte@bData
  2435  00209A  EC40  F01E         	call	_DATAEE_WriteByte	;wreg free
  2436  00209E                     
  2437                           ;main.c: 319:                     DATAEE_WriteByte(27, whiteMode3);
  2438  00209E  0E00               	movlw	0
  2439  0020A0  6E02               	movwf	(DATAEE_WriteByte@bAdd+1)^(0+1280),c
  2440  0020A2  0E1B               	movlw	27
  2441  0020A4  6E01               	movwf	DATAEE_WriteByte@bAdd^(0+1280),c
  2442  0020A6  C585  F503         	movff	main@whiteMode3,DATAEE_WriteByte@bData
  2443  0020AA  EC40  F01E         	call	_DATAEE_WriteByte	;wreg free
  2444  0020AE                     
  2445                           ;main.c: 320:                     DATAEE_WriteByte(6, 69);
  2446  0020AE  0E00               	movlw	0
  2447  0020B0  6E02               	movwf	(DATAEE_WriteByte@bAdd+1)^(0+1280),c
  2448  0020B2  0E06               	movlw	6
  2449  0020B4  6E01               	movwf	DATAEE_WriteByte@bAdd^(0+1280),c
  2450  0020B6  0E45               	movlw	69
  2451  0020B8  6E03               	movwf	DATAEE_WriteByte@bData^(0+1280),c
  2452  0020BA  EC40  F01E         	call	_DATAEE_WriteByte	;wreg free
  2453  0020BE                     l3505:
  2454                           
  2455                           ;main.c: 323:                 if(led4Blink && !PORTBbits.RB7 && taster4Flag)
  2456  0020BE  0105               	movlb	5	; () banked
  2457  0020C0  518A               	movf	main@led4Blink& (0+255),w,b
  2458  0020C2  B4D8               	btfsc	status,2,c
  2459  0020C4  EF66  F010         	goto	u3631
  2460  0020C8  EF68  F010         	goto	u3630
  2461  0020CC                     u3631:
  2462  0020CC  EFA9  F010         	goto	l3525
  2463  0020D0                     u3630:
  2464  0020D0                     
  2465                           ; BSR set to: 5
  2466  0020D0  BECF               	btfsc	207,7,c	;volatile
  2467  0020D2  EF6D  F010         	goto	u3641
  2468  0020D6  EF6F  F010         	goto	u3640
  2469  0020DA                     u3641:
  2470  0020DA  EFA9  F010         	goto	l3525
  2471  0020DE                     u3640:
  2472  0020DE                     
  2473                           ; BSR set to: 5
  2474  0020DE  5179               	movf	main@taster4Flag& (0+255),w,b
  2475  0020E0  B4D8               	btfsc	status,2,c
  2476  0020E2  EF75  F010         	goto	u3651
  2477  0020E6  EF77  F010         	goto	u3650
  2478  0020EA                     u3651:
  2479  0020EA  EFA9  F010         	goto	l3525
  2480  0020EE                     u3650:
  2481  0020EE                     
  2482                           ; BSR set to: 5
  2483                           ;main.c: 324:                 {;main.c: 325:                     redMode4 = red;
  2484  0020EE  C58F  F581         	movff	main@red,main@redMode4
  2485                           
  2486                           ;main.c: 326:                     greenMode4 = green;
  2487  0020F2  C590  F582         	movff	main@green,main@greenMode4
  2488                           
  2489                           ;main.c: 327:                     blueMode4 = blue;
  2490  0020F6  C591  F583         	movff	main@blue,main@blueMode4
  2491                           
  2492                           ;main.c: 328:                     whiteMode4 = white;
  2493  0020FA  C592  F586         	movff	main@white,main@whiteMode4
  2494  0020FE                     
  2495                           ; BSR set to: 5
  2496                           ;main.c: 329:                     led4Blink = 0;
  2497  0020FE  0E00               	movlw	0
  2498  002100  6F8A               	movwf	main@led4Blink& (0+255),b
  2499  002102                     
  2500                           ; BSR set to: 5
  2501                           ;main.c: 330:                     DATAEE_WriteByte(32, blueMode4);
  2502  002102  0E00               	movlw	0
  2503  002104  6E02               	movwf	(DATAEE_WriteByte@bAdd+1)^(0+1280),c
  2504  002106  0E20               	movlw	32
  2505  002108  6E01               	movwf	DATAEE_WriteByte@bAdd^(0+1280),c
  2506  00210A  C583  F503         	movff	main@blueMode4,DATAEE_WriteByte@bData
  2507  00210E  EC40  F01E         	call	_DATAEE_WriteByte	;wreg free
  2508  002112                     
  2509                           ;main.c: 331:                     DATAEE_WriteByte(31, greenMode4);
  2510  002112  0E00               	movlw	0
  2511  002114  6E02               	movwf	(DATAEE_WriteByte@bAdd+1)^(0+1280),c
  2512  002116  0E1F               	movlw	31
  2513  002118  6E01               	movwf	DATAEE_WriteByte@bAdd^(0+1280),c
  2514  00211A  C582  F503         	movff	main@greenMode4,DATAEE_WriteByte@bData
  2515  00211E  EC40  F01E         	call	_DATAEE_WriteByte	;wreg free
  2516  002122                     
  2517                           ;main.c: 332:                     DATAEE_WriteByte(30, redMode4);
  2518  002122  0E00               	movlw	0
  2519  002124  6E02               	movwf	(DATAEE_WriteByte@bAdd+1)^(0+1280),c
  2520  002126  0E1E               	movlw	30
  2521  002128  6E01               	movwf	DATAEE_WriteByte@bAdd^(0+1280),c
  2522  00212A  C581  F503         	movff	main@redMode4,DATAEE_WriteByte@bData
  2523  00212E  EC40  F01E         	call	_DATAEE_WriteByte	;wreg free
  2524  002132                     
  2525                           ;main.c: 333:                     DATAEE_WriteByte(34, whiteMode4);
  2526  002132  0E00               	movlw	0
  2527  002134  6E02               	movwf	(DATAEE_WriteByte@bAdd+1)^(0+1280),c
  2528  002136  0E22               	movlw	34
  2529  002138  6E01               	movwf	DATAEE_WriteByte@bAdd^(0+1280),c
  2530  00213A  C586  F503         	movff	main@whiteMode4,DATAEE_WriteByte@bData
  2531  00213E  EC40  F01E         	call	_DATAEE_WriteByte	;wreg free
  2532  002142                     
  2533                           ;main.c: 334:                     DATAEE_WriteByte(8, 69);
  2534  002142  0E00               	movlw	0
  2535  002144  6E02               	movwf	(DATAEE_WriteByte@bAdd+1)^(0+1280),c
  2536  002146  0E08               	movlw	8
  2537  002148  6E01               	movwf	DATAEE_WriteByte@bAdd^(0+1280),c
  2538  00214A  0E45               	movlw	69
  2539  00214C  6E03               	movwf	DATAEE_WriteByte@bData^(0+1280),c
  2540  00214E  EC40  F01E         	call	_DATAEE_WriteByte	;wreg free
  2541  002152                     l3525:
  2542                           
  2543                           ;main.c: 339:                 if(PORTCbits.RC6)
  2544  002152  ACD0               	btfss	208,6,c	;volatile
  2545  002154  EFAE  F010         	goto	u3661
  2546  002158  EFB0  F010         	goto	u3660
  2547  00215C                     u3661:
  2548  00215C  EFB5  F010         	goto	l3529
  2549  002160                     u3660:
  2550  002160                     
  2551                           ;main.c: 340:                 {;main.c: 341:                     timeout5sPressed1 = 0;
  2552  002160  0E00               	movlw	0
  2553  002162  0105               	movlb	5	; () banked
  2554  002164  6F66               	movwf	(main@timeout5sPressed1+1)& (0+255),b
  2555  002166  0E00               	movlw	0
  2556  002168  6F65               	movwf	main@timeout5sPressed1& (0+255),b
  2557  00216A                     l3529:
  2558                           
  2559                           ;main.c: 344:                 if(PORTAbits.RA4)
  2560  00216A  A8CE               	btfss	206,4,c	;volatile
  2561  00216C  EFBA  F010         	goto	u3671
  2562  002170  EFBC  F010         	goto	u3670
  2563  002174                     u3671:
  2564  002174  EFC1  F010         	goto	l3533
  2565  002178                     u3670:
  2566  002178                     
  2567                           ;main.c: 345:                 {;main.c: 346:                     timeout5sPressed2 = 0;
  2568  002178  0E00               	movlw	0
  2569  00217A  0105               	movlb	5	; () banked
  2570  00217C  6F68               	movwf	(main@timeout5sPressed2+1)& (0+255),b
  2571  00217E  0E00               	movlw	0
  2572  002180  6F67               	movwf	main@timeout5sPressed2& (0+255),b
  2573  002182                     l3533:
  2574                           
  2575                           ;main.c: 349:                 if(PORTCbits.RC4)
  2576  002182  A8D0               	btfss	208,4,c	;volatile
  2577  002184  EFC6  F010         	goto	u3681
  2578  002188  EFC8  F010         	goto	u3680
  2579  00218C                     u3681:
  2580  00218C  EFCD  F010         	goto	l3537
  2581  002190                     u3680:
  2582  002190                     
  2583                           ;main.c: 350:                 {;main.c: 351:                     timeout5sPressed3 = 0;
  2584  002190  0E00               	movlw	0
  2585  002192  0105               	movlb	5	; () banked
  2586  002194  6F6A               	movwf	(main@timeout5sPressed3+1)& (0+255),b
  2587  002196  0E00               	movlw	0
  2588  002198  6F69               	movwf	main@timeout5sPressed3& (0+255),b
  2589  00219A                     l3537:
  2590                           
  2591                           ;main.c: 354:                 if(PORTBbits.RB7)
  2592  00219A  AECF               	btfss	207,7,c	;volatile
  2593  00219C  EFD2  F010         	goto	u3691
  2594  0021A0  EFD4  F010         	goto	u3690
  2595  0021A4                     u3691:
  2596  0021A4  EFD9  F00C         	goto	l3303
  2597  0021A8                     u3690:
  2598  0021A8                     
  2599                           ;main.c: 355:                 {;main.c: 356:                     timeout5sPressed4 = 0;
  2600  0021A8  0E00               	movlw	0
  2601  0021AA  0105               	movlb	5	; () banked
  2602  0021AC  6F6C               	movwf	(main@timeout5sPressed4+1)& (0+255),b
  2603  0021AE  0E00               	movlw	0
  2604  0021B0  6F6B               	movwf	main@timeout5sPressed4& (0+255),b
  2605  0021B2  EFD9  F00C         	goto	l3303
  2606  0021B6                     l593:
  2607                           
  2608                           ; BSR set to: 5
  2609                           ;main.c: 364:                 if(PORTCbits.RC6)
  2610  0021B6  ACD0               	btfss	208,6,c	;volatile
  2611  0021B8  EFE0  F010         	goto	u3701
  2612  0021BC  EFE2  F010         	goto	u3700
  2613  0021C0                     u3701:
  2614  0021C0  EF05  F011         	goto	l3551
  2615  0021C4                     u3700:
  2616  0021C4                     
  2617                           ; BSR set to: 5
  2618                           ;main.c: 365:                 {;main.c: 366:                     LATCbits.LATC7 = 1;
  2619  0021C4  8EC0               	bsf	192,7,c	;volatile
  2620  0021C6                     
  2621                           ; BSR set to: 5
  2622                           ;main.c: 367:                     LED_WriteFull(redMode1, greenMode1, blueMode1, whiteMo
      +                          de1, 300);
  2623  0021C6  C58C  F507         	movff	main@greenMode1,LED_WriteFull@green
  2624  0021CA  C58D  F508         	movff	main@blueMode1,LED_WriteFull@blue
  2625  0021CE  C58E  F509         	movff	main@whiteMode1,LED_WriteFull@white
  2626  0021D2  0E2C               	movlw	44
  2627  0021D4  6E0A               	movwf	LED_WriteFull@ledcount^(0+1280),c
  2628  0021D6  0E01               	movlw	1
  2629  0021D8  6E0B               	movwf	(LED_WriteFull@ledcount+1)^(0+1280),c
  2630  0021DA  0E00               	movlw	0
  2631  0021DC  6E0C               	movwf	(LED_WriteFull@ledcount+2)^(0+1280),c
  2632  0021DE  518B               	movf	main@redMode1& (0+255),w,b
  2633  0021E0  EC69  F01E         	call	_LED_WriteFull
  2634  0021E4                     
  2635                           ;main.c: 368:                     state = T1;
  2636  0021E4  0E01               	movlw	1
  2637  0021E6  0105               	movlb	5	; () banked
  2638  0021E8  6F93               	movwf	main@state& (0+255),b
  2639  0021EA                     
  2640                           ; BSR set to: 5
  2641                           ;main.c: 369:                     DATAEE_WriteByte(36, state);
  2642  0021EA  0E00               	movlw	0
  2643  0021EC  6E02               	movwf	(DATAEE_WriteByte@bAdd+1)^(0+1280),c
  2644  0021EE  0E24               	movlw	36
  2645  0021F0  6E01               	movwf	DATAEE_WriteByte@bAdd^(0+1280),c
  2646  0021F2  C593  F503         	movff	main@state,DATAEE_WriteByte@bData
  2647  0021F6  EC40  F01E         	call	_DATAEE_WriteByte	;wreg free
  2648  0021FA                     
  2649                           ;main.c: 370:                     DATAEE_WriteByte(2, 69);
  2650  0021FA  0E00               	movlw	0
  2651  0021FC  6E02               	movwf	(DATAEE_WriteByte@bAdd+1)^(0+1280),c
  2652  0021FE  0E02               	movlw	2
  2653  002200  6E01               	movwf	DATAEE_WriteByte@bAdd^(0+1280),c
  2654  002202  0E45               	movlw	69
  2655  002204  6E03               	movwf	DATAEE_WriteByte@bData^(0+1280),c
  2656  002206  EC40  F01E         	call	_DATAEE_WriteByte	;wreg free
  2657  00220A                     l3551:
  2658                           
  2659                           ;main.c: 373:                 if(!PORTCbits.RC6 && (++timeout5sPressed1 == 250))
  2660  00220A  BCD0               	btfsc	208,6,c	;volatile
  2661  00220C  EF0A  F011         	goto	u3711
  2662  002210  EF0C  F011         	goto	u3710
  2663  002214                     u3711:
  2664  002214  EFD9  F00C         	goto	l3303
  2665  002218                     u3710:
  2666  002218  0105               	movlb	5	; () banked
  2667  00221A  4B65               	infsnz	main@timeout5sPressed1& (0+255),f,b
  2668  00221C  2B66               	incf	(main@timeout5sPressed1+1)& (0+255),f,b
  2669  00221E  0EFA               	movlw	250
  2670  002220  1965               	xorwf	main@timeout5sPressed1& (0+255),w,b
  2671  002222  1166               	iorwf	(main@timeout5sPressed1+1)& (0+255),w,b
  2672  002224  A4D8               	btfss	status,2,c
  2673  002226  EF17  F011         	goto	u3721
  2674  00222A  EF19  F011         	goto	u3720
  2675  00222E                     u3721:
  2676  00222E  EFD9  F00C         	goto	l3303
  2677  002232                     u3720:
  2678  002232                     
  2679                           ; BSR set to: 5
  2680                           ;main.c: 374:                 {;main.c: 375:                     timeout5sPressed1 = 0;
  2681  002232  0E00               	movlw	0
  2682  002234  6F66               	movwf	(main@timeout5sPressed1+1)& (0+255),b
  2683  002236  0E00               	movlw	0
  2684  002238  6F65               	movwf	main@timeout5sPressed1& (0+255),b
  2685                           
  2686                           ;main.c: 376:                     led1Blink = 1;
  2687  00223A  0E01               	movlw	1
  2688  00223C  6F87               	movwf	main@led1Blink& (0+255),b
  2689                           
  2690                           ;main.c: 377:                     state = MANUAL;
  2691  00223E  0E00               	movlw	0
  2692  002240  6F93               	movwf	main@state& (0+255),b
  2693  002242                     l3557:
  2694                           
  2695                           ; BSR set to: 5
  2696                           ;main.c: 378:                     DATAEE_WriteByte(36, state);
  2697  002242  0E00               	movlw	0
  2698  002244  6E02               	movwf	(DATAEE_WriteByte@bAdd+1)^(0+1280),c
  2699  002246  0E24               	movlw	36
  2700  002248  6E01               	movwf	DATAEE_WriteByte@bAdd^(0+1280),c
  2701  00224A  C593  F503         	movff	main@state,DATAEE_WriteByte@bData
  2702  00224E  EC40  F01E         	call	_DATAEE_WriteByte	;wreg free
  2703  002252                     
  2704                           ;main.c: 379:                     DATAEE_WriteByte(2, 69);
  2705  002252  0E00               	movlw	0
  2706  002254  6E02               	movwf	(DATAEE_WriteByte@bAdd+1)^(0+1280),c
  2707  002256  0E02               	movlw	2
  2708  002258  6E01               	movwf	DATAEE_WriteByte@bAdd^(0+1280),c
  2709  00225A  0E45               	movlw	69
  2710  00225C  6E03               	movwf	DATAEE_WriteByte@bData^(0+1280),c
  2711  00225E  EC40  F01E         	call	_DATAEE_WriteByte	;wreg free
  2712  002262  EFD9  F00C         	goto	l3303
  2713  002266                     l596:
  2714                           
  2715                           ; BSR set to: 5
  2716                           ;main.c: 387:                 if(PORTAbits.RA4)
  2717  002266  A8CE               	btfss	206,4,c	;volatile
  2718  002268  EF38  F011         	goto	u3731
  2719  00226C  EF3A  F011         	goto	u3730
  2720  002270                     u3731:
  2721  002270  EF5D  F011         	goto	l3571
  2722  002274                     u3730:
  2723  002274                     
  2724                           ; BSR set to: 5
  2725                           ;main.c: 388:                 {;main.c: 389:                     LATCbits.LATC5 = 1;
  2726  002274  8AC0               	bsf	192,5,c	;volatile
  2727  002276                     
  2728                           ; BSR set to: 5
  2729                           ;main.c: 390:                     LED_WriteFull(redMode2, greenMode2, blueMode2, whiteMo
      +                          de2, 300);
  2730  002276  C57C  F507         	movff	main@greenMode2,LED_WriteFull@green
  2731  00227A  C57D  F508         	movff	main@blueMode2,LED_WriteFull@blue
  2732  00227E  C584  F509         	movff	main@whiteMode2,LED_WriteFull@white
  2733  002282  0E2C               	movlw	44
  2734  002284  6E0A               	movwf	LED_WriteFull@ledcount^(0+1280),c
  2735  002286  0E01               	movlw	1
  2736  002288  6E0B               	movwf	(LED_WriteFull@ledcount+1)^(0+1280),c
  2737  00228A  0E00               	movlw	0
  2738  00228C  6E0C               	movwf	(LED_WriteFull@ledcount+2)^(0+1280),c
  2739  00228E  517B               	movf	main@redMode2& (0+255),w,b
  2740  002290  EC69  F01E         	call	_LED_WriteFull
  2741  002294                     
  2742                           ;main.c: 391:                     state = T2;
  2743  002294  0E02               	movlw	2
  2744  002296  0105               	movlb	5	; () banked
  2745  002298  6F93               	movwf	main@state& (0+255),b
  2746  00229A                     
  2747                           ; BSR set to: 5
  2748                           ;main.c: 392:                     DATAEE_WriteByte(36, state);
  2749  00229A  0E00               	movlw	0
  2750  00229C  6E02               	movwf	(DATAEE_WriteByte@bAdd+1)^(0+1280),c
  2751  00229E  0E24               	movlw	36
  2752  0022A0  6E01               	movwf	DATAEE_WriteByte@bAdd^(0+1280),c
  2753  0022A2  C593  F503         	movff	main@state,DATAEE_WriteByte@bData
  2754  0022A6  EC40  F01E         	call	_DATAEE_WriteByte	;wreg free
  2755  0022AA                     
  2756                           ;main.c: 393:                     DATAEE_WriteByte(2, 69);
  2757  0022AA  0E00               	movlw	0
  2758  0022AC  6E02               	movwf	(DATAEE_WriteByte@bAdd+1)^(0+1280),c
  2759  0022AE  0E02               	movlw	2
  2760  0022B0  6E01               	movwf	DATAEE_WriteByte@bAdd^(0+1280),c
  2761  0022B2  0E45               	movlw	69
  2762  0022B4  6E03               	movwf	DATAEE_WriteByte@bData^(0+1280),c
  2763  0022B6  EC40  F01E         	call	_DATAEE_WriteByte	;wreg free
  2764  0022BA                     l3571:
  2765                           
  2766                           ;main.c: 396:                 if(!PORTAbits.RA4 && (++timeout5sPressed2 == 250))
  2767  0022BA  B8CE               	btfsc	206,4,c	;volatile
  2768  0022BC  EF62  F011         	goto	u3741
  2769  0022C0  EF64  F011         	goto	u3740
  2770  0022C4                     u3741:
  2771  0022C4  EFD9  F00C         	goto	l3303
  2772  0022C8                     u3740:
  2773  0022C8  0105               	movlb	5	; () banked
  2774  0022CA  4B67               	infsnz	main@timeout5sPressed2& (0+255),f,b
  2775  0022CC  2B68               	incf	(main@timeout5sPressed2+1)& (0+255),f,b
  2776  0022CE  0EFA               	movlw	250
  2777  0022D0  1967               	xorwf	main@timeout5sPressed2& (0+255),w,b
  2778  0022D2  1168               	iorwf	(main@timeout5sPressed2+1)& (0+255),w,b
  2779  0022D4  A4D8               	btfss	status,2,c
  2780  0022D6  EF6F  F011         	goto	u3751
  2781  0022DA  EF71  F011         	goto	u3750
  2782  0022DE                     u3751:
  2783  0022DE  EFD9  F00C         	goto	l3303
  2784  0022E2                     u3750:
  2785  0022E2                     
  2786                           ; BSR set to: 5
  2787                           ;main.c: 397:                 {;main.c: 398:                     timeout5sPressed2 = 0;
  2788  0022E2  0E00               	movlw	0
  2789  0022E4  6F68               	movwf	(main@timeout5sPressed2+1)& (0+255),b
  2790  0022E6  0E00               	movlw	0
  2791  0022E8  6F67               	movwf	main@timeout5sPressed2& (0+255),b
  2792                           
  2793                           ;main.c: 399:                     led2Blink = 1;
  2794  0022EA  0E01               	movlw	1
  2795  0022EC  6F88               	movwf	main@led2Blink& (0+255),b
  2796                           
  2797                           ;main.c: 400:                     state = MANUAL;
  2798  0022EE  0E00               	movlw	0
  2799  0022F0  6F93               	movwf	main@state& (0+255),b
  2800  0022F2  EF21  F011         	goto	l3557
  2801  0022F6                     l599:
  2802                           
  2803                           ; BSR set to: 5
  2804                           ;main.c: 409:                 if(PORTCbits.RC4)
  2805  0022F6  A8D0               	btfss	208,4,c	;volatile
  2806  0022F8  EF80  F011         	goto	u3761
  2807  0022FC  EF82  F011         	goto	u3760
  2808  002300                     u3761:
  2809  002300  EFA5  F011         	goto	l3591
  2810  002304                     u3760:
  2811  002304                     
  2812                           ; BSR set to: 5
  2813                           ;main.c: 410:                 {;main.c: 411:                     LATAbits.LATA5 = 1;
  2814  002304  8ABE               	bsf	190,5,c	;volatile
  2815  002306                     
  2816                           ; BSR set to: 5
  2817                           ;main.c: 412:                     LED_WriteFull(redMode3, greenMode3, blueMode3, whiteMo
      +                          de3, 300);
  2818  002306  C57F  F507         	movff	main@greenMode3,LED_WriteFull@green
  2819  00230A  C580  F508         	movff	main@blueMode3,LED_WriteFull@blue
  2820  00230E  C585  F509         	movff	main@whiteMode3,LED_WriteFull@white
  2821  002312  0E2C               	movlw	44
  2822  002314  6E0A               	movwf	LED_WriteFull@ledcount^(0+1280),c
  2823  002316  0E01               	movlw	1
  2824  002318  6E0B               	movwf	(LED_WriteFull@ledcount+1)^(0+1280),c
  2825  00231A  0E00               	movlw	0
  2826  00231C  6E0C               	movwf	(LED_WriteFull@ledcount+2)^(0+1280),c
  2827  00231E  517E               	movf	main@redMode3& (0+255),w,b
  2828  002320  EC69  F01E         	call	_LED_WriteFull
  2829  002324                     
  2830                           ;main.c: 413:                     state = T3;
  2831  002324  0E03               	movlw	3
  2832  002326  0105               	movlb	5	; () banked
  2833  002328  6F93               	movwf	main@state& (0+255),b
  2834  00232A                     
  2835                           ; BSR set to: 5
  2836                           ;main.c: 414:                     DATAEE_WriteByte(36, state);
  2837  00232A  0E00               	movlw	0
  2838  00232C  6E02               	movwf	(DATAEE_WriteByte@bAdd+1)^(0+1280),c
  2839  00232E  0E24               	movlw	36
  2840  002330  6E01               	movwf	DATAEE_WriteByte@bAdd^(0+1280),c
  2841  002332  C593  F503         	movff	main@state,DATAEE_WriteByte@bData
  2842  002336  EC40  F01E         	call	_DATAEE_WriteByte	;wreg free
  2843  00233A                     
  2844                           ;main.c: 415:                     DATAEE_WriteByte(2, 69);
  2845  00233A  0E00               	movlw	0
  2846  00233C  6E02               	movwf	(DATAEE_WriteByte@bAdd+1)^(0+1280),c
  2847  00233E  0E02               	movlw	2
  2848  002340  6E01               	movwf	DATAEE_WriteByte@bAdd^(0+1280),c
  2849  002342  0E45               	movlw	69
  2850  002344  6E03               	movwf	DATAEE_WriteByte@bData^(0+1280),c
  2851  002346  EC40  F01E         	call	_DATAEE_WriteByte	;wreg free
  2852  00234A                     l3591:
  2853                           
  2854                           ;main.c: 418:                 if(!PORTCbits.RC4 && (++timeout5sPressed3 == 250))
  2855  00234A  B8D0               	btfsc	208,4,c	;volatile
  2856  00234C  EFAA  F011         	goto	u3771
  2857  002350  EFAC  F011         	goto	u3770
  2858  002354                     u3771:
  2859  002354  EFD9  F00C         	goto	l3303
  2860  002358                     u3770:
  2861  002358  0105               	movlb	5	; () banked
  2862  00235A  4B69               	infsnz	main@timeout5sPressed3& (0+255),f,b
  2863  00235C  2B6A               	incf	(main@timeout5sPressed3+1)& (0+255),f,b
  2864  00235E  0EFA               	movlw	250
  2865  002360  1969               	xorwf	main@timeout5sPressed3& (0+255),w,b
  2866  002362  116A               	iorwf	(main@timeout5sPressed3+1)& (0+255),w,b
  2867  002364  A4D8               	btfss	status,2,c
  2868  002366  EFB7  F011         	goto	u3781
  2869  00236A  EFB9  F011         	goto	u3780
  2870  00236E                     u3781:
  2871  00236E  EFD9  F00C         	goto	l3303
  2872  002372                     u3780:
  2873  002372                     
  2874                           ; BSR set to: 5
  2875                           ;main.c: 419:                 {;main.c: 420:                     timeout5sPressed3 = 0;
  2876  002372  0E00               	movlw	0
  2877  002374  6F6A               	movwf	(main@timeout5sPressed3+1)& (0+255),b
  2878  002376  0E00               	movlw	0
  2879  002378  6F69               	movwf	main@timeout5sPressed3& (0+255),b
  2880                           
  2881                           ;main.c: 421:                     led3Blink = 1;
  2882  00237A  0E01               	movlw	1
  2883  00237C  6F89               	movwf	main@led3Blink& (0+255),b
  2884                           
  2885                           ;main.c: 422:                     state = MANUAL;
  2886  00237E  0E00               	movlw	0
  2887  002380  6F93               	movwf	main@state& (0+255),b
  2888  002382  EF21  F011         	goto	l3557
  2889  002386                     l602:
  2890                           
  2891                           ; BSR set to: 5
  2892                           ;main.c: 432:                 if(PORTBbits.RB7)
  2893  002386  AECF               	btfss	207,7,c	;volatile
  2894  002388  EFC8  F011         	goto	u3791
  2895  00238C  EFCA  F011         	goto	u3790
  2896  002390                     u3791:
  2897  002390  EFED  F011         	goto	l3611
  2898  002394                     u3790:
  2899  002394                     
  2900                           ; BSR set to: 5
  2901                           ;main.c: 433:                 {;main.c: 434:                     LATCbits.LATC3 = 1;
  2902  002394  86C0               	bsf	192,3,c	;volatile
  2903  002396                     
  2904                           ; BSR set to: 5
  2905                           ;main.c: 435:                     LED_WriteFull(redMode4, greenMode4, blueMode4, whiteMo
      +                          de4, 300);
  2906  002396  C582  F507         	movff	main@greenMode4,LED_WriteFull@green
  2907  00239A  C583  F508         	movff	main@blueMode4,LED_WriteFull@blue
  2908  00239E  C586  F509         	movff	main@whiteMode4,LED_WriteFull@white
  2909  0023A2  0E2C               	movlw	44
  2910  0023A4  6E0A               	movwf	LED_WriteFull@ledcount^(0+1280),c
  2911  0023A6  0E01               	movlw	1
  2912  0023A8  6E0B               	movwf	(LED_WriteFull@ledcount+1)^(0+1280),c
  2913  0023AA  0E00               	movlw	0
  2914  0023AC  6E0C               	movwf	(LED_WriteFull@ledcount+2)^(0+1280),c
  2915  0023AE  5181               	movf	main@redMode4& (0+255),w,b
  2916  0023B0  EC69  F01E         	call	_LED_WriteFull
  2917  0023B4                     
  2918                           ;main.c: 436:                     state = T4;
  2919  0023B4  0E04               	movlw	4
  2920  0023B6  0105               	movlb	5	; () banked
  2921  0023B8  6F93               	movwf	main@state& (0+255),b
  2922  0023BA                     
  2923                           ; BSR set to: 5
  2924                           ;main.c: 437:                     DATAEE_WriteByte(36, state);
  2925  0023BA  0E00               	movlw	0
  2926  0023BC  6E02               	movwf	(DATAEE_WriteByte@bAdd+1)^(0+1280),c
  2927  0023BE  0E24               	movlw	36
  2928  0023C0  6E01               	movwf	DATAEE_WriteByte@bAdd^(0+1280),c
  2929  0023C2  C593  F503         	movff	main@state,DATAEE_WriteByte@bData
  2930  0023C6  EC40  F01E         	call	_DATAEE_WriteByte	;wreg free
  2931  0023CA                     
  2932                           ;main.c: 438:                     DATAEE_WriteByte(2, 69);
  2933  0023CA  0E00               	movlw	0
  2934  0023CC  6E02               	movwf	(DATAEE_WriteByte@bAdd+1)^(0+1280),c
  2935  0023CE  0E02               	movlw	2
  2936  0023D0  6E01               	movwf	DATAEE_WriteByte@bAdd^(0+1280),c
  2937  0023D2  0E45               	movlw	69
  2938  0023D4  6E03               	movwf	DATAEE_WriteByte@bData^(0+1280),c
  2939  0023D6  EC40  F01E         	call	_DATAEE_WriteByte	;wreg free
  2940  0023DA                     l3611:
  2941                           
  2942                           ;main.c: 441:                 if(!PORTBbits.RB7 && (++timeout5sPressed4 == 250))
  2943  0023DA  BECF               	btfsc	207,7,c	;volatile
  2944  0023DC  EFF2  F011         	goto	u3801
  2945  0023E0  EFF4  F011         	goto	u3800
  2946  0023E4                     u3801:
  2947  0023E4  EFD9  F00C         	goto	l3303
  2948  0023E8                     u3800:
  2949  0023E8  0105               	movlb	5	; () banked
  2950  0023EA  4B6B               	infsnz	main@timeout5sPressed4& (0+255),f,b
  2951  0023EC  2B6C               	incf	(main@timeout5sPressed4+1)& (0+255),f,b
  2952  0023EE  0EFA               	movlw	250
  2953  0023F0  196B               	xorwf	main@timeout5sPressed4& (0+255),w,b
  2954  0023F2  116C               	iorwf	(main@timeout5sPressed4+1)& (0+255),w,b
  2955  0023F4  A4D8               	btfss	status,2,c
  2956  0023F6  EFFF  F011         	goto	u3811
  2957  0023FA  EF01  F012         	goto	u3810
  2958  0023FE                     u3811:
  2959  0023FE  EFD9  F00C         	goto	l3303
  2960  002402                     u3810:
  2961  002402                     
  2962                           ; BSR set to: 5
  2963                           ;main.c: 442:                 {;main.c: 443:                     timeout5sPressed4 = 0;
  2964  002402  0E00               	movlw	0
  2965  002404  6F6C               	movwf	(main@timeout5sPressed4+1)& (0+255),b
  2966  002406  0E00               	movlw	0
  2967  002408  6F6B               	movwf	main@timeout5sPressed4& (0+255),b
  2968                           
  2969                           ;main.c: 444:                     led4Blink = 1;
  2970  00240A  0E01               	movlw	1
  2971  00240C  6F8A               	movwf	main@led4Blink& (0+255),b
  2972                           
  2973                           ;main.c: 445:                     state = MANUAL;
  2974  00240E  0E00               	movlw	0
  2975  002410  6F93               	movwf	main@state& (0+255),b
  2976  002412  EF21  F011         	goto	l3557
  2977  002416                     l605:
  2978                           
  2979                           ; BSR set to: 5
  2980                           ;main.c: 456:                 if(PORTCbits.RC6)
  2981  002416  ACD0               	btfss	208,6,c	;volatile
  2982  002418  EF10  F012         	goto	u3821
  2983  00241C  EF12  F012         	goto	u3820
  2984  002420                     u3821:
  2985  002420  EF25  F012         	goto	l3629
  2986  002424                     u3820:
  2987  002424                     
  2988                           ; BSR set to: 5
  2989                           ;main.c: 457:                 {;main.c: 458:                     LATCbits.LATC7 = 0;
  2990  002424  9EC0               	bcf	192,7,c	;volatile
  2991  002426                     
  2992                           ; BSR set to: 5
  2993                           ;main.c: 459:                     state = MANUAL;
  2994  002426  0E00               	movlw	0
  2995  002428  6F93               	movwf	main@state& (0+255),b
  2996  00242A                     
  2997                           ; BSR set to: 5
  2998                           ;main.c: 460:                     DATAEE_WriteByte(36, state);
  2999  00242A  0E00               	movlw	0
  3000  00242C  6E02               	movwf	(DATAEE_WriteByte@bAdd+1)^(0+1280),c
  3001  00242E  0E24               	movlw	36
  3002  002430  6E01               	movwf	DATAEE_WriteByte@bAdd^(0+1280),c
  3003  002432  C593  F503         	movff	main@state,DATAEE_WriteByte@bData
  3004  002436  EC40  F01E         	call	_DATAEE_WriteByte	;wreg free
  3005  00243A                     
  3006                           ;main.c: 461:                     DATAEE_WriteByte(2, 69);
  3007  00243A  0E00               	movlw	0
  3008  00243C  6E02               	movwf	(DATAEE_WriteByte@bAdd+1)^(0+1280),c
  3009  00243E  0E02               	movlw	2
  3010  002440  6E01               	movwf	DATAEE_WriteByte@bAdd^(0+1280),c
  3011  002442  0E45               	movlw	69
  3012  002444  6E03               	movwf	DATAEE_WriteByte@bData^(0+1280),c
  3013  002446  EC40  F01E         	call	_DATAEE_WriteByte	;wreg free
  3014  00244A                     l3629:
  3015                           
  3016                           ;main.c: 464:                 if(!PORTCbits.RC6 && (++timeout5sPressed1 == 250))
  3017  00244A  BCD0               	btfsc	208,6,c	;volatile
  3018  00244C  EF2A  F012         	goto	u3831
  3019  002450  EF2C  F012         	goto	u3830
  3020  002454                     u3831:
  3021  002454  EFD9  F00C         	goto	l3303
  3022  002458                     u3830:
  3023  002458  0105               	movlb	5	; () banked
  3024  00245A  4B65               	infsnz	main@timeout5sPressed1& (0+255),f,b
  3025  00245C  2B66               	incf	(main@timeout5sPressed1+1)& (0+255),f,b
  3026  00245E  0EFA               	movlw	250
  3027  002460  1965               	xorwf	main@timeout5sPressed1& (0+255),w,b
  3028  002462  1166               	iorwf	(main@timeout5sPressed1+1)& (0+255),w,b
  3029  002464  A4D8               	btfss	status,2,c
  3030  002466  EF37  F012         	goto	u3841
  3031  00246A  EF39  F012         	goto	u3840
  3032  00246E                     u3841:
  3033  00246E  EFD9  F00C         	goto	l3303
  3034  002472                     u3840:
  3035  002472                     
  3036                           ; BSR set to: 5
  3037                           ;main.c: 465:                 {;main.c: 466:                     timeout5sPressed1 = 0;
  3038  002472  0E00               	movlw	0
  3039  002474  6F66               	movwf	(main@timeout5sPressed1+1)& (0+255),b
  3040  002476  0E00               	movlw	0
  3041  002478  6F65               	movwf	main@timeout5sPressed1& (0+255),b
  3042                           
  3043                           ;main.c: 467:                     led1StateBlink = 1;
  3044  00247A  0E01               	movlw	1
  3045  00247C  6F6D               	movwf	main@led1StateBlink& (0+255),b
  3046                           
  3047                           ;main.c: 468:                     state = T1;
  3048  00247E  0E01               	movlw	1
  3049  002480  6F93               	movwf	main@state& (0+255),b
  3050  002482  EFD9  F00C         	goto	l3303
  3051  002486                     l608:
  3052                           
  3053                           ; BSR set to: 5
  3054                           ;main.c: 477:                 if(PORTAbits.RA4)
  3055  002486  A8CE               	btfss	206,4,c	;volatile
  3056  002488  EF48  F012         	goto	u3851
  3057  00248C  EF4A  F012         	goto	u3850
  3058  002490                     u3851:
  3059  002490  EF5D  F012         	goto	l3643
  3060  002494                     u3850:
  3061  002494                     
  3062                           ; BSR set to: 5
  3063                           ;main.c: 478:                 {;main.c: 479:                     LATCbits.LATC5 = 0;
  3064  002494  9AC0               	bcf	192,5,c	;volatile
  3065  002496                     
  3066                           ; BSR set to: 5
  3067                           ;main.c: 480:                     state = MANUAL;
  3068  002496  0E00               	movlw	0
  3069  002498  6F93               	movwf	main@state& (0+255),b
  3070  00249A                     
  3071                           ; BSR set to: 5
  3072                           ;main.c: 481:                     DATAEE_WriteByte(36, state);
  3073  00249A  0E00               	movlw	0
  3074  00249C  6E02               	movwf	(DATAEE_WriteByte@bAdd+1)^(0+1280),c
  3075  00249E  0E24               	movlw	36
  3076  0024A0  6E01               	movwf	DATAEE_WriteByte@bAdd^(0+1280),c
  3077  0024A2  C593  F503         	movff	main@state,DATAEE_WriteByte@bData
  3078  0024A6  EC40  F01E         	call	_DATAEE_WriteByte	;wreg free
  3079  0024AA                     
  3080                           ;main.c: 482:                     DATAEE_WriteByte(2, 69);
  3081  0024AA  0E00               	movlw	0
  3082  0024AC  6E02               	movwf	(DATAEE_WriteByte@bAdd+1)^(0+1280),c
  3083  0024AE  0E02               	movlw	2
  3084  0024B0  6E01               	movwf	DATAEE_WriteByte@bAdd^(0+1280),c
  3085  0024B2  0E45               	movlw	69
  3086  0024B4  6E03               	movwf	DATAEE_WriteByte@bData^(0+1280),c
  3087  0024B6  EC40  F01E         	call	_DATAEE_WriteByte	;wreg free
  3088  0024BA                     l3643:
  3089                           
  3090                           ;main.c: 485:                 if(!PORTAbits.RA4 && (++timeout5sPressed2 == 250))
  3091  0024BA  B8CE               	btfsc	206,4,c	;volatile
  3092  0024BC  EF62  F012         	goto	u3861
  3093  0024C0  EF64  F012         	goto	u3860
  3094  0024C4                     u3861:
  3095  0024C4  EFD9  F00C         	goto	l3303
  3096  0024C8                     u3860:
  3097  0024C8  0105               	movlb	5	; () banked
  3098  0024CA  4B67               	infsnz	main@timeout5sPressed2& (0+255),f,b
  3099  0024CC  2B68               	incf	(main@timeout5sPressed2+1)& (0+255),f,b
  3100  0024CE  0EFA               	movlw	250
  3101  0024D0  1967               	xorwf	main@timeout5sPressed2& (0+255),w,b
  3102  0024D2  1168               	iorwf	(main@timeout5sPressed2+1)& (0+255),w,b
  3103  0024D4  A4D8               	btfss	status,2,c
  3104  0024D6  EF6F  F012         	goto	u3871
  3105  0024DA  EF71  F012         	goto	u3870
  3106  0024DE                     u3871:
  3107  0024DE  EFD9  F00C         	goto	l3303
  3108  0024E2                     u3870:
  3109  0024E2                     
  3110                           ; BSR set to: 5
  3111                           ;main.c: 486:                 {;main.c: 487:                     timeout5sPressed2 = 0;
  3112  0024E2  0E00               	movlw	0
  3113  0024E4  6F68               	movwf	(main@timeout5sPressed2+1)& (0+255),b
  3114  0024E6  0E00               	movlw	0
  3115  0024E8  6F67               	movwf	main@timeout5sPressed2& (0+255),b
  3116                           
  3117                           ;main.c: 488:                     led2StateBlink = 1;
  3118  0024EA  0E01               	movlw	1
  3119  0024EC  6F6E               	movwf	main@led2StateBlink& (0+255),b
  3120                           
  3121                           ;main.c: 489:                     state = T2;
  3122  0024EE  0E02               	movlw	2
  3123  0024F0  6F93               	movwf	main@state& (0+255),b
  3124  0024F2  EFD9  F00C         	goto	l3303
  3125  0024F6                     l611:
  3126                           
  3127                           ; BSR set to: 5
  3128                           ;main.c: 498:                 if(PORTCbits.RC4)
  3129  0024F6  A8D0               	btfss	208,4,c	;volatile
  3130  0024F8  EF80  F012         	goto	u3881
  3131  0024FC  EF82  F012         	goto	u3880
  3132  002500                     u3881:
  3133  002500  EF95  F012         	goto	l3657
  3134  002504                     u3880:
  3135  002504                     
  3136                           ; BSR set to: 5
  3137                           ;main.c: 499:                 {;main.c: 500:                     LATAbits.LATA5 = 0;
  3138  002504  9ABE               	bcf	190,5,c	;volatile
  3139  002506                     
  3140                           ; BSR set to: 5
  3141                           ;main.c: 501:                     state = MANUAL;
  3142  002506  0E00               	movlw	0
  3143  002508  6F93               	movwf	main@state& (0+255),b
  3144  00250A                     
  3145                           ; BSR set to: 5
  3146                           ;main.c: 502:                     DATAEE_WriteByte(36, state);
  3147  00250A  0E00               	movlw	0
  3148  00250C  6E02               	movwf	(DATAEE_WriteByte@bAdd+1)^(0+1280),c
  3149  00250E  0E24               	movlw	36
  3150  002510  6E01               	movwf	DATAEE_WriteByte@bAdd^(0+1280),c
  3151  002512  C593  F503         	movff	main@state,DATAEE_WriteByte@bData
  3152  002516  EC40  F01E         	call	_DATAEE_WriteByte	;wreg free
  3153  00251A                     
  3154                           ;main.c: 503:                     DATAEE_WriteByte(2, 69);
  3155  00251A  0E00               	movlw	0
  3156  00251C  6E02               	movwf	(DATAEE_WriteByte@bAdd+1)^(0+1280),c
  3157  00251E  0E02               	movlw	2
  3158  002520  6E01               	movwf	DATAEE_WriteByte@bAdd^(0+1280),c
  3159  002522  0E45               	movlw	69
  3160  002524  6E03               	movwf	DATAEE_WriteByte@bData^(0+1280),c
  3161  002526  EC40  F01E         	call	_DATAEE_WriteByte	;wreg free
  3162  00252A                     l3657:
  3163                           
  3164                           ;main.c: 506:                 if(!PORTCbits.RC4 && (++timeout5sPressed3 == 250))
  3165  00252A  B8D0               	btfsc	208,4,c	;volatile
  3166  00252C  EF9A  F012         	goto	u3891
  3167  002530  EF9C  F012         	goto	u3890
  3168  002534                     u3891:
  3169  002534  EFD9  F00C         	goto	l3303
  3170  002538                     u3890:
  3171  002538  0105               	movlb	5	; () banked
  3172  00253A  4B69               	infsnz	main@timeout5sPressed3& (0+255),f,b
  3173  00253C  2B6A               	incf	(main@timeout5sPressed3+1)& (0+255),f,b
  3174  00253E  0EFA               	movlw	250
  3175  002540  1969               	xorwf	main@timeout5sPressed3& (0+255),w,b
  3176  002542  116A               	iorwf	(main@timeout5sPressed3+1)& (0+255),w,b
  3177  002544  A4D8               	btfss	status,2,c
  3178  002546  EFA7  F012         	goto	u3901
  3179  00254A  EFA9  F012         	goto	u3900
  3180  00254E                     u3901:
  3181  00254E  EFD9  F00C         	goto	l3303
  3182  002552                     u3900:
  3183  002552                     
  3184                           ; BSR set to: 5
  3185                           ;main.c: 507:                 {;main.c: 508:                     timeout5sPressed3 = 0;
  3186  002552  0E00               	movlw	0
  3187  002554  6F6A               	movwf	(main@timeout5sPressed3+1)& (0+255),b
  3188  002556  0E00               	movlw	0
  3189  002558  6F69               	movwf	main@timeout5sPressed3& (0+255),b
  3190                           
  3191                           ;main.c: 509:                     led3StateBlink = 1;
  3192  00255A  0E01               	movlw	1
  3193  00255C  6F6F               	movwf	main@led3StateBlink& (0+255),b
  3194                           
  3195                           ;main.c: 510:                     state = T3;
  3196  00255E  0E03               	movlw	3
  3197  002560  6F93               	movwf	main@state& (0+255),b
  3198  002562  EFD9  F00C         	goto	l3303
  3199  002566                     l614:
  3200                           
  3201                           ; BSR set to: 5
  3202                           ;main.c: 519:                 if(PORTBbits.RB7)
  3203  002566  AECF               	btfss	207,7,c	;volatile
  3204  002568  EFB8  F012         	goto	u3911
  3205  00256C  EFBA  F012         	goto	u3910
  3206  002570                     u3911:
  3207  002570  EFCD  F012         	goto	l3671
  3208  002574                     u3910:
  3209  002574                     
  3210                           ; BSR set to: 5
  3211                           ;main.c: 520:                 {;main.c: 521:                     LATCbits.LATC3 = 0;
  3212  002574  96C0               	bcf	192,3,c	;volatile
  3213  002576                     
  3214                           ; BSR set to: 5
  3215                           ;main.c: 522:                     state = MANUAL;
  3216  002576  0E00               	movlw	0
  3217  002578  6F93               	movwf	main@state& (0+255),b
  3218  00257A                     
  3219                           ; BSR set to: 5
  3220                           ;main.c: 523:                     DATAEE_WriteByte(36, state);
  3221  00257A  0E00               	movlw	0
  3222  00257C  6E02               	movwf	(DATAEE_WriteByte@bAdd+1)^(0+1280),c
  3223  00257E  0E24               	movlw	36
  3224  002580  6E01               	movwf	DATAEE_WriteByte@bAdd^(0+1280),c
  3225  002582  C593  F503         	movff	main@state,DATAEE_WriteByte@bData
  3226  002586  EC40  F01E         	call	_DATAEE_WriteByte	;wreg free
  3227  00258A                     
  3228                           ;main.c: 524:                     DATAEE_WriteByte(2, 69);
  3229  00258A  0E00               	movlw	0
  3230  00258C  6E02               	movwf	(DATAEE_WriteByte@bAdd+1)^(0+1280),c
  3231  00258E  0E02               	movlw	2
  3232  002590  6E01               	movwf	DATAEE_WriteByte@bAdd^(0+1280),c
  3233  002592  0E45               	movlw	69
  3234  002594  6E03               	movwf	DATAEE_WriteByte@bData^(0+1280),c
  3235  002596  EC40  F01E         	call	_DATAEE_WriteByte	;wreg free
  3236  00259A                     l3671:
  3237                           
  3238                           ;main.c: 527:                 if(!PORTBbits.RB7 && (++timeout5sPressed4 == 250))
  3239  00259A  BECF               	btfsc	207,7,c	;volatile
  3240  00259C  EFD2  F012         	goto	u3921
  3241  0025A0  EFD4  F012         	goto	u3920
  3242  0025A4                     u3921:
  3243  0025A4  EFD9  F00C         	goto	l3303
  3244  0025A8                     u3920:
  3245  0025A8  0105               	movlb	5	; () banked
  3246  0025AA  4B6B               	infsnz	main@timeout5sPressed4& (0+255),f,b
  3247  0025AC  2B6C               	incf	(main@timeout5sPressed4+1)& (0+255),f,b
  3248  0025AE  0EFA               	movlw	250
  3249  0025B0  196B               	xorwf	main@timeout5sPressed4& (0+255),w,b
  3250  0025B2  116C               	iorwf	(main@timeout5sPressed4+1)& (0+255),w,b
  3251  0025B4  A4D8               	btfss	status,2,c
  3252  0025B6  EFDF  F012         	goto	u3931
  3253  0025BA  EFE1  F012         	goto	u3930
  3254  0025BE                     u3931:
  3255  0025BE  EFD9  F00C         	goto	l3303
  3256  0025C2                     u3930:
  3257  0025C2                     
  3258                           ; BSR set to: 5
  3259                           ;main.c: 528:                 {;main.c: 529:                     timeout5sPressed4 = 0;
  3260  0025C2  0E00               	movlw	0
  3261  0025C4  6F6C               	movwf	(main@timeout5sPressed4+1)& (0+255),b
  3262  0025C6  0E00               	movlw	0
  3263  0025C8  6F6B               	movwf	main@timeout5sPressed4& (0+255),b
  3264                           
  3265                           ;main.c: 530:                     led4StateBlink = 1;
  3266  0025CA  0E01               	movlw	1
  3267  0025CC  6F70               	movwf	main@led4StateBlink& (0+255),b
  3268                           
  3269                           ;main.c: 531:                     state = T4;
  3270  0025CE  0E04               	movlw	4
  3271  0025D0  6F93               	movwf	main@state& (0+255),b
  3272  0025D2  EFD9  F00C         	goto	l3303
  3273  0025D6                     l3677:
  3274                           
  3275                           ; BSR set to: 5
  3276                           ;main.c: 540:                 LED_WriteFull(redMode1,greenMode1,blueMode1, whiteMode1, 3
      +                          00);
  3277  0025D6  C58C  F507         	movff	main@greenMode1,LED_WriteFull@green
  3278  0025DA  C58D  F508         	movff	main@blueMode1,LED_WriteFull@blue
  3279  0025DE  C58E  F509         	movff	main@whiteMode1,LED_WriteFull@white
  3280  0025E2  0E2C               	movlw	44
  3281  0025E4  6E0A               	movwf	LED_WriteFull@ledcount^(0+1280),c
  3282  0025E6  0E01               	movlw	1
  3283  0025E8  6E0B               	movwf	(LED_WriteFull@ledcount+1)^(0+1280),c
  3284  0025EA  0E00               	movlw	0
  3285  0025EC  6E0C               	movwf	(LED_WriteFull@ledcount+2)^(0+1280),c
  3286  0025EE  518B               	movf	main@redMode1& (0+255),w,b
  3287  0025F0  EC69  F01E         	call	_LED_WriteFull
  3288  0025F4                     
  3289                           ;main.c: 544:                 if(led1StateBlink && (++timeout250ms == 12))
  3290  0025F4  0105               	movlb	5	; () banked
  3291  0025F6  516D               	movf	main@led1StateBlink& (0+255),w,b
  3292  0025F8  B4D8               	btfsc	status,2,c
  3293  0025FA  EF01  F013         	goto	u3941
  3294  0025FE  EF03  F013         	goto	u3940
  3295  002602                     u3941:
  3296  002602  EF20  F013         	goto	l3687
  3297  002606                     u3940:
  3298  002606                     
  3299                           ; BSR set to: 5
  3300  002606  2B71               	incf	main@timeout250ms& (0+255),f,b
  3301  002608  0E0C               	movlw	12
  3302  00260A  1971               	xorwf	main@timeout250ms& (0+255),w,b
  3303  00260C  A4D8               	btfss	status,2,c
  3304  00260E  EF0B  F013         	goto	u3951
  3305  002612  EF0D  F013         	goto	u3950
  3306  002616                     u3951:
  3307  002616  EF20  F013         	goto	l3687
  3308  00261A                     u3950:
  3309  00261A                     
  3310                           ; BSR set to: 5
  3311                           ;main.c: 545:                 {;main.c: 546:                     timeout250ms = 0;
  3312  00261A  0E00               	movlw	0
  3313  00261C  6F71               	movwf	main@timeout250ms& (0+255),b
  3314  00261E                     
  3315                           ; BSR set to: 5
  3316                           ;main.c: 547:                     LATCbits.LATC7 = !LATCbits.LATC7;
  3317  00261E  AEC0               	btfss	192,7,c	;volatile
  3318  002620  EF14  F013         	goto	u3961
  3319  002624  EF18  F013         	goto	u3960
  3320  002628                     u3961:
  3321  002628  6A2F               	clrf	??_main^(0+1280),c
  3322  00262A  2A2F               	incf	??_main^(0+1280),f,c
  3323  00262C  EF19  F013         	goto	u3978
  3324  002630                     u3960:
  3325  002630  6A2F               	clrf	??_main^(0+1280),c
  3326  002632                     u3978:
  3327  002632  322F               	rrcf	??_main^(0+1280),f,c
  3328  002634  322F               	rrcf	??_main^(0+1280),f,c
  3329  002636  50C0               	movf	192,w,c	;volatile
  3330  002638  182F               	xorwf	??_main^(0+1280),w,c
  3331  00263A  0B7F               	andlw	-129
  3332  00263C  182F               	xorwf	??_main^(0+1280),w,c
  3333  00263E  6EC0               	movwf	192,c	;volatile
  3334  002640                     l3687:
  3335                           
  3336                           ;main.c: 550:                 if(!PORTCbits.RC6 && taster1Flag && !led1StateBlink)
  3337  002640  BCD0               	btfsc	208,6,c	;volatile
  3338  002642  EF25  F013         	goto	u3981
  3339  002646  EF27  F013         	goto	u3980
  3340  00264A                     u3981:
  3341  00264A  EF3A  F013         	goto	l3695
  3342  00264E                     u3980:
  3343  00264E  0105               	movlb	5	; () banked
  3344  002650  5177               	movf	main@taster1Flag& (0+255),w,b
  3345  002652  B4D8               	btfsc	status,2,c
  3346  002654  EF2E  F013         	goto	u3991
  3347  002658  EF30  F013         	goto	u3990
  3348  00265C                     u3991:
  3349  00265C  EF3A  F013         	goto	l3695
  3350  002660                     u3990:
  3351  002660                     
  3352                           ; BSR set to: 5
  3353  002660  516D               	movf	main@led1StateBlink& (0+255),w,b
  3354  002662  A4D8               	btfss	status,2,c
  3355  002664  EF36  F013         	goto	u4001
  3356  002668  EF38  F013         	goto	u4000
  3357  00266C                     u4001:
  3358  00266C  EF3A  F013         	goto	l3695
  3359  002670                     u4000:
  3360  002670                     
  3361                           ; BSR set to: 5
  3362                           ;main.c: 551:                 {;main.c: 552:                     state = T1StateDummy;
  3363  002670  0E09               	movlw	9
  3364  002672  6F93               	movwf	main@state& (0+255),b
  3365  002674                     l3695:
  3366                           
  3367                           ;main.c: 555:                 if(!PORTCbits.RC6 && taster1Flag && led1StateBlink)
  3368  002674  BCD0               	btfsc	208,6,c	;volatile
  3369  002676  EF3F  F013         	goto	u4011
  3370  00267A  EF41  F013         	goto	u4010
  3371  00267E                     u4011:
  3372  00267E  EF85  F013         	goto	l3715
  3373  002682                     u4010:
  3374  002682  0105               	movlb	5	; () banked
  3375  002684  5177               	movf	main@taster1Flag& (0+255),w,b
  3376  002686  B4D8               	btfsc	status,2,c
  3377  002688  EF48  F013         	goto	u4021
  3378  00268C  EF4A  F013         	goto	u4020
  3379  002690                     u4021:
  3380  002690  EF85  F013         	goto	l3715
  3381  002694                     u4020:
  3382  002694                     
  3383                           ; BSR set to: 5
  3384  002694  516D               	movf	main@led1StateBlink& (0+255),w,b
  3385  002696  B4D8               	btfsc	status,2,c
  3386  002698  EF50  F013         	goto	u4031
  3387  00269C  EF52  F013         	goto	u4030
  3388  0026A0                     u4031:
  3389  0026A0  EF85  F013         	goto	l3715
  3390  0026A4                     u4030:
  3391  0026A4                     
  3392                           ; BSR set to: 5
  3393                           ;main.c: 556:                 {;main.c: 557:                     LATCbits.LATC7 = 1;
  3394  0026A4  8EC0               	bsf	192,7,c	;volatile
  3395  0026A6                     
  3396                           ; BSR set to: 5
  3397                           ;main.c: 558:                     led1StateBlink = 0;
  3398  0026A6  0E00               	movlw	0
  3399  0026A8  6F6D               	movwf	main@led1StateBlink& (0+255),b
  3400                           
  3401                           ;main.c: 559:                     redAdj = 0;
  3402  0026AA  0E00               	movlw	0
  3403  0026AC  6F73               	movwf	main@redAdj& (0+255),b
  3404                           
  3405                           ;main.c: 560:                     greenAdj = 0;
  3406  0026AE  0E00               	movlw	0
  3407  0026B0  6F74               	movwf	main@greenAdj& (0+255),b
  3408                           
  3409                           ;main.c: 561:                     blueAdj = 0;
  3410  0026B2  0E00               	movlw	0
  3411  0026B4  6F75               	movwf	main@blueAdj& (0+255),b
  3412                           
  3413                           ;main.c: 562:                     whiteAdj = 0;
  3414  0026B6  0E00               	movlw	0
  3415  0026B8  6F76               	movwf	main@whiteAdj& (0+255),b
  3416  0026BA                     
  3417                           ; BSR set to: 5
  3418                           ;main.c: 563:                     DATAEE_WriteByte(15, blueMode1);
  3419  0026BA  0E00               	movlw	0
  3420  0026BC  6E02               	movwf	(DATAEE_WriteByte@bAdd+1)^(0+1280),c
  3421  0026BE  0E0F               	movlw	15
  3422  0026C0  6E01               	movwf	DATAEE_WriteByte@bAdd^(0+1280),c
  3423  0026C2  C58D  F503         	movff	main@blueMode1,DATAEE_WriteByte@bData
  3424  0026C6  EC40  F01E         	call	_DATAEE_WriteByte	;wreg free
  3425  0026CA                     
  3426                           ;main.c: 564:                     DATAEE_WriteByte(12, greenMode1);
  3427  0026CA  0E00               	movlw	0
  3428  0026CC  6E02               	movwf	(DATAEE_WriteByte@bAdd+1)^(0+1280),c
  3429  0026CE  0E0C               	movlw	12
  3430  0026D0  6E01               	movwf	DATAEE_WriteByte@bAdd^(0+1280),c
  3431  0026D2  C58C  F503         	movff	main@greenMode1,DATAEE_WriteByte@bData
  3432  0026D6  EC40  F01E         	call	_DATAEE_WriteByte	;wreg free
  3433  0026DA                     
  3434                           ;main.c: 565:                     DATAEE_WriteByte(11, redMode1);
  3435  0026DA  0E00               	movlw	0
  3436  0026DC  6E02               	movwf	(DATAEE_WriteByte@bAdd+1)^(0+1280),c
  3437  0026DE  0E0B               	movlw	11
  3438  0026E0  6E01               	movwf	DATAEE_WriteByte@bAdd^(0+1280),c
  3439  0026E2  C58B  F503         	movff	main@redMode1,DATAEE_WriteByte@bData
  3440  0026E6  EC40  F01E         	call	_DATAEE_WriteByte	;wreg free
  3441  0026EA                     
  3442                           ;main.c: 566:                     DATAEE_WriteByte(17, whiteMode1);
  3443  0026EA  0E00               	movlw	0
  3444  0026EC  6E02               	movwf	(DATAEE_WriteByte@bAdd+1)^(0+1280),c
  3445  0026EE  0E11               	movlw	17
  3446  0026F0  6E01               	movwf	DATAEE_WriteByte@bAdd^(0+1280),c
  3447  0026F2  C58E  F503         	movff	main@whiteMode1,DATAEE_WriteByte@bData
  3448  0026F6  EC40  F01E         	call	_DATAEE_WriteByte	;wreg free
  3449  0026FA                     
  3450                           ;main.c: 567:                     DATAEE_WriteByte(3, 69);
  3451  0026FA  0E00               	movlw	0
  3452  0026FC  6E02               	movwf	(DATAEE_WriteByte@bAdd+1)^(0+1280),c
  3453  0026FE  0E03               	movlw	3
  3454  002700  6E01               	movwf	DATAEE_WriteByte@bAdd^(0+1280),c
  3455  002702  0E45               	movlw	69
  3456  002704  6E03               	movwf	DATAEE_WriteByte@bData^(0+1280),c
  3457  002706  EC40  F01E         	call	_DATAEE_WriteByte	;wreg free
  3458  00270A                     l3715:
  3459                           
  3460                           ;main.c: 570:                 if(led1StateBlink)
  3461  00270A  0105               	movlb	5	; () banked
  3462  00270C  516D               	movf	main@led1StateBlink& (0+255),w,b
  3463  00270E  B4D8               	btfsc	status,2,c
  3464  002710  EF8C  F013         	goto	u4041
  3465  002714  EF8E  F013         	goto	u4040
  3466  002718                     u4041:
  3467  002718  EF96  F014         	goto	l621
  3468  00271C                     u4040:
  3469  00271C                     
  3470                           ; BSR set to: 5
  3471                           ;main.c: 571:                 {;main.c: 572:                     if((red >= (redMode1 - 
      +                          5) && red <= redMode1 + 5))
  3472  00271C  0EFB               	movlw	251
  3473  00271E  6E2F               	movwf	??_main^(0+1280),c
  3474  002720  0EFF               	movlw	255
  3475  002722  6E30               	movwf	(??_main+1)^(0+1280),c
  3476  002724  518B               	movf	main@redMode1& (0+255),w,b
  3477  002726  6E31               	movwf	(??_main+2)^(0+1280),c
  3478  002728  6A32               	clrf	(??_main+3)^(0+1280),c
  3479  00272A  502F               	movf	??_main^(0+1280),w,c
  3480  00272C  2631               	addwf	(??_main+2)^(0+1280),f,c
  3481  00272E  5030               	movf	(??_main+1)^(0+1280),w,c
  3482  002730  2232               	addwfc	(??_main+3)^(0+1280),f,c
  3483  002732  518F               	movf	main@red& (0+255),w,b
  3484  002734  6E33               	movwf	(??_main+4)^(0+1280),c
  3485  002736  6A34               	clrf	(??_main+5)^(0+1280),c
  3486  002738  5031               	movf	(??_main+2)^(0+1280),w,c
  3487  00273A  5C33               	subwf	(??_main+4)^(0+1280),w,c
  3488  00273C  5034               	movf	(??_main+5)^(0+1280),w,c
  3489  00273E  0A80               	xorlw	128
  3490  002740  6E35               	movwf	(??_main+6)^(0+1280),c
  3491  002742  5032               	movf	(??_main+3)^(0+1280),w,c
  3492  002744  0A80               	xorlw	128
  3493  002746  5835               	subwfb	(??_main+6)^(0+1280),w,c
  3494  002748  A0D8               	btfss	status,0,c
  3495  00274A  EFA9  F013         	goto	u4051
  3496  00274E  EFAB  F013         	goto	u4050
  3497  002752                     u4051:
  3498  002752  EFC6  F013         	goto	l622
  3499  002756                     u4050:
  3500  002756                     
  3501                           ; BSR set to: 5
  3502  002756  518F               	movf	main@red& (0+255),w,b
  3503  002758  6E2F               	movwf	??_main^(0+1280),c
  3504  00275A  6A30               	clrf	(??_main+1)^(0+1280),c
  3505  00275C  518B               	movf	main@redMode1& (0+255),w,b
  3506  00275E  6E31               	movwf	(??_main+2)^(0+1280),c
  3507  002760  6A32               	clrf	(??_main+3)^(0+1280),c
  3508  002762  0E05               	movlw	5
  3509  002764  2631               	addwf	(??_main+2)^(0+1280),f,c
  3510  002766  0E00               	movlw	0
  3511  002768  2232               	addwfc	(??_main+3)^(0+1280),f,c
  3512  00276A  502F               	movf	??_main^(0+1280),w,c
  3513  00276C  5C31               	subwf	(??_main+2)^(0+1280),w,c
  3514  00276E  5032               	movf	(??_main+3)^(0+1280),w,c
  3515  002770  0A80               	xorlw	128
  3516  002772  6E33               	movwf	(??_main+4)^(0+1280),c
  3517  002774  5030               	movf	(??_main+1)^(0+1280),w,c
  3518  002776  0A80               	xorlw	128
  3519  002778  5833               	subwfb	(??_main+4)^(0+1280),w,c
  3520  00277A  A0D8               	btfss	status,0,c
  3521  00277C  EFC2  F013         	goto	u4061
  3522  002780  EFC4  F013         	goto	u4060
  3523  002784                     u4061:
  3524  002784  EFC6  F013         	goto	l622
  3525  002788                     u4060:
  3526  002788                     
  3527                           ; BSR set to: 5
  3528                           ;main.c: 573:                     {;main.c: 574:                         redAdj = 1;
  3529  002788  0E01               	movlw	1
  3530  00278A  6F73               	movwf	main@redAdj& (0+255),b
  3531  00278C                     l622:
  3532                           
  3533                           ; BSR set to: 5
  3534                           ;main.c: 577:                     if(redAdj)
  3535  00278C  5173               	movf	main@redAdj& (0+255),w,b
  3536  00278E  B4D8               	btfsc	status,2,c
  3537  002790  EFCC  F013         	goto	u4071
  3538  002794  EFCE  F013         	goto	u4070
  3539  002798                     u4071:
  3540  002798  EFD0  F013         	goto	l3725
  3541  00279C                     u4070:
  3542  00279C                     
  3543                           ; BSR set to: 5
  3544                           ;main.c: 578:                     {;main.c: 579:                         redMode1 = red;
  3545  00279C  C58F  F58B         	movff	main@red,main@redMode1
  3546  0027A0                     l3725:
  3547                           
  3548                           ; BSR set to: 5
  3549                           ;main.c: 582:                     if((white >= (whiteMode1 - 5) && white <= whiteMode1 +
      +                           5))
  3550  0027A0  0EFB               	movlw	251
  3551  0027A2  6E2F               	movwf	??_main^(0+1280),c
  3552  0027A4  0EFF               	movlw	255
  3553  0027A6  6E30               	movwf	(??_main+1)^(0+1280),c
  3554  0027A8  518E               	movf	main@whiteMode1& (0+255),w,b
  3555  0027AA  6E31               	movwf	(??_main+2)^(0+1280),c
  3556  0027AC  6A32               	clrf	(??_main+3)^(0+1280),c
  3557  0027AE  502F               	movf	??_main^(0+1280),w,c
  3558  0027B0  2631               	addwf	(??_main+2)^(0+1280),f,c
  3559  0027B2  5030               	movf	(??_main+1)^(0+1280),w,c
  3560  0027B4  2232               	addwfc	(??_main+3)^(0+1280),f,c
  3561  0027B6  5192               	movf	main@white& (0+255),w,b
  3562  0027B8  6E33               	movwf	(??_main+4)^(0+1280),c
  3563  0027BA  6A34               	clrf	(??_main+5)^(0+1280),c
  3564  0027BC  5031               	movf	(??_main+2)^(0+1280),w,c
  3565  0027BE  5C33               	subwf	(??_main+4)^(0+1280),w,c
  3566  0027C0  5034               	movf	(??_main+5)^(0+1280),w,c
  3567  0027C2  0A80               	xorlw	128
  3568  0027C4  6E35               	movwf	(??_main+6)^(0+1280),c
  3569  0027C6  5032               	movf	(??_main+3)^(0+1280),w,c
  3570  0027C8  0A80               	xorlw	128
  3571  0027CA  5835               	subwfb	(??_main+6)^(0+1280),w,c
  3572  0027CC  A0D8               	btfss	status,0,c
  3573  0027CE  EFEB  F013         	goto	u4081
  3574  0027D2  EFED  F013         	goto	u4080
  3575  0027D6                     u4081:
  3576  0027D6  EF08  F014         	goto	l624
  3577  0027DA                     u4080:
  3578  0027DA                     
  3579                           ; BSR set to: 5
  3580  0027DA  5192               	movf	main@white& (0+255),w,b
  3581  0027DC  6E2F               	movwf	??_main^(0+1280),c
  3582  0027DE  6A30               	clrf	(??_main+1)^(0+1280),c
  3583  0027E0  518E               	movf	main@whiteMode1& (0+255),w,b
  3584  0027E2  6E31               	movwf	(??_main+2)^(0+1280),c
  3585  0027E4  6A32               	clrf	(??_main+3)^(0+1280),c
  3586  0027E6  0E05               	movlw	5
  3587  0027E8  2631               	addwf	(??_main+2)^(0+1280),f,c
  3588  0027EA  0E00               	movlw	0
  3589  0027EC  2232               	addwfc	(??_main+3)^(0+1280),f,c
  3590  0027EE  502F               	movf	??_main^(0+1280),w,c
  3591  0027F0  5C31               	subwf	(??_main+2)^(0+1280),w,c
  3592  0027F2  5032               	movf	(??_main+3)^(0+1280),w,c
  3593  0027F4  0A80               	xorlw	128
  3594  0027F6  6E33               	movwf	(??_main+4)^(0+1280),c
  3595  0027F8  5030               	movf	(??_main+1)^(0+1280),w,c
  3596  0027FA  0A80               	xorlw	128
  3597  0027FC  5833               	subwfb	(??_main+4)^(0+1280),w,c
  3598  0027FE  A0D8               	btfss	status,0,c
  3599  002800  EF04  F014         	goto	u4091
  3600  002804  EF06  F014         	goto	u4090
  3601  002808                     u4091:
  3602  002808  EF08  F014         	goto	l624
  3603  00280C                     u4090:
  3604  00280C                     
  3605                           ; BSR set to: 5
  3606                           ;main.c: 583:                     {;main.c: 584:                         whiteAdj = 1;
  3607  00280C  0E01               	movlw	1
  3608  00280E  6F76               	movwf	main@whiteAdj& (0+255),b
  3609  002810                     l624:
  3610                           
  3611                           ; BSR set to: 5
  3612                           ;main.c: 587:                     if(whiteAdj)
  3613  002810  5176               	movf	main@whiteAdj& (0+255),w,b
  3614  002812  B4D8               	btfsc	status,2,c
  3615  002814  EF0E  F014         	goto	u4101
  3616  002818  EF10  F014         	goto	u4100
  3617  00281C                     u4101:
  3618  00281C  EF12  F014         	goto	l3733
  3619  002820                     u4100:
  3620  002820                     
  3621                           ; BSR set to: 5
  3622                           ;main.c: 588:                     {;main.c: 589:                         whiteMode1 = wh
      +                          ite;
  3623  002820  C592  F58E         	movff	main@white,main@whiteMode1
  3624  002824                     l3733:
  3625                           
  3626                           ; BSR set to: 5
  3627                           ;main.c: 592:                     if((green >= (greenMode1 - 5) && green <= greenMode1 +
      +                           5))
  3628  002824  0EFB               	movlw	251
  3629  002826  6E2F               	movwf	??_main^(0+1280),c
  3630  002828  0EFF               	movlw	255
  3631  00282A  6E30               	movwf	(??_main+1)^(0+1280),c
  3632  00282C  518C               	movf	main@greenMode1& (0+255),w,b
  3633  00282E  6E31               	movwf	(??_main+2)^(0+1280),c
  3634  002830  6A32               	clrf	(??_main+3)^(0+1280),c
  3635  002832  502F               	movf	??_main^(0+1280),w,c
  3636  002834  2631               	addwf	(??_main+2)^(0+1280),f,c
  3637  002836  5030               	movf	(??_main+1)^(0+1280),w,c
  3638  002838  2232               	addwfc	(??_main+3)^(0+1280),f,c
  3639  00283A  5190               	movf	main@green& (0+255),w,b
  3640  00283C  6E33               	movwf	(??_main+4)^(0+1280),c
  3641  00283E  6A34               	clrf	(??_main+5)^(0+1280),c
  3642  002840  5031               	movf	(??_main+2)^(0+1280),w,c
  3643  002842  5C33               	subwf	(??_main+4)^(0+1280),w,c
  3644  002844  5034               	movf	(??_main+5)^(0+1280),w,c
  3645  002846  0A80               	xorlw	128
  3646  002848  6E35               	movwf	(??_main+6)^(0+1280),c
  3647  00284A  5032               	movf	(??_main+3)^(0+1280),w,c
  3648  00284C  0A80               	xorlw	128
  3649  00284E  5835               	subwfb	(??_main+6)^(0+1280),w,c
  3650  002850  A0D8               	btfss	status,0,c
  3651  002852  EF2D  F014         	goto	u4111
  3652  002856  EF2F  F014         	goto	u4110
  3653  00285A                     u4111:
  3654  00285A  EF4A  F014         	goto	l626
  3655  00285E                     u4110:
  3656  00285E                     
  3657                           ; BSR set to: 5
  3658  00285E  5190               	movf	main@green& (0+255),w,b
  3659  002860  6E2F               	movwf	??_main^(0+1280),c
  3660  002862  6A30               	clrf	(??_main+1)^(0+1280),c
  3661  002864  518C               	movf	main@greenMode1& (0+255),w,b
  3662  002866  6E31               	movwf	(??_main+2)^(0+1280),c
  3663  002868  6A32               	clrf	(??_main+3)^(0+1280),c
  3664  00286A  0E05               	movlw	5
  3665  00286C  2631               	addwf	(??_main+2)^(0+1280),f,c
  3666  00286E  0E00               	movlw	0
  3667  002870  2232               	addwfc	(??_main+3)^(0+1280),f,c
  3668  002872  502F               	movf	??_main^(0+1280),w,c
  3669  002874  5C31               	subwf	(??_main+2)^(0+1280),w,c
  3670  002876  5032               	movf	(??_main+3)^(0+1280),w,c
  3671  002878  0A80               	xorlw	128
  3672  00287A  6E33               	movwf	(??_main+4)^(0+1280),c
  3673  00287C  5030               	movf	(??_main+1)^(0+1280),w,c
  3674  00287E  0A80               	xorlw	128
  3675  002880  5833               	subwfb	(??_main+4)^(0+1280),w,c
  3676  002882  A0D8               	btfss	status,0,c
  3677  002884  EF46  F014         	goto	u4121
  3678  002888  EF48  F014         	goto	u4120
  3679  00288C                     u4121:
  3680  00288C  EF4A  F014         	goto	l626
  3681  002890                     u4120:
  3682  002890                     
  3683                           ; BSR set to: 5
  3684                           ;main.c: 593:                     {;main.c: 594:                        greenAdj = 1;
  3685  002890  0E01               	movlw	1
  3686  002892  6F74               	movwf	main@greenAdj& (0+255),b
  3687  002894                     l626:
  3688                           
  3689                           ; BSR set to: 5
  3690                           ;main.c: 597:                     if(greenAdj)
  3691  002894  5174               	movf	main@greenAdj& (0+255),w,b
  3692  002896  B4D8               	btfsc	status,2,c
  3693  002898  EF50  F014         	goto	u4131
  3694  00289C  EF52  F014         	goto	u4130
  3695  0028A0                     u4131:
  3696  0028A0  EF54  F014         	goto	l3741
  3697  0028A4                     u4130:
  3698  0028A4                     
  3699                           ; BSR set to: 5
  3700                           ;main.c: 598:                     {;main.c: 599:                         greenMode1 = gr
      +                          een;
  3701  0028A4  C590  F58C         	movff	main@green,main@greenMode1
  3702  0028A8                     l3741:
  3703                           
  3704                           ; BSR set to: 5
  3705                           ;main.c: 602:                     if((blue >= (blueMode1 - 5) && blue <= blueMode1 + 5))
  3706  0028A8  0EFB               	movlw	251
  3707  0028AA  6E2F               	movwf	??_main^(0+1280),c
  3708  0028AC  0EFF               	movlw	255
  3709  0028AE  6E30               	movwf	(??_main+1)^(0+1280),c
  3710  0028B0  518D               	movf	main@blueMode1& (0+255),w,b
  3711  0028B2  6E31               	movwf	(??_main+2)^(0+1280),c
  3712  0028B4  6A32               	clrf	(??_main+3)^(0+1280),c
  3713  0028B6  502F               	movf	??_main^(0+1280),w,c
  3714  0028B8  2631               	addwf	(??_main+2)^(0+1280),f,c
  3715  0028BA  5030               	movf	(??_main+1)^(0+1280),w,c
  3716  0028BC  2232               	addwfc	(??_main+3)^(0+1280),f,c
  3717  0028BE  5191               	movf	main@blue& (0+255),w,b
  3718  0028C0  6E33               	movwf	(??_main+4)^(0+1280),c
  3719  0028C2  6A34               	clrf	(??_main+5)^(0+1280),c
  3720  0028C4  5031               	movf	(??_main+2)^(0+1280),w,c
  3721  0028C6  5C33               	subwf	(??_main+4)^(0+1280),w,c
  3722  0028C8  5034               	movf	(??_main+5)^(0+1280),w,c
  3723  0028CA  0A80               	xorlw	128
  3724  0028CC  6E35               	movwf	(??_main+6)^(0+1280),c
  3725  0028CE  5032               	movf	(??_main+3)^(0+1280),w,c
  3726  0028D0  0A80               	xorlw	128
  3727  0028D2  5835               	subwfb	(??_main+6)^(0+1280),w,c
  3728  0028D4  A0D8               	btfss	status,0,c
  3729  0028D6  EF6F  F014         	goto	u4141
  3730  0028DA  EF71  F014         	goto	u4140
  3731  0028DE                     u4141:
  3732  0028DE  EF8C  F014         	goto	l628
  3733  0028E2                     u4140:
  3734  0028E2                     
  3735                           ; BSR set to: 5
  3736  0028E2  5191               	movf	main@blue& (0+255),w,b
  3737  0028E4  6E2F               	movwf	??_main^(0+1280),c
  3738  0028E6  6A30               	clrf	(??_main+1)^(0+1280),c
  3739  0028E8  518D               	movf	main@blueMode1& (0+255),w,b
  3740  0028EA  6E31               	movwf	(??_main+2)^(0+1280),c
  3741  0028EC  6A32               	clrf	(??_main+3)^(0+1280),c
  3742  0028EE  0E05               	movlw	5
  3743  0028F0  2631               	addwf	(??_main+2)^(0+1280),f,c
  3744  0028F2  0E00               	movlw	0
  3745  0028F4  2232               	addwfc	(??_main+3)^(0+1280),f,c
  3746  0028F6  502F               	movf	??_main^(0+1280),w,c
  3747  0028F8  5C31               	subwf	(??_main+2)^(0+1280),w,c
  3748  0028FA  5032               	movf	(??_main+3)^(0+1280),w,c
  3749  0028FC  0A80               	xorlw	128
  3750  0028FE  6E33               	movwf	(??_main+4)^(0+1280),c
  3751  002900  5030               	movf	(??_main+1)^(0+1280),w,c
  3752  002902  0A80               	xorlw	128
  3753  002904  5833               	subwfb	(??_main+4)^(0+1280),w,c
  3754  002906  A0D8               	btfss	status,0,c
  3755  002908  EF88  F014         	goto	u4151
  3756  00290C  EF8A  F014         	goto	u4150
  3757  002910                     u4151:
  3758  002910  EF8C  F014         	goto	l628
  3759  002914                     u4150:
  3760  002914                     
  3761                           ; BSR set to: 5
  3762                           ;main.c: 603:                     {;main.c: 604:                         blueAdj = 1;
  3763  002914  0E01               	movlw	1
  3764  002916  6F75               	movwf	main@blueAdj& (0+255),b
  3765  002918                     l628:
  3766                           
  3767                           ; BSR set to: 5
  3768                           ;main.c: 607:                     if(blueAdj)
  3769  002918  5175               	movf	main@blueAdj& (0+255),w,b
  3770  00291A  B4D8               	btfsc	status,2,c
  3771  00291C  EF92  F014         	goto	u4161
  3772  002920  EF94  F014         	goto	u4160
  3773  002924                     u4161:
  3774  002924  EF96  F014         	goto	l621
  3775  002928                     u4160:
  3776  002928                     
  3777                           ; BSR set to: 5
  3778                           ;main.c: 608:                     {;main.c: 609:                         blueMode1 = blu
      +                          e;
  3779  002928  C591  F58D         	movff	main@blue,main@blueMode1
  3780  00292C                     l621:
  3781                           
  3782                           ; BSR set to: 5
  3783                           ;main.c: 615:                 if(!PORTAbits.RA4 && taster2Flag)
  3784  00292C  B8CE               	btfsc	206,4,c	;volatile
  3785  00292E  EF9B  F014         	goto	u4171
  3786  002932  EF9D  F014         	goto	u4170
  3787  002936                     u4171:
  3788  002936  EFC9  F014         	goto	l3761
  3789  00293A                     u4170:
  3790  00293A                     
  3791                           ; BSR set to: 5
  3792  00293A  5178               	movf	main@taster2Flag& (0+255),w,b
  3793  00293C  B4D8               	btfsc	status,2,c
  3794  00293E  EFA3  F014         	goto	u4181
  3795  002942  EFA5  F014         	goto	u4180
  3796  002946                     u4181:
  3797  002946  EFC9  F014         	goto	l3761
  3798  00294A                     u4180:
  3799  00294A                     
  3800                           ; BSR set to: 5
  3801                           ;main.c: 616:                 {;main.c: 617:                     LATCbits.LATC7 = 0;
  3802  00294A  9EC0               	bcf	192,7,c	;volatile
  3803                           
  3804                           ;main.c: 618:                     LATCbits.LATC5 = 1;
  3805  00294C  8AC0               	bsf	192,5,c	;volatile
  3806  00294E                     
  3807                           ; BSR set to: 5
  3808                           ;main.c: 619:                     LED_WriteFull(redMode2, greenMode2, blueMode2, whiteMo
      +                          de2, 300);
  3809  00294E  C57C  F507         	movff	main@greenMode2,LED_WriteFull@green
  3810  002952  C57D  F508         	movff	main@blueMode2,LED_WriteFull@blue
  3811  002956  C584  F509         	movff	main@whiteMode2,LED_WriteFull@white
  3812  00295A  0E2C               	movlw	44
  3813  00295C  6E0A               	movwf	LED_WriteFull@ledcount^(0+1280),c
  3814  00295E  0E01               	movlw	1
  3815  002960  6E0B               	movwf	(LED_WriteFull@ledcount+1)^(0+1280),c
  3816  002962  0E00               	movlw	0
  3817  002964  6E0C               	movwf	(LED_WriteFull@ledcount+2)^(0+1280),c
  3818  002966  517B               	movf	main@redMode2& (0+255),w,b
  3819  002968  EC69  F01E         	call	_LED_WriteFull
  3820  00296C                     
  3821                           ;main.c: 620:                     state = T2;
  3822  00296C  0E02               	movlw	2
  3823  00296E  0105               	movlb	5	; () banked
  3824  002970  6F93               	movwf	main@state& (0+255),b
  3825  002972                     
  3826                           ; BSR set to: 5
  3827                           ;main.c: 621:                     DATAEE_WriteByte(36, state);
  3828  002972  0E00               	movlw	0
  3829  002974  6E02               	movwf	(DATAEE_WriteByte@bAdd+1)^(0+1280),c
  3830  002976  0E24               	movlw	36
  3831  002978  6E01               	movwf	DATAEE_WriteByte@bAdd^(0+1280),c
  3832  00297A  C593  F503         	movff	main@state,DATAEE_WriteByte@bData
  3833  00297E  EC40  F01E         	call	_DATAEE_WriteByte	;wreg free
  3834  002982                     
  3835                           ;main.c: 622:                     DATAEE_WriteByte(2, 69);
  3836  002982  0E00               	movlw	0
  3837  002984  6E02               	movwf	(DATAEE_WriteByte@bAdd+1)^(0+1280),c
  3838  002986  0E02               	movlw	2
  3839  002988  6E01               	movwf	DATAEE_WriteByte@bAdd^(0+1280),c
  3840  00298A  0E45               	movlw	69
  3841  00298C  6E03               	movwf	DATAEE_WriteByte@bData^(0+1280),c
  3842  00298E  EC40  F01E         	call	_DATAEE_WriteByte	;wreg free
  3843  002992                     l3761:
  3844                           
  3845                           ;main.c: 625:                 if(!PORTCbits.RC4 && taster3Flag)
  3846  002992  B8D0               	btfsc	208,4,c	;volatile
  3847  002994  EFCE  F014         	goto	u4191
  3848  002998  EFD0  F014         	goto	u4190
  3849  00299C                     u4191:
  3850  00299C  EFFD  F014         	goto	l3775
  3851  0029A0                     u4190:
  3852  0029A0  0105               	movlb	5	; () banked
  3853  0029A2  517A               	movf	main@taster3Flag& (0+255),w,b
  3854  0029A4  B4D8               	btfsc	status,2,c
  3855  0029A6  EFD7  F014         	goto	u4201
  3856  0029AA  EFD9  F014         	goto	u4200
  3857  0029AE                     u4201:
  3858  0029AE  EFFD  F014         	goto	l3775
  3859  0029B2                     u4200:
  3860  0029B2                     
  3861                           ; BSR set to: 5
  3862                           ;main.c: 626:                 {;main.c: 627:                     LATCbits.LATC7 = 0;
  3863  0029B2  9EC0               	bcf	192,7,c	;volatile
  3864                           
  3865                           ;main.c: 628:                     LATAbits.LATA5 = 1;
  3866  0029B4  8ABE               	bsf	190,5,c	;volatile
  3867  0029B6                     
  3868                           ; BSR set to: 5
  3869                           ;main.c: 629:                     LED_WriteFull(redMode3, greenMode3, blueMode3, whiteMo
      +                          de3, 300);
  3870  0029B6  C57F  F507         	movff	main@greenMode3,LED_WriteFull@green
  3871  0029BA  C580  F508         	movff	main@blueMode3,LED_WriteFull@blue
  3872  0029BE  C585  F509         	movff	main@whiteMode3,LED_WriteFull@white
  3873  0029C2  0E2C               	movlw	44
  3874  0029C4  6E0A               	movwf	LED_WriteFull@ledcount^(0+1280),c
  3875  0029C6  0E01               	movlw	1
  3876  0029C8  6E0B               	movwf	(LED_WriteFull@ledcount+1)^(0+1280),c
  3877  0029CA  0E00               	movlw	0
  3878  0029CC  6E0C               	movwf	(LED_WriteFull@ledcount+2)^(0+1280),c
  3879  0029CE  517E               	movf	main@redMode3& (0+255),w,b
  3880  0029D0  EC69  F01E         	call	_LED_WriteFull
  3881  0029D4                     
  3882                           ;main.c: 630:                     state = T3 ;
  3883  0029D4  0E03               	movlw	3
  3884  0029D6  0105               	movlb	5	; () banked
  3885  0029D8  6F93               	movwf	main@state& (0+255),b
  3886  0029DA                     
  3887                           ; BSR set to: 5
  3888                           ;main.c: 631:                     DATAEE_WriteByte(36, state);
  3889  0029DA  0E00               	movlw	0
  3890  0029DC  6E02               	movwf	(DATAEE_WriteByte@bAdd+1)^(0+1280),c
  3891  0029DE  0E24               	movlw	36
  3892  0029E0  6E01               	movwf	DATAEE_WriteByte@bAdd^(0+1280),c
  3893  0029E2  C593  F503         	movff	main@state,DATAEE_WriteByte@bData
  3894  0029E6  EC40  F01E         	call	_DATAEE_WriteByte	;wreg free
  3895  0029EA                     
  3896                           ;main.c: 632:                     DATAEE_WriteByte(2, 69);
  3897  0029EA  0E00               	movlw	0
  3898  0029EC  6E02               	movwf	(DATAEE_WriteByte@bAdd+1)^(0+1280),c
  3899  0029EE  0E02               	movlw	2
  3900  0029F0  6E01               	movwf	DATAEE_WriteByte@bAdd^(0+1280),c
  3901  0029F2  0E45               	movlw	69
  3902  0029F4  6E03               	movwf	DATAEE_WriteByte@bData^(0+1280),c
  3903  0029F6  EC40  F01E         	call	_DATAEE_WriteByte	;wreg free
  3904  0029FA                     l3775:
  3905                           
  3906                           ;main.c: 635:                 if(!PORTBbits.RB7 && taster4Flag)
  3907  0029FA  BECF               	btfsc	207,7,c	;volatile
  3908  0029FC  EF02  F015         	goto	u4211
  3909  002A00  EF04  F015         	goto	u4210
  3910  002A04                     u4211:
  3911  002A04  EFD9  F00C         	goto	l3303
  3912  002A08                     u4210:
  3913  002A08  0105               	movlb	5	; () banked
  3914  002A0A  5179               	movf	main@taster4Flag& (0+255),w,b
  3915  002A0C  B4D8               	btfsc	status,2,c
  3916  002A0E  EF0B  F015         	goto	u4221
  3917  002A12  EF0D  F015         	goto	u4220
  3918  002A16                     u4221:
  3919  002A16  EFD9  F00C         	goto	l3303
  3920  002A1A                     u4220:
  3921  002A1A                     
  3922                           ; BSR set to: 5
  3923                           ;main.c: 636:                 {;main.c: 637:                     LATCbits.LATC7 = 0;
  3924  002A1A  9EC0               	bcf	192,7,c	;volatile
  3925                           
  3926                           ;main.c: 638:                     LATCbits.LATC3 = 1;
  3927  002A1C  86C0               	bsf	192,3,c	;volatile
  3928  002A1E                     
  3929                           ; BSR set to: 5
  3930                           ;main.c: 639:                     LED_WriteFull(redMode4, greenMode4, blueMode4, whiteMo
      +                          de4, 300);
  3931  002A1E  C582  F507         	movff	main@greenMode4,LED_WriteFull@green
  3932  002A22  C583  F508         	movff	main@blueMode4,LED_WriteFull@blue
  3933  002A26  C586  F509         	movff	main@whiteMode4,LED_WriteFull@white
  3934  002A2A  0E2C               	movlw	44
  3935  002A2C  6E0A               	movwf	LED_WriteFull@ledcount^(0+1280),c
  3936  002A2E  0E01               	movlw	1
  3937  002A30  6E0B               	movwf	(LED_WriteFull@ledcount+1)^(0+1280),c
  3938  002A32  0E00               	movlw	0
  3939  002A34  6E0C               	movwf	(LED_WriteFull@ledcount+2)^(0+1280),c
  3940  002A36  5181               	movf	main@redMode4& (0+255),w,b
  3941  002A38  EC69  F01E         	call	_LED_WriteFull
  3942  002A3C                     l3783:
  3943                           
  3944                           ;main.c: 640:                     state = T4 ;
  3945  002A3C  0E04               	movlw	4
  3946  002A3E  0105               	movlb	5	; () banked
  3947  002A40  6F93               	movwf	main@state& (0+255),b
  3948  002A42  EF21  F011         	goto	l3557
  3949  002A46                     l3789:
  3950                           
  3951                           ; BSR set to: 5
  3952                           ;main.c: 653:                 LED_WriteFull(redMode2,greenMode2,blueMode2, whiteMode2, 3
      +                          00);
  3953  002A46  C57C  F507         	movff	main@greenMode2,LED_WriteFull@green
  3954  002A4A  C57D  F508         	movff	main@blueMode2,LED_WriteFull@blue
  3955  002A4E  C584  F509         	movff	main@whiteMode2,LED_WriteFull@white
  3956  002A52  0E2C               	movlw	44
  3957  002A54  6E0A               	movwf	LED_WriteFull@ledcount^(0+1280),c
  3958  002A56  0E01               	movlw	1
  3959  002A58  6E0B               	movwf	(LED_WriteFull@ledcount+1)^(0+1280),c
  3960  002A5A  0E00               	movlw	0
  3961  002A5C  6E0C               	movwf	(LED_WriteFull@ledcount+2)^(0+1280),c
  3962  002A5E  517B               	movf	main@redMode2& (0+255),w,b
  3963  002A60  EC69  F01E         	call	_LED_WriteFull
  3964  002A64                     
  3965                           ;main.c: 657:                 if(led2StateBlink && (++timeout250ms == 12))
  3966  002A64  0105               	movlb	5	; () banked
  3967  002A66  516E               	movf	main@led2StateBlink& (0+255),w,b
  3968  002A68  B4D8               	btfsc	status,2,c
  3969  002A6A  EF39  F015         	goto	u4231
  3970  002A6E  EF3B  F015         	goto	u4230
  3971  002A72                     u4231:
  3972  002A72  EF58  F015         	goto	l3799
  3973  002A76                     u4230:
  3974  002A76                     
  3975                           ; BSR set to: 5
  3976  002A76  2B71               	incf	main@timeout250ms& (0+255),f,b
  3977  002A78  0E0C               	movlw	12
  3978  002A7A  1971               	xorwf	main@timeout250ms& (0+255),w,b
  3979  002A7C  A4D8               	btfss	status,2,c
  3980  002A7E  EF43  F015         	goto	u4241
  3981  002A82  EF45  F015         	goto	u4240
  3982  002A86                     u4241:
  3983  002A86  EF58  F015         	goto	l3799
  3984  002A8A                     u4240:
  3985  002A8A                     
  3986                           ; BSR set to: 5
  3987                           ;main.c: 658:                 {;main.c: 659:                     timeout250ms = 0;
  3988  002A8A  0E00               	movlw	0
  3989  002A8C  6F71               	movwf	main@timeout250ms& (0+255),b
  3990  002A8E                     
  3991                           ; BSR set to: 5
  3992                           ;main.c: 660:                     LATCbits.LATC5 = !LATCbits.LATC5;
  3993  002A8E  AAC0               	btfss	192,5,c	;volatile
  3994  002A90  EF4C  F015         	goto	u4251
  3995  002A94  EF50  F015         	goto	u4250
  3996  002A98                     u4251:
  3997  002A98  6A2F               	clrf	??_main^(0+1280),c
  3998  002A9A  2A2F               	incf	??_main^(0+1280),f,c
  3999  002A9C  EF51  F015         	goto	u4268
  4000  002AA0                     u4250:
  4001  002AA0  6A2F               	clrf	??_main^(0+1280),c
  4002  002AA2                     u4268:
  4003  002AA2  3A2F               	swapf	??_main^(0+1280),f,c
  4004  002AA4  462F               	rlncf	??_main^(0+1280),f,c
  4005  002AA6  50C0               	movf	192,w,c	;volatile
  4006  002AA8  182F               	xorwf	??_main^(0+1280),w,c
  4007  002AAA  0BDF               	andlw	-33
  4008  002AAC  182F               	xorwf	??_main^(0+1280),w,c
  4009  002AAE  6EC0               	movwf	192,c	;volatile
  4010  002AB0                     l3799:
  4011                           
  4012                           ;main.c: 663:                 if(!PORTAbits.RA4 && taster2Flag && !led2StateBlink)
  4013  002AB0  B8CE               	btfsc	206,4,c	;volatile
  4014  002AB2  EF5D  F015         	goto	u4271
  4015  002AB6  EF5F  F015         	goto	u4270
  4016  002ABA                     u4271:
  4017  002ABA  EF72  F015         	goto	l3807
  4018  002ABE                     u4270:
  4019  002ABE  0105               	movlb	5	; () banked
  4020  002AC0  5178               	movf	main@taster2Flag& (0+255),w,b
  4021  002AC2  B4D8               	btfsc	status,2,c
  4022  002AC4  EF66  F015         	goto	u4281
  4023  002AC8  EF68  F015         	goto	u4280
  4024  002ACC                     u4281:
  4025  002ACC  EF72  F015         	goto	l3807
  4026  002AD0                     u4280:
  4027  002AD0                     
  4028                           ; BSR set to: 5
  4029  002AD0  516E               	movf	main@led2StateBlink& (0+255),w,b
  4030  002AD2  A4D8               	btfss	status,2,c
  4031  002AD4  EF6E  F015         	goto	u4291
  4032  002AD8  EF70  F015         	goto	u4290
  4033  002ADC                     u4291:
  4034  002ADC  EF72  F015         	goto	l3807
  4035  002AE0                     u4290:
  4036  002AE0                     
  4037                           ; BSR set to: 5
  4038                           ;main.c: 664:                 {;main.c: 665:                     state = T2StateDummy;
  4039  002AE0  0E0A               	movlw	10
  4040  002AE2  6F93               	movwf	main@state& (0+255),b
  4041  002AE4                     l3807:
  4042                           
  4043                           ;main.c: 668:                 if(!PORTAbits.RA4 && taster2Flag && led2StateBlink)
  4044  002AE4  B8CE               	btfsc	206,4,c	;volatile
  4045  002AE6  EF77  F015         	goto	u4301
  4046  002AEA  EF79  F015         	goto	u4300
  4047  002AEE                     u4301:
  4048  002AEE  EFBD  F015         	goto	l3827
  4049  002AF2                     u4300:
  4050  002AF2  0105               	movlb	5	; () banked
  4051  002AF4  5178               	movf	main@taster2Flag& (0+255),w,b
  4052  002AF6  B4D8               	btfsc	status,2,c
  4053  002AF8  EF80  F015         	goto	u4311
  4054  002AFC  EF82  F015         	goto	u4310
  4055  002B00                     u4311:
  4056  002B00  EFBD  F015         	goto	l3827
  4057  002B04                     u4310:
  4058  002B04                     
  4059                           ; BSR set to: 5
  4060  002B04  516E               	movf	main@led2StateBlink& (0+255),w,b
  4061  002B06  B4D8               	btfsc	status,2,c
  4062  002B08  EF88  F015         	goto	u4321
  4063  002B0C  EF8A  F015         	goto	u4320
  4064  002B10                     u4321:
  4065  002B10  EFBD  F015         	goto	l3827
  4066  002B14                     u4320:
  4067  002B14                     
  4068                           ; BSR set to: 5
  4069                           ;main.c: 669:                 {;main.c: 670:                     LATCbits.LATC5 = 1;
  4070  002B14  8AC0               	bsf	192,5,c	;volatile
  4071  002B16                     
  4072                           ; BSR set to: 5
  4073                           ;main.c: 671:                     led2StateBlink = 0;
  4074  002B16  0E00               	movlw	0
  4075  002B18  6F6E               	movwf	main@led2StateBlink& (0+255),b
  4076                           
  4077                           ;main.c: 672:                     redAdj = 0;
  4078  002B1A  0E00               	movlw	0
  4079  002B1C  6F73               	movwf	main@redAdj& (0+255),b
  4080                           
  4081                           ;main.c: 673:                     greenAdj = 0;
  4082  002B1E  0E00               	movlw	0
  4083  002B20  6F74               	movwf	main@greenAdj& (0+255),b
  4084                           
  4085                           ;main.c: 674:                     blueAdj = 0;
  4086  002B22  0E00               	movlw	0
  4087  002B24  6F75               	movwf	main@blueAdj& (0+255),b
  4088                           
  4089                           ;main.c: 675:                     whiteAdj = 0;
  4090  002B26  0E00               	movlw	0
  4091  002B28  6F76               	movwf	main@whiteAdj& (0+255),b
  4092  002B2A                     
  4093                           ; BSR set to: 5
  4094                           ;main.c: 676:                     DATAEE_WriteByte(20, blueMode1);
  4095  002B2A  0E00               	movlw	0
  4096  002B2C  6E02               	movwf	(DATAEE_WriteByte@bAdd+1)^(0+1280),c
  4097  002B2E  0E14               	movlw	20
  4098  002B30  6E01               	movwf	DATAEE_WriteByte@bAdd^(0+1280),c
  4099  002B32  C58D  F503         	movff	main@blueMode1,DATAEE_WriteByte@bData
  4100  002B36  EC40  F01E         	call	_DATAEE_WriteByte	;wreg free
  4101  002B3A                     
  4102                           ;main.c: 677:                     DATAEE_WriteByte(19, greenMode1);
  4103  002B3A  0E00               	movlw	0
  4104  002B3C  6E02               	movwf	(DATAEE_WriteByte@bAdd+1)^(0+1280),c
  4105  002B3E  0E13               	movlw	19
  4106  002B40  6E01               	movwf	DATAEE_WriteByte@bAdd^(0+1280),c
  4107  002B42  C58C  F503         	movff	main@greenMode1,DATAEE_WriteByte@bData
  4108  002B46  EC40  F01E         	call	_DATAEE_WriteByte	;wreg free
  4109  002B4A                     
  4110                           ;main.c: 678:                     DATAEE_WriteByte(18, redMode1);
  4111  002B4A  0E00               	movlw	0
  4112  002B4C  6E02               	movwf	(DATAEE_WriteByte@bAdd+1)^(0+1280),c
  4113  002B4E  0E12               	movlw	18
  4114  002B50  6E01               	movwf	DATAEE_WriteByte@bAdd^(0+1280),c
  4115  002B52  C58B  F503         	movff	main@redMode1,DATAEE_WriteByte@bData
  4116  002B56  EC40  F01E         	call	_DATAEE_WriteByte	;wreg free
  4117  002B5A                     
  4118                           ;main.c: 679:                     DATAEE_WriteByte(21, whiteMode1);
  4119  002B5A  0E00               	movlw	0
  4120  002B5C  6E02               	movwf	(DATAEE_WriteByte@bAdd+1)^(0+1280),c
  4121  002B5E  0E15               	movlw	21
  4122  002B60  6E01               	movwf	DATAEE_WriteByte@bAdd^(0+1280),c
  4123  002B62  C58E  F503         	movff	main@whiteMode1,DATAEE_WriteByte@bData
  4124  002B66  EC40  F01E         	call	_DATAEE_WriteByte	;wreg free
  4125  002B6A                     
  4126                           ;main.c: 680:                     DATAEE_WriteByte(4, 69);
  4127  002B6A  0E00               	movlw	0
  4128  002B6C  6E02               	movwf	(DATAEE_WriteByte@bAdd+1)^(0+1280),c
  4129  002B6E  0E04               	movlw	4
  4130  002B70  6E01               	movwf	DATAEE_WriteByte@bAdd^(0+1280),c
  4131  002B72  0E45               	movlw	69
  4132  002B74  6E03               	movwf	DATAEE_WriteByte@bData^(0+1280),c
  4133  002B76  EC40  F01E         	call	_DATAEE_WriteByte	;wreg free
  4134  002B7A                     l3827:
  4135                           
  4136                           ;main.c: 683:                 if(led2StateBlink)
  4137  002B7A  0105               	movlb	5	; () banked
  4138  002B7C  516E               	movf	main@led2StateBlink& (0+255),w,b
  4139  002B7E  B4D8               	btfsc	status,2,c
  4140  002B80  EFC4  F015         	goto	u4331
  4141  002B84  EFC6  F015         	goto	u4330
  4142  002B88                     u4331:
  4143  002B88  EFCE  F016         	goto	l637
  4144  002B8C                     u4330:
  4145  002B8C                     
  4146                           ; BSR set to: 5
  4147                           ;main.c: 684:                 {;main.c: 685:                     if((red >= (redMode2 - 
      +                          5) && red <= redMode2 + 5))
  4148  002B8C  0EFB               	movlw	251
  4149  002B8E  6E2F               	movwf	??_main^(0+1280),c
  4150  002B90  0EFF               	movlw	255
  4151  002B92  6E30               	movwf	(??_main+1)^(0+1280),c
  4152  002B94  517B               	movf	main@redMode2& (0+255),w,b
  4153  002B96  6E31               	movwf	(??_main+2)^(0+1280),c
  4154  002B98  6A32               	clrf	(??_main+3)^(0+1280),c
  4155  002B9A  502F               	movf	??_main^(0+1280),w,c
  4156  002B9C  2631               	addwf	(??_main+2)^(0+1280),f,c
  4157  002B9E  5030               	movf	(??_main+1)^(0+1280),w,c
  4158  002BA0  2232               	addwfc	(??_main+3)^(0+1280),f,c
  4159  002BA2  518F               	movf	main@red& (0+255),w,b
  4160  002BA4  6E33               	movwf	(??_main+4)^(0+1280),c
  4161  002BA6  6A34               	clrf	(??_main+5)^(0+1280),c
  4162  002BA8  5031               	movf	(??_main+2)^(0+1280),w,c
  4163  002BAA  5C33               	subwf	(??_main+4)^(0+1280),w,c
  4164  002BAC  5034               	movf	(??_main+5)^(0+1280),w,c
  4165  002BAE  0A80               	xorlw	128
  4166  002BB0  6E35               	movwf	(??_main+6)^(0+1280),c
  4167  002BB2  5032               	movf	(??_main+3)^(0+1280),w,c
  4168  002BB4  0A80               	xorlw	128
  4169  002BB6  5835               	subwfb	(??_main+6)^(0+1280),w,c
  4170  002BB8  A0D8               	btfss	status,0,c
  4171  002BBA  EFE1  F015         	goto	u4341
  4172  002BBE  EFE3  F015         	goto	u4340
  4173  002BC2                     u4341:
  4174  002BC2  EFFE  F015         	goto	l638
  4175  002BC6                     u4340:
  4176  002BC6                     
  4177                           ; BSR set to: 5
  4178  002BC6  518F               	movf	main@red& (0+255),w,b
  4179  002BC8  6E2F               	movwf	??_main^(0+1280),c
  4180  002BCA  6A30               	clrf	(??_main+1)^(0+1280),c
  4181  002BCC  517B               	movf	main@redMode2& (0+255),w,b
  4182  002BCE  6E31               	movwf	(??_main+2)^(0+1280),c
  4183  002BD0  6A32               	clrf	(??_main+3)^(0+1280),c
  4184  002BD2  0E05               	movlw	5
  4185  002BD4  2631               	addwf	(??_main+2)^(0+1280),f,c
  4186  002BD6  0E00               	movlw	0
  4187  002BD8  2232               	addwfc	(??_main+3)^(0+1280),f,c
  4188  002BDA  502F               	movf	??_main^(0+1280),w,c
  4189  002BDC  5C31               	subwf	(??_main+2)^(0+1280),w,c
  4190  002BDE  5032               	movf	(??_main+3)^(0+1280),w,c
  4191  002BE0  0A80               	xorlw	128
  4192  002BE2  6E33               	movwf	(??_main+4)^(0+1280),c
  4193  002BE4  5030               	movf	(??_main+1)^(0+1280),w,c
  4194  002BE6  0A80               	xorlw	128
  4195  002BE8  5833               	subwfb	(??_main+4)^(0+1280),w,c
  4196  002BEA  A0D8               	btfss	status,0,c
  4197  002BEC  EFFA  F015         	goto	u4351
  4198  002BF0  EFFC  F015         	goto	u4350
  4199  002BF4                     u4351:
  4200  002BF4  EFFE  F015         	goto	l638
  4201  002BF8                     u4350:
  4202  002BF8                     
  4203                           ; BSR set to: 5
  4204                           ;main.c: 686:                     {;main.c: 687:                         redAdj = 1;
  4205  002BF8  0E01               	movlw	1
  4206  002BFA  6F73               	movwf	main@redAdj& (0+255),b
  4207  002BFC                     l638:
  4208                           
  4209                           ; BSR set to: 5
  4210                           ;main.c: 690:                     if(redAdj)
  4211  002BFC  5173               	movf	main@redAdj& (0+255),w,b
  4212  002BFE  B4D8               	btfsc	status,2,c
  4213  002C00  EF04  F016         	goto	u4361
  4214  002C04  EF06  F016         	goto	u4360
  4215  002C08                     u4361:
  4216  002C08  EF08  F016         	goto	l3837
  4217  002C0C                     u4360:
  4218  002C0C                     
  4219                           ; BSR set to: 5
  4220                           ;main.c: 691:                     {;main.c: 692:                         redMode2 = red;
  4221  002C0C  C58F  F57B         	movff	main@red,main@redMode2
  4222  002C10                     l3837:
  4223                           
  4224                           ; BSR set to: 5
  4225                           ;main.c: 695:                     if((white >= (whiteMode2 - 5) && white <= whiteMode2 +
      +                           5))
  4226  002C10  0EFB               	movlw	251
  4227  002C12  6E2F               	movwf	??_main^(0+1280),c
  4228  002C14  0EFF               	movlw	255
  4229  002C16  6E30               	movwf	(??_main+1)^(0+1280),c
  4230  002C18  5184               	movf	main@whiteMode2& (0+255),w,b
  4231  002C1A  6E31               	movwf	(??_main+2)^(0+1280),c
  4232  002C1C  6A32               	clrf	(??_main+3)^(0+1280),c
  4233  002C1E  502F               	movf	??_main^(0+1280),w,c
  4234  002C20  2631               	addwf	(??_main+2)^(0+1280),f,c
  4235  002C22  5030               	movf	(??_main+1)^(0+1280),w,c
  4236  002C24  2232               	addwfc	(??_main+3)^(0+1280),f,c
  4237  002C26  5192               	movf	main@white& (0+255),w,b
  4238  002C28  6E33               	movwf	(??_main+4)^(0+1280),c
  4239  002C2A  6A34               	clrf	(??_main+5)^(0+1280),c
  4240  002C2C  5031               	movf	(??_main+2)^(0+1280),w,c
  4241  002C2E  5C33               	subwf	(??_main+4)^(0+1280),w,c
  4242  002C30  5034               	movf	(??_main+5)^(0+1280),w,c
  4243  002C32  0A80               	xorlw	128
  4244  002C34  6E35               	movwf	(??_main+6)^(0+1280),c
  4245  002C36  5032               	movf	(??_main+3)^(0+1280),w,c
  4246  002C38  0A80               	xorlw	128
  4247  002C3A  5835               	subwfb	(??_main+6)^(0+1280),w,c
  4248  002C3C  A0D8               	btfss	status,0,c
  4249  002C3E  EF23  F016         	goto	u4371
  4250  002C42  EF25  F016         	goto	u4370
  4251  002C46                     u4371:
  4252  002C46  EF40  F016         	goto	l640
  4253  002C4A                     u4370:
  4254  002C4A                     
  4255                           ; BSR set to: 5
  4256  002C4A  5192               	movf	main@white& (0+255),w,b
  4257  002C4C  6E2F               	movwf	??_main^(0+1280),c
  4258  002C4E  6A30               	clrf	(??_main+1)^(0+1280),c
  4259  002C50  5184               	movf	main@whiteMode2& (0+255),w,b
  4260  002C52  6E31               	movwf	(??_main+2)^(0+1280),c
  4261  002C54  6A32               	clrf	(??_main+3)^(0+1280),c
  4262  002C56  0E05               	movlw	5
  4263  002C58  2631               	addwf	(??_main+2)^(0+1280),f,c
  4264  002C5A  0E00               	movlw	0
  4265  002C5C  2232               	addwfc	(??_main+3)^(0+1280),f,c
  4266  002C5E  502F               	movf	??_main^(0+1280),w,c
  4267  002C60  5C31               	subwf	(??_main+2)^(0+1280),w,c
  4268  002C62  5032               	movf	(??_main+3)^(0+1280),w,c
  4269  002C64  0A80               	xorlw	128
  4270  002C66  6E33               	movwf	(??_main+4)^(0+1280),c
  4271  002C68  5030               	movf	(??_main+1)^(0+1280),w,c
  4272  002C6A  0A80               	xorlw	128
  4273  002C6C  5833               	subwfb	(??_main+4)^(0+1280),w,c
  4274  002C6E  A0D8               	btfss	status,0,c
  4275  002C70  EF3C  F016         	goto	u4381
  4276  002C74  EF3E  F016         	goto	u4380
  4277  002C78                     u4381:
  4278  002C78  EF40  F016         	goto	l640
  4279  002C7C                     u4380:
  4280  002C7C                     
  4281                           ; BSR set to: 5
  4282                           ;main.c: 696:                     {;main.c: 697:                         whiteAdj = 1;
  4283  002C7C  0E01               	movlw	1
  4284  002C7E  6F76               	movwf	main@whiteAdj& (0+255),b
  4285  002C80                     l640:
  4286                           
  4287                           ; BSR set to: 5
  4288                           ;main.c: 700:                     if(whiteAdj)
  4289  002C80  5176               	movf	main@whiteAdj& (0+255),w,b
  4290  002C82  B4D8               	btfsc	status,2,c
  4291  002C84  EF46  F016         	goto	u4391
  4292  002C88  EF48  F016         	goto	u4390
  4293  002C8C                     u4391:
  4294  002C8C  EF4A  F016         	goto	l3845
  4295  002C90                     u4390:
  4296  002C90                     
  4297                           ; BSR set to: 5
  4298                           ;main.c: 701:                     {;main.c: 702:                         whiteMode2 = wh
      +                          ite;
  4299  002C90  C592  F584         	movff	main@white,main@whiteMode2
  4300  002C94                     l3845:
  4301                           
  4302                           ; BSR set to: 5
  4303                           ;main.c: 705:                     if((green >= (greenMode2 - 5) && green <= greenMode2 +
      +                           5))
  4304  002C94  0EFB               	movlw	251
  4305  002C96  6E2F               	movwf	??_main^(0+1280),c
  4306  002C98  0EFF               	movlw	255
  4307  002C9A  6E30               	movwf	(??_main+1)^(0+1280),c
  4308  002C9C  517C               	movf	main@greenMode2& (0+255),w,b
  4309  002C9E  6E31               	movwf	(??_main+2)^(0+1280),c
  4310  002CA0  6A32               	clrf	(??_main+3)^(0+1280),c
  4311  002CA2  502F               	movf	??_main^(0+1280),w,c
  4312  002CA4  2631               	addwf	(??_main+2)^(0+1280),f,c
  4313  002CA6  5030               	movf	(??_main+1)^(0+1280),w,c
  4314  002CA8  2232               	addwfc	(??_main+3)^(0+1280),f,c
  4315  002CAA  5190               	movf	main@green& (0+255),w,b
  4316  002CAC  6E33               	movwf	(??_main+4)^(0+1280),c
  4317  002CAE  6A34               	clrf	(??_main+5)^(0+1280),c
  4318  002CB0  5031               	movf	(??_main+2)^(0+1280),w,c
  4319  002CB2  5C33               	subwf	(??_main+4)^(0+1280),w,c
  4320  002CB4  5034               	movf	(??_main+5)^(0+1280),w,c
  4321  002CB6  0A80               	xorlw	128
  4322  002CB8  6E35               	movwf	(??_main+6)^(0+1280),c
  4323  002CBA  5032               	movf	(??_main+3)^(0+1280),w,c
  4324  002CBC  0A80               	xorlw	128
  4325  002CBE  5835               	subwfb	(??_main+6)^(0+1280),w,c
  4326  002CC0  A0D8               	btfss	status,0,c
  4327  002CC2  EF65  F016         	goto	u4401
  4328  002CC6  EF67  F016         	goto	u4400
  4329  002CCA                     u4401:
  4330  002CCA  EF82  F016         	goto	l642
  4331  002CCE                     u4400:
  4332  002CCE                     
  4333                           ; BSR set to: 5
  4334  002CCE  5190               	movf	main@green& (0+255),w,b
  4335  002CD0  6E2F               	movwf	??_main^(0+1280),c
  4336  002CD2  6A30               	clrf	(??_main+1)^(0+1280),c
  4337  002CD4  517C               	movf	main@greenMode2& (0+255),w,b
  4338  002CD6  6E31               	movwf	(??_main+2)^(0+1280),c
  4339  002CD8  6A32               	clrf	(??_main+3)^(0+1280),c
  4340  002CDA  0E05               	movlw	5
  4341  002CDC  2631               	addwf	(??_main+2)^(0+1280),f,c
  4342  002CDE  0E00               	movlw	0
  4343  002CE0  2232               	addwfc	(??_main+3)^(0+1280),f,c
  4344  002CE2  502F               	movf	??_main^(0+1280),w,c
  4345  002CE4  5C31               	subwf	(??_main+2)^(0+1280),w,c
  4346  002CE6  5032               	movf	(??_main+3)^(0+1280),w,c
  4347  002CE8  0A80               	xorlw	128
  4348  002CEA  6E33               	movwf	(??_main+4)^(0+1280),c
  4349  002CEC  5030               	movf	(??_main+1)^(0+1280),w,c
  4350  002CEE  0A80               	xorlw	128
  4351  002CF0  5833               	subwfb	(??_main+4)^(0+1280),w,c
  4352  002CF2  A0D8               	btfss	status,0,c
  4353  002CF4  EF7E  F016         	goto	u4411
  4354  002CF8  EF80  F016         	goto	u4410
  4355  002CFC                     u4411:
  4356  002CFC  EF82  F016         	goto	l642
  4357  002D00                     u4410:
  4358  002D00                     
  4359                           ; BSR set to: 5
  4360                           ;main.c: 706:                     {;main.c: 707:                        greenAdj = 1;
  4361  002D00  0E01               	movlw	1
  4362  002D02  6F74               	movwf	main@greenAdj& (0+255),b
  4363  002D04                     l642:
  4364                           
  4365                           ; BSR set to: 5
  4366                           ;main.c: 710:                     if(greenAdj)
  4367  002D04  5174               	movf	main@greenAdj& (0+255),w,b
  4368  002D06  B4D8               	btfsc	status,2,c
  4369  002D08  EF88  F016         	goto	u4421
  4370  002D0C  EF8A  F016         	goto	u4420
  4371  002D10                     u4421:
  4372  002D10  EF8C  F016         	goto	l3853
  4373  002D14                     u4420:
  4374  002D14                     
  4375                           ; BSR set to: 5
  4376                           ;main.c: 711:                     {;main.c: 712:                         greenMode2 = gr
      +                          een;
  4377  002D14  C590  F57C         	movff	main@green,main@greenMode2
  4378  002D18                     l3853:
  4379                           
  4380                           ; BSR set to: 5
  4381                           ;main.c: 715:                     if((blue >= (blueMode2 - 5) && blue <= blueMode2 + 5))
  4382  002D18  0EFB               	movlw	251
  4383  002D1A  6E2F               	movwf	??_main^(0+1280),c
  4384  002D1C  0EFF               	movlw	255
  4385  002D1E  6E30               	movwf	(??_main+1)^(0+1280),c
  4386  002D20  517D               	movf	main@blueMode2& (0+255),w,b
  4387  002D22  6E31               	movwf	(??_main+2)^(0+1280),c
  4388  002D24  6A32               	clrf	(??_main+3)^(0+1280),c
  4389  002D26  502F               	movf	??_main^(0+1280),w,c
  4390  002D28  2631               	addwf	(??_main+2)^(0+1280),f,c
  4391  002D2A  5030               	movf	(??_main+1)^(0+1280),w,c
  4392  002D2C  2232               	addwfc	(??_main+3)^(0+1280),f,c
  4393  002D2E  5191               	movf	main@blue& (0+255),w,b
  4394  002D30  6E33               	movwf	(??_main+4)^(0+1280),c
  4395  002D32  6A34               	clrf	(??_main+5)^(0+1280),c
  4396  002D34  5031               	movf	(??_main+2)^(0+1280),w,c
  4397  002D36  5C33               	subwf	(??_main+4)^(0+1280),w,c
  4398  002D38  5034               	movf	(??_main+5)^(0+1280),w,c
  4399  002D3A  0A80               	xorlw	128
  4400  002D3C  6E35               	movwf	(??_main+6)^(0+1280),c
  4401  002D3E  5032               	movf	(??_main+3)^(0+1280),w,c
  4402  002D40  0A80               	xorlw	128
  4403  002D42  5835               	subwfb	(??_main+6)^(0+1280),w,c
  4404  002D44  A0D8               	btfss	status,0,c
  4405  002D46  EFA7  F016         	goto	u4431
  4406  002D4A  EFA9  F016         	goto	u4430
  4407  002D4E                     u4431:
  4408  002D4E  EFC4  F016         	goto	l644
  4409  002D52                     u4430:
  4410  002D52                     
  4411                           ; BSR set to: 5
  4412  002D52  5191               	movf	main@blue& (0+255),w,b
  4413  002D54  6E2F               	movwf	??_main^(0+1280),c
  4414  002D56  6A30               	clrf	(??_main+1)^(0+1280),c
  4415  002D58  517D               	movf	main@blueMode2& (0+255),w,b
  4416  002D5A  6E31               	movwf	(??_main+2)^(0+1280),c
  4417  002D5C  6A32               	clrf	(??_main+3)^(0+1280),c
  4418  002D5E  0E05               	movlw	5
  4419  002D60  2631               	addwf	(??_main+2)^(0+1280),f,c
  4420  002D62  0E00               	movlw	0
  4421  002D64  2232               	addwfc	(??_main+3)^(0+1280),f,c
  4422  002D66  502F               	movf	??_main^(0+1280),w,c
  4423  002D68  5C31               	subwf	(??_main+2)^(0+1280),w,c
  4424  002D6A  5032               	movf	(??_main+3)^(0+1280),w,c
  4425  002D6C  0A80               	xorlw	128
  4426  002D6E  6E33               	movwf	(??_main+4)^(0+1280),c
  4427  002D70  5030               	movf	(??_main+1)^(0+1280),w,c
  4428  002D72  0A80               	xorlw	128
  4429  002D74  5833               	subwfb	(??_main+4)^(0+1280),w,c
  4430  002D76  A0D8               	btfss	status,0,c
  4431  002D78  EFC0  F016         	goto	u4441
  4432  002D7C  EFC2  F016         	goto	u4440
  4433  002D80                     u4441:
  4434  002D80  EFC4  F016         	goto	l644
  4435  002D84                     u4440:
  4436  002D84                     
  4437                           ; BSR set to: 5
  4438                           ;main.c: 716:                     {;main.c: 717:                         blueAdj = 1;
  4439  002D84  0E01               	movlw	1
  4440  002D86  6F75               	movwf	main@blueAdj& (0+255),b
  4441  002D88                     l644:
  4442                           
  4443                           ; BSR set to: 5
  4444                           ;main.c: 720:                     if(blueAdj)
  4445  002D88  5175               	movf	main@blueAdj& (0+255),w,b
  4446  002D8A  B4D8               	btfsc	status,2,c
  4447  002D8C  EFCA  F016         	goto	u4451
  4448  002D90  EFCC  F016         	goto	u4450
  4449  002D94                     u4451:
  4450  002D94  EFCE  F016         	goto	l637
  4451  002D98                     u4450:
  4452  002D98                     
  4453                           ; BSR set to: 5
  4454                           ;main.c: 721:                     {;main.c: 722:                         blueMode2 = blu
      +                          e;
  4455  002D98  C591  F57D         	movff	main@blue,main@blueMode2
  4456  002D9C                     l637:
  4457                           
  4458                           ; BSR set to: 5
  4459                           ;main.c: 729:                 if(!PORTCbits.RC6 && taster1Flag)
  4460  002D9C  BCD0               	btfsc	208,6,c	;volatile
  4461  002D9E  EFD3  F016         	goto	u4461
  4462  002DA2  EFD5  F016         	goto	u4460
  4463  002DA6                     u4461:
  4464  002DA6  EF01  F017         	goto	l3873
  4465  002DAA                     u4460:
  4466  002DAA                     
  4467                           ; BSR set to: 5
  4468  002DAA  5177               	movf	main@taster1Flag& (0+255),w,b
  4469  002DAC  B4D8               	btfsc	status,2,c
  4470  002DAE  EFDB  F016         	goto	u4471
  4471  002DB2  EFDD  F016         	goto	u4470
  4472  002DB6                     u4471:
  4473  002DB6  EF01  F017         	goto	l3873
  4474  002DBA                     u4470:
  4475  002DBA                     
  4476                           ; BSR set to: 5
  4477                           ;main.c: 730:                 {;main.c: 731:                     LATCbits.LATC5 = 0;
  4478  002DBA  9AC0               	bcf	192,5,c	;volatile
  4479                           
  4480                           ;main.c: 732:                     LATCbits.LATC7 = 1;
  4481  002DBC  8EC0               	bsf	192,7,c	;volatile
  4482  002DBE                     
  4483                           ; BSR set to: 5
  4484                           ;main.c: 733:                     LED_WriteFull(redMode1, greenMode1, blueMode1, whiteMo
      +                          de1, 300);
  4485  002DBE  C58C  F507         	movff	main@greenMode1,LED_WriteFull@green
  4486  002DC2  C58D  F508         	movff	main@blueMode1,LED_WriteFull@blue
  4487  002DC6  C58E  F509         	movff	main@whiteMode1,LED_WriteFull@white
  4488  002DCA  0E2C               	movlw	44
  4489  002DCC  6E0A               	movwf	LED_WriteFull@ledcount^(0+1280),c
  4490  002DCE  0E01               	movlw	1
  4491  002DD0  6E0B               	movwf	(LED_WriteFull@ledcount+1)^(0+1280),c
  4492  002DD2  0E00               	movlw	0
  4493  002DD4  6E0C               	movwf	(LED_WriteFull@ledcount+2)^(0+1280),c
  4494  002DD6  518B               	movf	main@redMode1& (0+255),w,b
  4495  002DD8  EC69  F01E         	call	_LED_WriteFull
  4496  002DDC                     
  4497                           ;main.c: 734:                     state = T1;
  4498  002DDC  0E01               	movlw	1
  4499  002DDE  0105               	movlb	5	; () banked
  4500  002DE0  6F93               	movwf	main@state& (0+255),b
  4501  002DE2                     
  4502                           ; BSR set to: 5
  4503                           ;main.c: 735:                     DATAEE_WriteByte(36, state);
  4504  002DE2  0E00               	movlw	0
  4505  002DE4  6E02               	movwf	(DATAEE_WriteByte@bAdd+1)^(0+1280),c
  4506  002DE6  0E24               	movlw	36
  4507  002DE8  6E01               	movwf	DATAEE_WriteByte@bAdd^(0+1280),c
  4508  002DEA  C593  F503         	movff	main@state,DATAEE_WriteByte@bData
  4509  002DEE  EC40  F01E         	call	_DATAEE_WriteByte	;wreg free
  4510  002DF2                     
  4511                           ;main.c: 736:                     DATAEE_WriteByte(2, 69);
  4512  002DF2  0E00               	movlw	0
  4513  002DF4  6E02               	movwf	(DATAEE_WriteByte@bAdd+1)^(0+1280),c
  4514  002DF6  0E02               	movlw	2
  4515  002DF8  6E01               	movwf	DATAEE_WriteByte@bAdd^(0+1280),c
  4516  002DFA  0E45               	movlw	69
  4517  002DFC  6E03               	movwf	DATAEE_WriteByte@bData^(0+1280),c
  4518  002DFE  EC40  F01E         	call	_DATAEE_WriteByte	;wreg free
  4519  002E02                     l3873:
  4520                           
  4521                           ;main.c: 740:                 if(!PORTCbits.RC4 && taster3Flag)
  4522  002E02  B8D0               	btfsc	208,4,c	;volatile
  4523  002E04  EF06  F017         	goto	u4481
  4524  002E08  EF08  F017         	goto	u4480
  4525  002E0C                     u4481:
  4526  002E0C  EF35  F017         	goto	l3887
  4527  002E10                     u4480:
  4528  002E10  0105               	movlb	5	; () banked
  4529  002E12  517A               	movf	main@taster3Flag& (0+255),w,b
  4530  002E14  B4D8               	btfsc	status,2,c
  4531  002E16  EF0F  F017         	goto	u4491
  4532  002E1A  EF11  F017         	goto	u4490
  4533  002E1E                     u4491:
  4534  002E1E  EF35  F017         	goto	l3887
  4535  002E22                     u4490:
  4536  002E22                     
  4537                           ; BSR set to: 5
  4538                           ;main.c: 741:                 {;main.c: 742:                     LATCbits.LATC5 = 0;
  4539  002E22  9AC0               	bcf	192,5,c	;volatile
  4540                           
  4541                           ;main.c: 743:                     LATAbits.LATA5 = 1;
  4542  002E24  8ABE               	bsf	190,5,c	;volatile
  4543  002E26                     
  4544                           ; BSR set to: 5
  4545                           ;main.c: 744:                     LED_WriteFull(redMode3, greenMode3, blueMode3, whiteMo
      +                          de3, 300);
  4546  002E26  C57F  F507         	movff	main@greenMode3,LED_WriteFull@green
  4547  002E2A  C580  F508         	movff	main@blueMode3,LED_WriteFull@blue
  4548  002E2E  C585  F509         	movff	main@whiteMode3,LED_WriteFull@white
  4549  002E32  0E2C               	movlw	44
  4550  002E34  6E0A               	movwf	LED_WriteFull@ledcount^(0+1280),c
  4551  002E36  0E01               	movlw	1
  4552  002E38  6E0B               	movwf	(LED_WriteFull@ledcount+1)^(0+1280),c
  4553  002E3A  0E00               	movlw	0
  4554  002E3C  6E0C               	movwf	(LED_WriteFull@ledcount+2)^(0+1280),c
  4555  002E3E  517E               	movf	main@redMode3& (0+255),w,b
  4556  002E40  EC69  F01E         	call	_LED_WriteFull
  4557  002E44                     
  4558                           ;main.c: 745:                     state = T3 ;
  4559  002E44  0E03               	movlw	3
  4560  002E46  0105               	movlb	5	; () banked
  4561  002E48  6F93               	movwf	main@state& (0+255),b
  4562  002E4A                     
  4563                           ; BSR set to: 5
  4564                           ;main.c: 746:                     DATAEE_WriteByte(36, state);
  4565  002E4A  0E00               	movlw	0
  4566  002E4C  6E02               	movwf	(DATAEE_WriteByte@bAdd+1)^(0+1280),c
  4567  002E4E  0E24               	movlw	36
  4568  002E50  6E01               	movwf	DATAEE_WriteByte@bAdd^(0+1280),c
  4569  002E52  C593  F503         	movff	main@state,DATAEE_WriteByte@bData
  4570  002E56  EC40  F01E         	call	_DATAEE_WriteByte	;wreg free
  4571  002E5A                     
  4572                           ;main.c: 747:                     DATAEE_WriteByte(2, 69);
  4573  002E5A  0E00               	movlw	0
  4574  002E5C  6E02               	movwf	(DATAEE_WriteByte@bAdd+1)^(0+1280),c
  4575  002E5E  0E02               	movlw	2
  4576  002E60  6E01               	movwf	DATAEE_WriteByte@bAdd^(0+1280),c
  4577  002E62  0E45               	movlw	69
  4578  002E64  6E03               	movwf	DATAEE_WriteByte@bData^(0+1280),c
  4579  002E66  EC40  F01E         	call	_DATAEE_WriteByte	;wreg free
  4580  002E6A                     l3887:
  4581                           
  4582                           ;main.c: 750:                 if(!PORTBbits.RB7 && taster4Flag)
  4583  002E6A  BECF               	btfsc	207,7,c	;volatile
  4584  002E6C  EF3A  F017         	goto	u4501
  4585  002E70  EF3C  F017         	goto	u4500
  4586  002E74                     u4501:
  4587  002E74  EFD9  F00C         	goto	l3303
  4588  002E78                     u4500:
  4589  002E78  0105               	movlb	5	; () banked
  4590  002E7A  5179               	movf	main@taster4Flag& (0+255),w,b
  4591  002E7C  B4D8               	btfsc	status,2,c
  4592  002E7E  EF43  F017         	goto	u4511
  4593  002E82  EF45  F017         	goto	u4510
  4594  002E86                     u4511:
  4595  002E86  EFD9  F00C         	goto	l3303
  4596  002E8A                     u4510:
  4597  002E8A                     
  4598                           ; BSR set to: 5
  4599                           ;main.c: 751:                 {;main.c: 752:                     LATCbits.LATC5 = 0;
  4600  002E8A  9AC0               	bcf	192,5,c	;volatile
  4601                           
  4602                           ;main.c: 753:                     LATCbits.LATC3 = 1;
  4603  002E8C  86C0               	bsf	192,3,c	;volatile
  4604  002E8E                     
  4605                           ; BSR set to: 5
  4606                           ;main.c: 754:                     LED_WriteFull(redMode4, greenMode4, blueMode4, whiteMo
      +                          de4, 300);
  4607  002E8E  C582  F507         	movff	main@greenMode4,LED_WriteFull@green
  4608  002E92  C583  F508         	movff	main@blueMode4,LED_WriteFull@blue
  4609  002E96  C586  F509         	movff	main@whiteMode4,LED_WriteFull@white
  4610  002E9A  0E2C               	movlw	44
  4611  002E9C  6E0A               	movwf	LED_WriteFull@ledcount^(0+1280),c
  4612  002E9E  0E01               	movlw	1
  4613  002EA0  6E0B               	movwf	(LED_WriteFull@ledcount+1)^(0+1280),c
  4614  002EA2  0E00               	movlw	0
  4615  002EA4  6E0C               	movwf	(LED_WriteFull@ledcount+2)^(0+1280),c
  4616  002EA6  5181               	movf	main@redMode4& (0+255),w,b
  4617  002EA8  EC69  F01E         	call	_LED_WriteFull
  4618  002EAC  EF1E  F015         	goto	l3783
  4619  002EB0                     l3901:
  4620                           
  4621                           ; BSR set to: 5
  4622                           ;main.c: 767:                 LED_WriteFull(redMode3,greenMode3,blueMode3, whiteMode3, 3
      +                          00);
  4623  002EB0  C57F  F507         	movff	main@greenMode3,LED_WriteFull@green
  4624  002EB4  C580  F508         	movff	main@blueMode3,LED_WriteFull@blue
  4625  002EB8  C585  F509         	movff	main@whiteMode3,LED_WriteFull@white
  4626  002EBC  0E2C               	movlw	44
  4627  002EBE  6E0A               	movwf	LED_WriteFull@ledcount^(0+1280),c
  4628  002EC0  0E01               	movlw	1
  4629  002EC2  6E0B               	movwf	(LED_WriteFull@ledcount+1)^(0+1280),c
  4630  002EC4  0E00               	movlw	0
  4631  002EC6  6E0C               	movwf	(LED_WriteFull@ledcount+2)^(0+1280),c
  4632  002EC8  517E               	movf	main@redMode3& (0+255),w,b
  4633  002ECA  EC69  F01E         	call	_LED_WriteFull
  4634  002ECE                     
  4635                           ;main.c: 771:                 if(led3StateBlink && (++timeout250ms == 12))
  4636  002ECE  0105               	movlb	5	; () banked
  4637  002ED0  516F               	movf	main@led3StateBlink& (0+255),w,b
  4638  002ED2  B4D8               	btfsc	status,2,c
  4639  002ED4  EF6E  F017         	goto	u4521
  4640  002ED8  EF70  F017         	goto	u4520
  4641  002EDC                     u4521:
  4642  002EDC  EF8D  F017         	goto	l3911
  4643  002EE0                     u4520:
  4644  002EE0                     
  4645                           ; BSR set to: 5
  4646  002EE0  2B71               	incf	main@timeout250ms& (0+255),f,b
  4647  002EE2  0E0C               	movlw	12
  4648  002EE4  1971               	xorwf	main@timeout250ms& (0+255),w,b
  4649  002EE6  A4D8               	btfss	status,2,c
  4650  002EE8  EF78  F017         	goto	u4531
  4651  002EEC  EF7A  F017         	goto	u4530
  4652  002EF0                     u4531:
  4653  002EF0  EF8D  F017         	goto	l3911
  4654  002EF4                     u4530:
  4655  002EF4                     
  4656                           ; BSR set to: 5
  4657                           ;main.c: 772:                 {;main.c: 773:                     timeout250ms = 0;
  4658  002EF4  0E00               	movlw	0
  4659  002EF6  6F71               	movwf	main@timeout250ms& (0+255),b
  4660  002EF8                     
  4661                           ; BSR set to: 5
  4662                           ;main.c: 774:                     LATAbits.LATA5 = !LATAbits.LATA5;
  4663  002EF8  AABE               	btfss	190,5,c	;volatile
  4664  002EFA  EF81  F017         	goto	u4541
  4665  002EFE  EF85  F017         	goto	u4540
  4666  002F02                     u4541:
  4667  002F02  6A2F               	clrf	??_main^(0+1280),c
  4668  002F04  2A2F               	incf	??_main^(0+1280),f,c
  4669  002F06  EF86  F017         	goto	u4558
  4670  002F0A                     u4540:
  4671  002F0A  6A2F               	clrf	??_main^(0+1280),c
  4672  002F0C                     u4558:
  4673  002F0C  3A2F               	swapf	??_main^(0+1280),f,c
  4674  002F0E  462F               	rlncf	??_main^(0+1280),f,c
  4675  002F10  50BE               	movf	190,w,c	;volatile
  4676  002F12  182F               	xorwf	??_main^(0+1280),w,c
  4677  002F14  0BDF               	andlw	-33
  4678  002F16  182F               	xorwf	??_main^(0+1280),w,c
  4679  002F18  6EBE               	movwf	190,c	;volatile
  4680  002F1A                     l3911:
  4681                           
  4682                           ;main.c: 777:                 if(!PORTCbits.RC4 && taster3Flag && !led3StateBlink)
  4683  002F1A  B8D0               	btfsc	208,4,c	;volatile
  4684  002F1C  EF92  F017         	goto	u4561
  4685  002F20  EF94  F017         	goto	u4560
  4686  002F24                     u4561:
  4687  002F24  EFA7  F017         	goto	l3919
  4688  002F28                     u4560:
  4689  002F28  0105               	movlb	5	; () banked
  4690  002F2A  517A               	movf	main@taster3Flag& (0+255),w,b
  4691  002F2C  B4D8               	btfsc	status,2,c
  4692  002F2E  EF9B  F017         	goto	u4571
  4693  002F32  EF9D  F017         	goto	u4570
  4694  002F36                     u4571:
  4695  002F36  EFA7  F017         	goto	l3919
  4696  002F3A                     u4570:
  4697  002F3A                     
  4698                           ; BSR set to: 5
  4699  002F3A  516F               	movf	main@led3StateBlink& (0+255),w,b
  4700  002F3C  A4D8               	btfss	status,2,c
  4701  002F3E  EFA3  F017         	goto	u4581
  4702  002F42  EFA5  F017         	goto	u4580
  4703  002F46                     u4581:
  4704  002F46  EFA7  F017         	goto	l3919
  4705  002F4A                     u4580:
  4706  002F4A                     
  4707                           ; BSR set to: 5
  4708                           ;main.c: 778:                 {;main.c: 779:                     state = T3StateDummy;
  4709  002F4A  0E0B               	movlw	11
  4710  002F4C  6F93               	movwf	main@state& (0+255),b
  4711  002F4E                     l3919:
  4712                           
  4713                           ;main.c: 782:                 if(!PORTCbits.RC4 && taster3Flag && led3StateBlink)
  4714  002F4E  B8D0               	btfsc	208,4,c	;volatile
  4715  002F50  EFAC  F017         	goto	u4591
  4716  002F54  EFAE  F017         	goto	u4590
  4717  002F58                     u4591:
  4718  002F58  EFF2  F017         	goto	l3939
  4719  002F5C                     u4590:
  4720  002F5C  0105               	movlb	5	; () banked
  4721  002F5E  517A               	movf	main@taster3Flag& (0+255),w,b
  4722  002F60  B4D8               	btfsc	status,2,c
  4723  002F62  EFB5  F017         	goto	u4601
  4724  002F66  EFB7  F017         	goto	u4600
  4725  002F6A                     u4601:
  4726  002F6A  EFF2  F017         	goto	l3939
  4727  002F6E                     u4600:
  4728  002F6E                     
  4729                           ; BSR set to: 5
  4730  002F6E  516F               	movf	main@led3StateBlink& (0+255),w,b
  4731  002F70  B4D8               	btfsc	status,2,c
  4732  002F72  EFBD  F017         	goto	u4611
  4733  002F76  EFBF  F017         	goto	u4610
  4734  002F7A                     u4611:
  4735  002F7A  EFF2  F017         	goto	l3939
  4736  002F7E                     u4610:
  4737  002F7E                     
  4738                           ; BSR set to: 5
  4739                           ;main.c: 783:                 {;main.c: 784:                     LATAbits.LATA5 = 1;
  4740  002F7E  8ABE               	bsf	190,5,c	;volatile
  4741  002F80                     
  4742                           ; BSR set to: 5
  4743                           ;main.c: 785:                     led3StateBlink = 0;
  4744  002F80  0E00               	movlw	0
  4745  002F82  6F6F               	movwf	main@led3StateBlink& (0+255),b
  4746                           
  4747                           ;main.c: 786:                     redAdj = 0;
  4748  002F84  0E00               	movlw	0
  4749  002F86  6F73               	movwf	main@redAdj& (0+255),b
  4750                           
  4751                           ;main.c: 787:                     greenAdj = 0;
  4752  002F88  0E00               	movlw	0
  4753  002F8A  6F74               	movwf	main@greenAdj& (0+255),b
  4754                           
  4755                           ;main.c: 788:                     blueAdj = 0;
  4756  002F8C  0E00               	movlw	0
  4757  002F8E  6F75               	movwf	main@blueAdj& (0+255),b
  4758                           
  4759                           ;main.c: 789:                     whiteAdj = 0;
  4760  002F90  0E00               	movlw	0
  4761  002F92  6F76               	movwf	main@whiteAdj& (0+255),b
  4762  002F94                     
  4763                           ; BSR set to: 5
  4764                           ;main.c: 790:                     DATAEE_WriteByte(25, blueMode1);
  4765  002F94  0E00               	movlw	0
  4766  002F96  6E02               	movwf	(DATAEE_WriteByte@bAdd+1)^(0+1280),c
  4767  002F98  0E19               	movlw	25
  4768  002F9A  6E01               	movwf	DATAEE_WriteByte@bAdd^(0+1280),c
  4769  002F9C  C58D  F503         	movff	main@blueMode1,DATAEE_WriteByte@bData
  4770  002FA0  EC40  F01E         	call	_DATAEE_WriteByte	;wreg free
  4771  002FA4                     
  4772                           ;main.c: 791:                     DATAEE_WriteByte(24, greenMode1);
  4773  002FA4  0E00               	movlw	0
  4774  002FA6  6E02               	movwf	(DATAEE_WriteByte@bAdd+1)^(0+1280),c
  4775  002FA8  0E18               	movlw	24
  4776  002FAA  6E01               	movwf	DATAEE_WriteByte@bAdd^(0+1280),c
  4777  002FAC  C58C  F503         	movff	main@greenMode1,DATAEE_WriteByte@bData
  4778  002FB0  EC40  F01E         	call	_DATAEE_WriteByte	;wreg free
  4779  002FB4                     
  4780                           ;main.c: 792:                     DATAEE_WriteByte(22, redMode1);
  4781  002FB4  0E00               	movlw	0
  4782  002FB6  6E02               	movwf	(DATAEE_WriteByte@bAdd+1)^(0+1280),c
  4783  002FB8  0E16               	movlw	22
  4784  002FBA  6E01               	movwf	DATAEE_WriteByte@bAdd^(0+1280),c
  4785  002FBC  C58B  F503         	movff	main@redMode1,DATAEE_WriteByte@bData
  4786  002FC0  EC40  F01E         	call	_DATAEE_WriteByte	;wreg free
  4787  002FC4                     
  4788                           ;main.c: 793:                     DATAEE_WriteByte(27, whiteMode1);
  4789  002FC4  0E00               	movlw	0
  4790  002FC6  6E02               	movwf	(DATAEE_WriteByte@bAdd+1)^(0+1280),c
  4791  002FC8  0E1B               	movlw	27
  4792  002FCA  6E01               	movwf	DATAEE_WriteByte@bAdd^(0+1280),c
  4793  002FCC  C58E  F503         	movff	main@whiteMode1,DATAEE_WriteByte@bData
  4794  002FD0  EC40  F01E         	call	_DATAEE_WriteByte	;wreg free
  4795  002FD4                     
  4796                           ;main.c: 794:                     DATAEE_WriteByte(6, 69);
  4797  002FD4  0E00               	movlw	0
  4798  002FD6  6E02               	movwf	(DATAEE_WriteByte@bAdd+1)^(0+1280),c
  4799  002FD8  0E06               	movlw	6
  4800  002FDA  6E01               	movwf	DATAEE_WriteByte@bAdd^(0+1280),c
  4801  002FDC  0E45               	movlw	69
  4802  002FDE  6E03               	movwf	DATAEE_WriteByte@bData^(0+1280),c
  4803  002FE0  EC40  F01E         	call	_DATAEE_WriteByte	;wreg free
  4804  002FE4                     l3939:
  4805                           
  4806                           ;main.c: 796:                 taster3Flag = PORTCbits.RC4;
  4807  002FE4  0E00               	movlw	0
  4808  002FE6  B8D0               	btfsc	208,4,c	;volatile
  4809  002FE8  0E01               	movlw	1
  4810  002FEA  0105               	movlb	5	; () banked
  4811  002FEC  6F7A               	movwf	main@taster3Flag& (0+255),b
  4812  002FEE                     
  4813                           ; BSR set to: 5
  4814                           ;main.c: 798:                 if(led3StateBlink)
  4815  002FEE  516F               	movf	main@led3StateBlink& (0+255),w,b
  4816  002FF0  B4D8               	btfsc	status,2,c
  4817  002FF2  EFFD  F017         	goto	u4621
  4818  002FF6  EFFF  F017         	goto	u4620
  4819  002FFA                     u4621:
  4820  002FFA  EF07  F019         	goto	l653
  4821  002FFE                     u4620:
  4822  002FFE                     
  4823                           ; BSR set to: 5
  4824                           ;main.c: 799:                 {;main.c: 800:                     if((red >= (redMode3 - 
      +                          5) && red <= redMode3 + 5))
  4825  002FFE  0EFB               	movlw	251
  4826  003000  6E2F               	movwf	??_main^(0+1280),c
  4827  003002  0EFF               	movlw	255
  4828  003004  6E30               	movwf	(??_main+1)^(0+1280),c
  4829  003006  517E               	movf	main@redMode3& (0+255),w,b
  4830  003008  6E31               	movwf	(??_main+2)^(0+1280),c
  4831  00300A  6A32               	clrf	(??_main+3)^(0+1280),c
  4832  00300C  502F               	movf	??_main^(0+1280),w,c
  4833  00300E  2631               	addwf	(??_main+2)^(0+1280),f,c
  4834  003010  5030               	movf	(??_main+1)^(0+1280),w,c
  4835  003012  2232               	addwfc	(??_main+3)^(0+1280),f,c
  4836  003014  518F               	movf	main@red& (0+255),w,b
  4837  003016  6E33               	movwf	(??_main+4)^(0+1280),c
  4838  003018  6A34               	clrf	(??_main+5)^(0+1280),c
  4839  00301A  5031               	movf	(??_main+2)^(0+1280),w,c
  4840  00301C  5C33               	subwf	(??_main+4)^(0+1280),w,c
  4841  00301E  5034               	movf	(??_main+5)^(0+1280),w,c
  4842  003020  0A80               	xorlw	128
  4843  003022  6E35               	movwf	(??_main+6)^(0+1280),c
  4844  003024  5032               	movf	(??_main+3)^(0+1280),w,c
  4845  003026  0A80               	xorlw	128
  4846  003028  5835               	subwfb	(??_main+6)^(0+1280),w,c
  4847  00302A  A0D8               	btfss	status,0,c
  4848  00302C  EF1A  F018         	goto	u4631
  4849  003030  EF1C  F018         	goto	u4630
  4850  003034                     u4631:
  4851  003034  EF37  F018         	goto	l654
  4852  003038                     u4630:
  4853  003038                     
  4854                           ; BSR set to: 5
  4855  003038  518F               	movf	main@red& (0+255),w,b
  4856  00303A  6E2F               	movwf	??_main^(0+1280),c
  4857  00303C  6A30               	clrf	(??_main+1)^(0+1280),c
  4858  00303E  517E               	movf	main@redMode3& (0+255),w,b
  4859  003040  6E31               	movwf	(??_main+2)^(0+1280),c
  4860  003042  6A32               	clrf	(??_main+3)^(0+1280),c
  4861  003044  0E05               	movlw	5
  4862  003046  2631               	addwf	(??_main+2)^(0+1280),f,c
  4863  003048  0E00               	movlw	0
  4864  00304A  2232               	addwfc	(??_main+3)^(0+1280),f,c
  4865  00304C  502F               	movf	??_main^(0+1280),w,c
  4866  00304E  5C31               	subwf	(??_main+2)^(0+1280),w,c
  4867  003050  5032               	movf	(??_main+3)^(0+1280),w,c
  4868  003052  0A80               	xorlw	128
  4869  003054  6E33               	movwf	(??_main+4)^(0+1280),c
  4870  003056  5030               	movf	(??_main+1)^(0+1280),w,c
  4871  003058  0A80               	xorlw	128
  4872  00305A  5833               	subwfb	(??_main+4)^(0+1280),w,c
  4873  00305C  A0D8               	btfss	status,0,c
  4874  00305E  EF33  F018         	goto	u4641
  4875  003062  EF35  F018         	goto	u4640
  4876  003066                     u4641:
  4877  003066  EF37  F018         	goto	l654
  4878  00306A                     u4640:
  4879  00306A                     
  4880                           ; BSR set to: 5
  4881                           ;main.c: 801:                     {;main.c: 802:                         redAdj = 1;
  4882  00306A  0E01               	movlw	1
  4883  00306C  6F73               	movwf	main@redAdj& (0+255),b
  4884  00306E                     l654:
  4885                           
  4886                           ; BSR set to: 5
  4887                           ;main.c: 805:                     if(redAdj)
  4888  00306E  5173               	movf	main@redAdj& (0+255),w,b
  4889  003070  B4D8               	btfsc	status,2,c
  4890  003072  EF3D  F018         	goto	u4651
  4891  003076  EF3F  F018         	goto	u4650
  4892  00307A                     u4651:
  4893  00307A  EF41  F018         	goto	l3951
  4894  00307E                     u4650:
  4895  00307E                     
  4896                           ; BSR set to: 5
  4897                           ;main.c: 806:                     {;main.c: 807:                         redMode3 = red;
  4898  00307E  C58F  F57E         	movff	main@red,main@redMode3
  4899  003082                     l3951:
  4900                           
  4901                           ; BSR set to: 5
  4902                           ;main.c: 810:                     if((white >= (whiteMode3 - 5) && white <= whiteMode3 +
      +                           5))
  4903  003082  0EFB               	movlw	251
  4904  003084  6E2F               	movwf	??_main^(0+1280),c
  4905  003086  0EFF               	movlw	255
  4906  003088  6E30               	movwf	(??_main+1)^(0+1280),c
  4907  00308A  5185               	movf	main@whiteMode3& (0+255),w,b
  4908  00308C  6E31               	movwf	(??_main+2)^(0+1280),c
  4909  00308E  6A32               	clrf	(??_main+3)^(0+1280),c
  4910  003090  502F               	movf	??_main^(0+1280),w,c
  4911  003092  2631               	addwf	(??_main+2)^(0+1280),f,c
  4912  003094  5030               	movf	(??_main+1)^(0+1280),w,c
  4913  003096  2232               	addwfc	(??_main+3)^(0+1280),f,c
  4914  003098  5192               	movf	main@white& (0+255),w,b
  4915  00309A  6E33               	movwf	(??_main+4)^(0+1280),c
  4916  00309C  6A34               	clrf	(??_main+5)^(0+1280),c
  4917  00309E  5031               	movf	(??_main+2)^(0+1280),w,c
  4918  0030A0  5C33               	subwf	(??_main+4)^(0+1280),w,c
  4919  0030A2  5034               	movf	(??_main+5)^(0+1280),w,c
  4920  0030A4  0A80               	xorlw	128
  4921  0030A6  6E35               	movwf	(??_main+6)^(0+1280),c
  4922  0030A8  5032               	movf	(??_main+3)^(0+1280),w,c
  4923  0030AA  0A80               	xorlw	128
  4924  0030AC  5835               	subwfb	(??_main+6)^(0+1280),w,c
  4925  0030AE  A0D8               	btfss	status,0,c
  4926  0030B0  EF5C  F018         	goto	u4661
  4927  0030B4  EF5E  F018         	goto	u4660
  4928  0030B8                     u4661:
  4929  0030B8  EF79  F018         	goto	l656
  4930  0030BC                     u4660:
  4931  0030BC                     
  4932                           ; BSR set to: 5
  4933  0030BC  5192               	movf	main@white& (0+255),w,b
  4934  0030BE  6E2F               	movwf	??_main^(0+1280),c
  4935  0030C0  6A30               	clrf	(??_main+1)^(0+1280),c
  4936  0030C2  5185               	movf	main@whiteMode3& (0+255),w,b
  4937  0030C4  6E31               	movwf	(??_main+2)^(0+1280),c
  4938  0030C6  6A32               	clrf	(??_main+3)^(0+1280),c
  4939  0030C8  0E05               	movlw	5
  4940  0030CA  2631               	addwf	(??_main+2)^(0+1280),f,c
  4941  0030CC  0E00               	movlw	0
  4942  0030CE  2232               	addwfc	(??_main+3)^(0+1280),f,c
  4943  0030D0  502F               	movf	??_main^(0+1280),w,c
  4944  0030D2  5C31               	subwf	(??_main+2)^(0+1280),w,c
  4945  0030D4  5032               	movf	(??_main+3)^(0+1280),w,c
  4946  0030D6  0A80               	xorlw	128
  4947  0030D8  6E33               	movwf	(??_main+4)^(0+1280),c
  4948  0030DA  5030               	movf	(??_main+1)^(0+1280),w,c
  4949  0030DC  0A80               	xorlw	128
  4950  0030DE  5833               	subwfb	(??_main+4)^(0+1280),w,c
  4951  0030E0  A0D8               	btfss	status,0,c
  4952  0030E2  EF75  F018         	goto	u4671
  4953  0030E6  EF77  F018         	goto	u4670
  4954  0030EA                     u4671:
  4955  0030EA  EF79  F018         	goto	l656
  4956  0030EE                     u4670:
  4957  0030EE                     
  4958                           ; BSR set to: 5
  4959                           ;main.c: 811:                     {;main.c: 812:                         whiteAdj = 1;
  4960  0030EE  0E01               	movlw	1
  4961  0030F0  6F76               	movwf	main@whiteAdj& (0+255),b
  4962  0030F2                     l656:
  4963                           
  4964                           ; BSR set to: 5
  4965                           ;main.c: 815:                     if(whiteAdj)
  4966  0030F2  5176               	movf	main@whiteAdj& (0+255),w,b
  4967  0030F4  B4D8               	btfsc	status,2,c
  4968  0030F6  EF7F  F018         	goto	u4681
  4969  0030FA  EF81  F018         	goto	u4680
  4970  0030FE                     u4681:
  4971  0030FE  EF83  F018         	goto	l3959
  4972  003102                     u4680:
  4973  003102                     
  4974                           ; BSR set to: 5
  4975                           ;main.c: 816:                     {;main.c: 817:                         whiteMode3 = wh
      +                          ite;
  4976  003102  C592  F585         	movff	main@white,main@whiteMode3
  4977  003106                     l3959:
  4978                           
  4979                           ; BSR set to: 5
  4980                           ;main.c: 820:                     if((green >= (greenMode3 - 5) && green <= greenMode3 +
      +                           5))
  4981  003106  0EFB               	movlw	251
  4982  003108  6E2F               	movwf	??_main^(0+1280),c
  4983  00310A  0EFF               	movlw	255
  4984  00310C  6E30               	movwf	(??_main+1)^(0+1280),c
  4985  00310E  517F               	movf	main@greenMode3& (0+255),w,b
  4986  003110  6E31               	movwf	(??_main+2)^(0+1280),c
  4987  003112  6A32               	clrf	(??_main+3)^(0+1280),c
  4988  003114  502F               	movf	??_main^(0+1280),w,c
  4989  003116  2631               	addwf	(??_main+2)^(0+1280),f,c
  4990  003118  5030               	movf	(??_main+1)^(0+1280),w,c
  4991  00311A  2232               	addwfc	(??_main+3)^(0+1280),f,c
  4992  00311C  5190               	movf	main@green& (0+255),w,b
  4993  00311E  6E33               	movwf	(??_main+4)^(0+1280),c
  4994  003120  6A34               	clrf	(??_main+5)^(0+1280),c
  4995  003122  5031               	movf	(??_main+2)^(0+1280),w,c
  4996  003124  5C33               	subwf	(??_main+4)^(0+1280),w,c
  4997  003126  5034               	movf	(??_main+5)^(0+1280),w,c
  4998  003128  0A80               	xorlw	128
  4999  00312A  6E35               	movwf	(??_main+6)^(0+1280),c
  5000  00312C  5032               	movf	(??_main+3)^(0+1280),w,c
  5001  00312E  0A80               	xorlw	128
  5002  003130  5835               	subwfb	(??_main+6)^(0+1280),w,c
  5003  003132  A0D8               	btfss	status,0,c
  5004  003134  EF9E  F018         	goto	u4691
  5005  003138  EFA0  F018         	goto	u4690
  5006  00313C                     u4691:
  5007  00313C  EFBB  F018         	goto	l658
  5008  003140                     u4690:
  5009  003140                     
  5010                           ; BSR set to: 5
  5011  003140  5190               	movf	main@green& (0+255),w,b
  5012  003142  6E2F               	movwf	??_main^(0+1280),c
  5013  003144  6A30               	clrf	(??_main+1)^(0+1280),c
  5014  003146  517F               	movf	main@greenMode3& (0+255),w,b
  5015  003148  6E31               	movwf	(??_main+2)^(0+1280),c
  5016  00314A  6A32               	clrf	(??_main+3)^(0+1280),c
  5017  00314C  0E05               	movlw	5
  5018  00314E  2631               	addwf	(??_main+2)^(0+1280),f,c
  5019  003150  0E00               	movlw	0
  5020  003152  2232               	addwfc	(??_main+3)^(0+1280),f,c
  5021  003154  502F               	movf	??_main^(0+1280),w,c
  5022  003156  5C31               	subwf	(??_main+2)^(0+1280),w,c
  5023  003158  5032               	movf	(??_main+3)^(0+1280),w,c
  5024  00315A  0A80               	xorlw	128
  5025  00315C  6E33               	movwf	(??_main+4)^(0+1280),c
  5026  00315E  5030               	movf	(??_main+1)^(0+1280),w,c
  5027  003160  0A80               	xorlw	128
  5028  003162  5833               	subwfb	(??_main+4)^(0+1280),w,c
  5029  003164  A0D8               	btfss	status,0,c
  5030  003166  EFB7  F018         	goto	u4701
  5031  00316A  EFB9  F018         	goto	u4700
  5032  00316E                     u4701:
  5033  00316E  EFBB  F018         	goto	l658
  5034  003172                     u4700:
  5035  003172                     
  5036                           ; BSR set to: 5
  5037                           ;main.c: 821:                     {;main.c: 822:                        greenAdj = 1;
  5038  003172  0E01               	movlw	1
  5039  003174  6F74               	movwf	main@greenAdj& (0+255),b
  5040  003176                     l658:
  5041                           
  5042                           ; BSR set to: 5
  5043                           ;main.c: 825:                     if(greenAdj)
  5044  003176  5174               	movf	main@greenAdj& (0+255),w,b
  5045  003178  B4D8               	btfsc	status,2,c
  5046  00317A  EFC1  F018         	goto	u4711
  5047  00317E  EFC3  F018         	goto	u4710
  5048  003182                     u4711:
  5049  003182  EFC5  F018         	goto	l3967
  5050  003186                     u4710:
  5051  003186                     
  5052                           ; BSR set to: 5
  5053                           ;main.c: 826:                     {;main.c: 827:                         greenMode3 = gr
      +                          een;
  5054  003186  C590  F57F         	movff	main@green,main@greenMode3
  5055  00318A                     l3967:
  5056                           
  5057                           ; BSR set to: 5
  5058                           ;main.c: 830:                     if((blue >= (blueMode3 - 5) && blue <= blueMode3 + 5))
  5059  00318A  0EFB               	movlw	251
  5060  00318C  6E2F               	movwf	??_main^(0+1280),c
  5061  00318E  0EFF               	movlw	255
  5062  003190  6E30               	movwf	(??_main+1)^(0+1280),c
  5063  003192  5180               	movf	main@blueMode3& (0+255),w,b
  5064  003194  6E31               	movwf	(??_main+2)^(0+1280),c
  5065  003196  6A32               	clrf	(??_main+3)^(0+1280),c
  5066  003198  502F               	movf	??_main^(0+1280),w,c
  5067  00319A  2631               	addwf	(??_main+2)^(0+1280),f,c
  5068  00319C  5030               	movf	(??_main+1)^(0+1280),w,c
  5069  00319E  2232               	addwfc	(??_main+3)^(0+1280),f,c
  5070  0031A0  5191               	movf	main@blue& (0+255),w,b
  5071  0031A2  6E33               	movwf	(??_main+4)^(0+1280),c
  5072  0031A4  6A34               	clrf	(??_main+5)^(0+1280),c
  5073  0031A6  5031               	movf	(??_main+2)^(0+1280),w,c
  5074  0031A8  5C33               	subwf	(??_main+4)^(0+1280),w,c
  5075  0031AA  5034               	movf	(??_main+5)^(0+1280),w,c
  5076  0031AC  0A80               	xorlw	128
  5077  0031AE  6E35               	movwf	(??_main+6)^(0+1280),c
  5078  0031B0  5032               	movf	(??_main+3)^(0+1280),w,c
  5079  0031B2  0A80               	xorlw	128
  5080  0031B4  5835               	subwfb	(??_main+6)^(0+1280),w,c
  5081  0031B6  A0D8               	btfss	status,0,c
  5082  0031B8  EFE0  F018         	goto	u4721
  5083  0031BC  EFE2  F018         	goto	u4720
  5084  0031C0                     u4721:
  5085  0031C0  EFFD  F018         	goto	l660
  5086  0031C4                     u4720:
  5087  0031C4                     
  5088                           ; BSR set to: 5
  5089  0031C4  5191               	movf	main@blue& (0+255),w,b
  5090  0031C6  6E2F               	movwf	??_main^(0+1280),c
  5091  0031C8  6A30               	clrf	(??_main+1)^(0+1280),c
  5092  0031CA  5180               	movf	main@blueMode3& (0+255),w,b
  5093  0031CC  6E31               	movwf	(??_main+2)^(0+1280),c
  5094  0031CE  6A32               	clrf	(??_main+3)^(0+1280),c
  5095  0031D0  0E05               	movlw	5
  5096  0031D2  2631               	addwf	(??_main+2)^(0+1280),f,c
  5097  0031D4  0E00               	movlw	0
  5098  0031D6  2232               	addwfc	(??_main+3)^(0+1280),f,c
  5099  0031D8  502F               	movf	??_main^(0+1280),w,c
  5100  0031DA  5C31               	subwf	(??_main+2)^(0+1280),w,c
  5101  0031DC  5032               	movf	(??_main+3)^(0+1280),w,c
  5102  0031DE  0A80               	xorlw	128
  5103  0031E0  6E33               	movwf	(??_main+4)^(0+1280),c
  5104  0031E2  5030               	movf	(??_main+1)^(0+1280),w,c
  5105  0031E4  0A80               	xorlw	128
  5106  0031E6  5833               	subwfb	(??_main+4)^(0+1280),w,c
  5107  0031E8  A0D8               	btfss	status,0,c
  5108  0031EA  EFF9  F018         	goto	u4731
  5109  0031EE  EFFB  F018         	goto	u4730
  5110  0031F2                     u4731:
  5111  0031F2  EFFD  F018         	goto	l660
  5112  0031F6                     u4730:
  5113  0031F6                     
  5114                           ; BSR set to: 5
  5115                           ;main.c: 831:                     {;main.c: 832:                         blueAdj = 1;
  5116  0031F6  0E01               	movlw	1
  5117  0031F8  6F75               	movwf	main@blueAdj& (0+255),b
  5118  0031FA                     l660:
  5119                           
  5120                           ; BSR set to: 5
  5121                           ;main.c: 835:                     if(blueAdj)
  5122  0031FA  5175               	movf	main@blueAdj& (0+255),w,b
  5123  0031FC  B4D8               	btfsc	status,2,c
  5124  0031FE  EF03  F019         	goto	u4741
  5125  003202  EF05  F019         	goto	u4740
  5126  003206                     u4741:
  5127  003206  EF07  F019         	goto	l653
  5128  00320A                     u4740:
  5129  00320A                     
  5130                           ; BSR set to: 5
  5131                           ;main.c: 836:                     {;main.c: 837:                         blueMode3 = blu
      +                          e;
  5132  00320A  C591  F580         	movff	main@blue,main@blueMode3
  5133  00320E                     l653:
  5134                           
  5135                           ; BSR set to: 5
  5136                           ;main.c: 843:                 if(!PORTCbits.RC6 && taster1Flag)
  5137  00320E  BCD0               	btfsc	208,6,c	;volatile
  5138  003210  EF0C  F019         	goto	u4751
  5139  003214  EF0E  F019         	goto	u4750
  5140  003218                     u4751:
  5141  003218  EF3A  F019         	goto	l3987
  5142  00321C                     u4750:
  5143  00321C                     
  5144                           ; BSR set to: 5
  5145  00321C  5177               	movf	main@taster1Flag& (0+255),w,b
  5146  00321E  B4D8               	btfsc	status,2,c
  5147  003220  EF14  F019         	goto	u4761
  5148  003224  EF16  F019         	goto	u4760
  5149  003228                     u4761:
  5150  003228  EF3A  F019         	goto	l3987
  5151  00322C                     u4760:
  5152  00322C                     
  5153                           ; BSR set to: 5
  5154                           ;main.c: 844:                 {;main.c: 845:                     LATAbits.LATA5 = 0;
  5155  00322C  9ABE               	bcf	190,5,c	;volatile
  5156                           
  5157                           ;main.c: 846:                     LATCbits.LATC7 = 1;
  5158  00322E  8EC0               	bsf	192,7,c	;volatile
  5159  003230                     
  5160                           ; BSR set to: 5
  5161                           ;main.c: 847:                     LED_WriteFull(redMode1, greenMode1, blueMode1, whiteMo
      +                          de1, 300);
  5162  003230  C58C  F507         	movff	main@greenMode1,LED_WriteFull@green
  5163  003234  C58D  F508         	movff	main@blueMode1,LED_WriteFull@blue
  5164  003238  C58E  F509         	movff	main@whiteMode1,LED_WriteFull@white
  5165  00323C  0E2C               	movlw	44
  5166  00323E  6E0A               	movwf	LED_WriteFull@ledcount^(0+1280),c
  5167  003240  0E01               	movlw	1
  5168  003242  6E0B               	movwf	(LED_WriteFull@ledcount+1)^(0+1280),c
  5169  003244  0E00               	movlw	0
  5170  003246  6E0C               	movwf	(LED_WriteFull@ledcount+2)^(0+1280),c
  5171  003248  518B               	movf	main@redMode1& (0+255),w,b
  5172  00324A  EC69  F01E         	call	_LED_WriteFull
  5173  00324E                     
  5174                           ;main.c: 848:                     state = T1;
  5175  00324E  0E01               	movlw	1
  5176  003250  0105               	movlb	5	; () banked
  5177  003252  6F93               	movwf	main@state& (0+255),b
  5178  003254                     
  5179                           ; BSR set to: 5
  5180                           ;main.c: 849:                     DATAEE_WriteByte(36, state);
  5181  003254  0E00               	movlw	0
  5182  003256  6E02               	movwf	(DATAEE_WriteByte@bAdd+1)^(0+1280),c
  5183  003258  0E24               	movlw	36
  5184  00325A  6E01               	movwf	DATAEE_WriteByte@bAdd^(0+1280),c
  5185  00325C  C593  F503         	movff	main@state,DATAEE_WriteByte@bData
  5186  003260  EC40  F01E         	call	_DATAEE_WriteByte	;wreg free
  5187  003264                     
  5188                           ;main.c: 850:                     DATAEE_WriteByte(2, 69);
  5189  003264  0E00               	movlw	0
  5190  003266  6E02               	movwf	(DATAEE_WriteByte@bAdd+1)^(0+1280),c
  5191  003268  0E02               	movlw	2
  5192  00326A  6E01               	movwf	DATAEE_WriteByte@bAdd^(0+1280),c
  5193  00326C  0E45               	movlw	69
  5194  00326E  6E03               	movwf	DATAEE_WriteByte@bData^(0+1280),c
  5195  003270  EC40  F01E         	call	_DATAEE_WriteByte	;wreg free
  5196  003274                     l3987:
  5197                           
  5198                           ;main.c: 854:                 if(!PORTAbits.RA4 && taster2Flag)
  5199  003274  B8CE               	btfsc	206,4,c	;volatile
  5200  003276  EF3F  F019         	goto	u4771
  5201  00327A  EF41  F019         	goto	u4770
  5202  00327E                     u4771:
  5203  00327E  EF6E  F019         	goto	l4001
  5204  003282                     u4770:
  5205  003282  0105               	movlb	5	; () banked
  5206  003284  5178               	movf	main@taster2Flag& (0+255),w,b
  5207  003286  B4D8               	btfsc	status,2,c
  5208  003288  EF48  F019         	goto	u4781
  5209  00328C  EF4A  F019         	goto	u4780
  5210  003290                     u4781:
  5211  003290  EF6E  F019         	goto	l4001
  5212  003294                     u4780:
  5213  003294                     
  5214                           ; BSR set to: 5
  5215                           ;main.c: 855:                 {;main.c: 856:                     LATAbits.LATA5 = 0;
  5216  003294  9ABE               	bcf	190,5,c	;volatile
  5217                           
  5218                           ;main.c: 857:                     LATCbits.LATC5 = 1;
  5219  003296  8AC0               	bsf	192,5,c	;volatile
  5220  003298                     
  5221                           ; BSR set to: 5
  5222                           ;main.c: 858:                     LED_WriteFull(redMode2, greenMode2, blueMode2, whiteMo
      +                          de2, 300);
  5223  003298  C57C  F507         	movff	main@greenMode2,LED_WriteFull@green
  5224  00329C  C57D  F508         	movff	main@blueMode2,LED_WriteFull@blue
  5225  0032A0  C584  F509         	movff	main@whiteMode2,LED_WriteFull@white
  5226  0032A4  0E2C               	movlw	44
  5227  0032A6  6E0A               	movwf	LED_WriteFull@ledcount^(0+1280),c
  5228  0032A8  0E01               	movlw	1
  5229  0032AA  6E0B               	movwf	(LED_WriteFull@ledcount+1)^(0+1280),c
  5230  0032AC  0E00               	movlw	0
  5231  0032AE  6E0C               	movwf	(LED_WriteFull@ledcount+2)^(0+1280),c
  5232  0032B0  517B               	movf	main@redMode2& (0+255),w,b
  5233  0032B2  EC69  F01E         	call	_LED_WriteFull
  5234  0032B6                     
  5235                           ;main.c: 859:                     state = T2;
  5236  0032B6  0E02               	movlw	2
  5237  0032B8  0105               	movlb	5	; () banked
  5238  0032BA  6F93               	movwf	main@state& (0+255),b
  5239  0032BC                     
  5240                           ; BSR set to: 5
  5241                           ;main.c: 860:                     DATAEE_WriteByte(36, state);
  5242  0032BC  0E00               	movlw	0
  5243  0032BE  6E02               	movwf	(DATAEE_WriteByte@bAdd+1)^(0+1280),c
  5244  0032C0  0E24               	movlw	36
  5245  0032C2  6E01               	movwf	DATAEE_WriteByte@bAdd^(0+1280),c
  5246  0032C4  C593  F503         	movff	main@state,DATAEE_WriteByte@bData
  5247  0032C8  EC40  F01E         	call	_DATAEE_WriteByte	;wreg free
  5248  0032CC                     
  5249                           ;main.c: 861:                     DATAEE_WriteByte(2, 69);
  5250  0032CC  0E00               	movlw	0
  5251  0032CE  6E02               	movwf	(DATAEE_WriteByte@bAdd+1)^(0+1280),c
  5252  0032D0  0E02               	movlw	2
  5253  0032D2  6E01               	movwf	DATAEE_WriteByte@bAdd^(0+1280),c
  5254  0032D4  0E45               	movlw	69
  5255  0032D6  6E03               	movwf	DATAEE_WriteByte@bData^(0+1280),c
  5256  0032D8  EC40  F01E         	call	_DATAEE_WriteByte	;wreg free
  5257  0032DC                     l4001:
  5258                           
  5259                           ;main.c: 865:                 if(!PORTBbits.RB7 && taster4Flag)
  5260  0032DC  BECF               	btfsc	207,7,c	;volatile
  5261  0032DE  EF73  F019         	goto	u4791
  5262  0032E2  EF75  F019         	goto	u4790
  5263  0032E6                     u4791:
  5264  0032E6  EFA2  F019         	goto	l4015
  5265  0032EA                     u4790:
  5266  0032EA  0105               	movlb	5	; () banked
  5267  0032EC  5179               	movf	main@taster4Flag& (0+255),w,b
  5268  0032EE  B4D8               	btfsc	status,2,c
  5269  0032F0  EF7C  F019         	goto	u4801
  5270  0032F4  EF7E  F019         	goto	u4800
  5271  0032F8                     u4801:
  5272  0032F8  EFA2  F019         	goto	l4015
  5273  0032FC                     u4800:
  5274  0032FC                     
  5275                           ; BSR set to: 5
  5276                           ;main.c: 866:                 {;main.c: 867:                     LATAbits.LATA5 = 0;
  5277  0032FC  9ABE               	bcf	190,5,c	;volatile
  5278                           
  5279                           ;main.c: 868:                     LATCbits.LATC3 = 1;
  5280  0032FE  86C0               	bsf	192,3,c	;volatile
  5281  003300                     
  5282                           ; BSR set to: 5
  5283                           ;main.c: 869:                     LED_WriteFull(redMode4, greenMode4, blueMode4, whiteMo
      +                          de4, 300);
  5284  003300  C582  F507         	movff	main@greenMode4,LED_WriteFull@green
  5285  003304  C583  F508         	movff	main@blueMode4,LED_WriteFull@blue
  5286  003308  C586  F509         	movff	main@whiteMode4,LED_WriteFull@white
  5287  00330C  0E2C               	movlw	44
  5288  00330E  6E0A               	movwf	LED_WriteFull@ledcount^(0+1280),c
  5289  003310  0E01               	movlw	1
  5290  003312  6E0B               	movwf	(LED_WriteFull@ledcount+1)^(0+1280),c
  5291  003314  0E00               	movlw	0
  5292  003316  6E0C               	movwf	(LED_WriteFull@ledcount+2)^(0+1280),c
  5293  003318  5181               	movf	main@redMode4& (0+255),w,b
  5294  00331A  EC69  F01E         	call	_LED_WriteFull
  5295  00331E                     
  5296                           ;main.c: 870:                     state = T4 ;
  5297  00331E  0E04               	movlw	4
  5298  003320  0105               	movlb	5	; () banked
  5299  003322  6F93               	movwf	main@state& (0+255),b
  5300  003324                     
  5301                           ; BSR set to: 5
  5302                           ;main.c: 871:                     DATAEE_WriteByte(36, state);
  5303  003324  0E00               	movlw	0
  5304  003326  6E02               	movwf	(DATAEE_WriteByte@bAdd+1)^(0+1280),c
  5305  003328  0E24               	movlw	36
  5306  00332A  6E01               	movwf	DATAEE_WriteByte@bAdd^(0+1280),c
  5307  00332C  C593  F503         	movff	main@state,DATAEE_WriteByte@bData
  5308  003330  EC40  F01E         	call	_DATAEE_WriteByte	;wreg free
  5309  003334                     
  5310                           ;main.c: 872:                     DATAEE_WriteByte(2, 69);
  5311  003334  0E00               	movlw	0
  5312  003336  6E02               	movwf	(DATAEE_WriteByte@bAdd+1)^(0+1280),c
  5313  003338  0E02               	movlw	2
  5314  00333A  6E01               	movwf	DATAEE_WriteByte@bAdd^(0+1280),c
  5315  00333C  0E45               	movlw	69
  5316  00333E  6E03               	movwf	DATAEE_WriteByte@bData^(0+1280),c
  5317  003340  EC40  F01E         	call	_DATAEE_WriteByte	;wreg free
  5318  003344                     l4015:
  5319                           
  5320                           ;main.c: 880:                 LED_WriteFull(redMode4,greenMode4,blueMode4, whiteMode4, 3
      +                          00);
  5321  003344  C582  F507         	movff	main@greenMode4,LED_WriteFull@green
  5322  003348  C583  F508         	movff	main@blueMode4,LED_WriteFull@blue
  5323  00334C  C586  F509         	movff	main@whiteMode4,LED_WriteFull@white
  5324  003350  0E2C               	movlw	44
  5325  003352  6E0A               	movwf	LED_WriteFull@ledcount^(0+1280),c
  5326  003354  0E01               	movlw	1
  5327  003356  6E0B               	movwf	(LED_WriteFull@ledcount+1)^(0+1280),c
  5328  003358  0E00               	movlw	0
  5329  00335A  6E0C               	movwf	(LED_WriteFull@ledcount+2)^(0+1280),c
  5330  00335C  0105               	movlb	5	; () banked
  5331  00335E  5181               	movf	main@redMode4& (0+255),w,b
  5332  003360  EC69  F01E         	call	_LED_WriteFull
  5333                           
  5334                           ;main.c: 884:                 if(led4StateBlink && (++timeout250ms == 12))
  5335  003364  0105               	movlb	5	; () banked
  5336  003366  5170               	movf	main@led4StateBlink& (0+255),w,b
  5337  003368  B4D8               	btfsc	status,2,c
  5338  00336A  EFB9  F019         	goto	u4811
  5339  00336E  EFBB  F019         	goto	u4810
  5340  003372                     u4811:
  5341  003372  EFD9  F019         	goto	l4023
  5342  003376                     u4810:
  5343  003376                     
  5344                           ; BSR set to: 5
  5345  003376  2B71               	incf	main@timeout250ms& (0+255),f,b
  5346  003378  0E0C               	movlw	12
  5347  00337A  1971               	xorwf	main@timeout250ms& (0+255),w,b
  5348  00337C  A4D8               	btfss	status,2,c
  5349  00337E  EFC3  F019         	goto	u4821
  5350  003382  EFC5  F019         	goto	u4820
  5351  003386                     u4821:
  5352  003386  EFD9  F019         	goto	l4023
  5353  00338A                     u4820:
  5354  00338A                     
  5355                           ; BSR set to: 5
  5356                           ;main.c: 885:                 {;main.c: 886:                     timeout250ms = 0;
  5357  00338A  0E00               	movlw	0
  5358  00338C  6F71               	movwf	main@timeout250ms& (0+255),b
  5359  00338E                     
  5360                           ; BSR set to: 5
  5361                           ;main.c: 887:                     LATCbits.LATC3 = !LATCbits.LATC3;
  5362  00338E  A6C0               	btfss	192,3,c	;volatile
  5363  003390  EFCC  F019         	goto	u4831
  5364  003394  EFD0  F019         	goto	u4830
  5365  003398                     u4831:
  5366  003398  6A2F               	clrf	??_main^(0+1280),c
  5367  00339A  2A2F               	incf	??_main^(0+1280),f,c
  5368  00339C  EFD1  F019         	goto	u4848
  5369  0033A0                     u4830:
  5370  0033A0  6A2F               	clrf	??_main^(0+1280),c
  5371  0033A2                     u4848:
  5372  0033A2  462F               	rlncf	??_main^(0+1280),f,c
  5373  0033A4  462F               	rlncf	??_main^(0+1280),f,c
  5374  0033A6  462F               	rlncf	??_main^(0+1280),f,c
  5375  0033A8  50C0               	movf	192,w,c	;volatile
  5376  0033AA  182F               	xorwf	??_main^(0+1280),w,c
  5377  0033AC  0BF7               	andlw	-9
  5378  0033AE  182F               	xorwf	??_main^(0+1280),w,c
  5379  0033B0  6EC0               	movwf	192,c	;volatile
  5380  0033B2                     l4023:
  5381                           
  5382                           ;main.c: 890:                 if(!PORTBbits.RB7 && taster4Flag && !led4StateBlink)
  5383  0033B2  BECF               	btfsc	207,7,c	;volatile
  5384  0033B4  EFDE  F019         	goto	u4851
  5385  0033B8  EFE0  F019         	goto	u4850
  5386  0033BC                     u4851:
  5387  0033BC  EFF3  F019         	goto	l4031
  5388  0033C0                     u4850:
  5389  0033C0  0105               	movlb	5	; () banked
  5390  0033C2  5179               	movf	main@taster4Flag& (0+255),w,b
  5391  0033C4  B4D8               	btfsc	status,2,c
  5392  0033C6  EFE7  F019         	goto	u4861
  5393  0033CA  EFE9  F019         	goto	u4860
  5394  0033CE                     u4861:
  5395  0033CE  EFF3  F019         	goto	l4031
  5396  0033D2                     u4860:
  5397  0033D2                     
  5398                           ; BSR set to: 5
  5399  0033D2  5170               	movf	main@led4StateBlink& (0+255),w,b
  5400  0033D4  A4D8               	btfss	status,2,c
  5401  0033D6  EFEF  F019         	goto	u4871
  5402  0033DA  EFF1  F019         	goto	u4870
  5403  0033DE                     u4871:
  5404  0033DE  EFF3  F019         	goto	l4031
  5405  0033E2                     u4870:
  5406  0033E2                     
  5407                           ; BSR set to: 5
  5408                           ;main.c: 891:                 {;main.c: 892:                     state = T4StateDummy;
  5409  0033E2  0E0C               	movlw	12
  5410  0033E4  6F93               	movwf	main@state& (0+255),b
  5411  0033E6                     l4031:
  5412                           
  5413                           ;main.c: 895:                 if(!PORTBbits.RB7 && taster4Flag && led4StateBlink)
  5414  0033E6  BECF               	btfsc	207,7,c	;volatile
  5415  0033E8  EFF8  F019         	goto	u4881
  5416  0033EC  EFFA  F019         	goto	u4880
  5417  0033F0                     u4881:
  5418  0033F0  EF3E  F01A         	goto	l4051
  5419  0033F4                     u4880:
  5420  0033F4  0105               	movlb	5	; () banked
  5421  0033F6  5179               	movf	main@taster4Flag& (0+255),w,b
  5422  0033F8  B4D8               	btfsc	status,2,c
  5423  0033FA  EF01  F01A         	goto	u4891
  5424  0033FE  EF03  F01A         	goto	u4890
  5425  003402                     u4891:
  5426  003402  EF3E  F01A         	goto	l4051
  5427  003406                     u4890:
  5428  003406                     
  5429                           ; BSR set to: 5
  5430  003406  5170               	movf	main@led4StateBlink& (0+255),w,b
  5431  003408  B4D8               	btfsc	status,2,c
  5432  00340A  EF09  F01A         	goto	u4901
  5433  00340E  EF0B  F01A         	goto	u4900
  5434  003412                     u4901:
  5435  003412  EF3E  F01A         	goto	l4051
  5436  003416                     u4900:
  5437  003416                     
  5438                           ; BSR set to: 5
  5439                           ;main.c: 896:                 {;main.c: 897:                     LATCbits.LATC3 = 1;
  5440  003416  86C0               	bsf	192,3,c	;volatile
  5441  003418                     
  5442                           ; BSR set to: 5
  5443                           ;main.c: 898:                     led4StateBlink = 0;
  5444  003418  0E00               	movlw	0
  5445  00341A  6F70               	movwf	main@led4StateBlink& (0+255),b
  5446                           
  5447                           ;main.c: 899:                     redAdj = 0;
  5448  00341C  0E00               	movlw	0
  5449  00341E  6F73               	movwf	main@redAdj& (0+255),b
  5450                           
  5451                           ;main.c: 900:                     greenAdj = 0;
  5452  003420  0E00               	movlw	0
  5453  003422  6F74               	movwf	main@greenAdj& (0+255),b
  5454                           
  5455                           ;main.c: 901:                     blueAdj = 0;
  5456  003424  0E00               	movlw	0
  5457  003426  6F75               	movwf	main@blueAdj& (0+255),b
  5458                           
  5459                           ;main.c: 902:                     whiteAdj = 0;
  5460  003428  0E00               	movlw	0
  5461  00342A  6F76               	movwf	main@whiteAdj& (0+255),b
  5462  00342C                     
  5463                           ; BSR set to: 5
  5464                           ;main.c: 903:                     DATAEE_WriteByte(32, blueMode1);
  5465  00342C  0E00               	movlw	0
  5466  00342E  6E02               	movwf	(DATAEE_WriteByte@bAdd+1)^(0+1280),c
  5467  003430  0E20               	movlw	32
  5468  003432  6E01               	movwf	DATAEE_WriteByte@bAdd^(0+1280),c
  5469  003434  C58D  F503         	movff	main@blueMode1,DATAEE_WriteByte@bData
  5470  003438  EC40  F01E         	call	_DATAEE_WriteByte	;wreg free
  5471  00343C                     
  5472                           ;main.c: 904:                     DATAEE_WriteByte(31, greenMode1);
  5473  00343C  0E00               	movlw	0
  5474  00343E  6E02               	movwf	(DATAEE_WriteByte@bAdd+1)^(0+1280),c
  5475  003440  0E1F               	movlw	31
  5476  003442  6E01               	movwf	DATAEE_WriteByte@bAdd^(0+1280),c
  5477  003444  C58C  F503         	movff	main@greenMode1,DATAEE_WriteByte@bData
  5478  003448  EC40  F01E         	call	_DATAEE_WriteByte	;wreg free
  5479  00344C                     
  5480                           ;main.c: 905:                     DATAEE_WriteByte(30, redMode1);
  5481  00344C  0E00               	movlw	0
  5482  00344E  6E02               	movwf	(DATAEE_WriteByte@bAdd+1)^(0+1280),c
  5483  003450  0E1E               	movlw	30
  5484  003452  6E01               	movwf	DATAEE_WriteByte@bAdd^(0+1280),c
  5485  003454  C58B  F503         	movff	main@redMode1,DATAEE_WriteByte@bData
  5486  003458  EC40  F01E         	call	_DATAEE_WriteByte	;wreg free
  5487  00345C                     
  5488                           ;main.c: 906:                     DATAEE_WriteByte(34, whiteMode1);
  5489  00345C  0E00               	movlw	0
  5490  00345E  6E02               	movwf	(DATAEE_WriteByte@bAdd+1)^(0+1280),c
  5491  003460  0E22               	movlw	34
  5492  003462  6E01               	movwf	DATAEE_WriteByte@bAdd^(0+1280),c
  5493  003464  C58E  F503         	movff	main@whiteMode1,DATAEE_WriteByte@bData
  5494  003468  EC40  F01E         	call	_DATAEE_WriteByte	;wreg free
  5495  00346C                     
  5496                           ;main.c: 907:                     DATAEE_WriteByte(8, 69);
  5497  00346C  0E00               	movlw	0
  5498  00346E  6E02               	movwf	(DATAEE_WriteByte@bAdd+1)^(0+1280),c
  5499  003470  0E08               	movlw	8
  5500  003472  6E01               	movwf	DATAEE_WriteByte@bAdd^(0+1280),c
  5501  003474  0E45               	movlw	69
  5502  003476  6E03               	movwf	DATAEE_WriteByte@bData^(0+1280),c
  5503  003478  EC40  F01E         	call	_DATAEE_WriteByte	;wreg free
  5504  00347C                     l4051:
  5505                           
  5506                           ;main.c: 910:                 if(led4StateBlink)
  5507  00347C  0105               	movlb	5	; () banked
  5508  00347E  5170               	movf	main@led4StateBlink& (0+255),w,b
  5509  003480  B4D8               	btfsc	status,2,c
  5510  003482  EF45  F01A         	goto	u4911
  5511  003486  EF47  F01A         	goto	u4910
  5512  00348A                     u4911:
  5513  00348A  EF4F  F01B         	goto	l669
  5514  00348E                     u4910:
  5515  00348E                     
  5516                           ; BSR set to: 5
  5517                           ;main.c: 911:                 {;main.c: 912:                     if((red >= (redMode4 - 
      +                          5) && red <= redMode4 + 5))
  5518  00348E  0EFB               	movlw	251
  5519  003490  6E2F               	movwf	??_main^(0+1280),c
  5520  003492  0EFF               	movlw	255
  5521  003494  6E30               	movwf	(??_main+1)^(0+1280),c
  5522  003496  5181               	movf	main@redMode4& (0+255),w,b
  5523  003498  6E31               	movwf	(??_main+2)^(0+1280),c
  5524  00349A  6A32               	clrf	(??_main+3)^(0+1280),c
  5525  00349C  502F               	movf	??_main^(0+1280),w,c
  5526  00349E  2631               	addwf	(??_main+2)^(0+1280),f,c
  5527  0034A0  5030               	movf	(??_main+1)^(0+1280),w,c
  5528  0034A2  2232               	addwfc	(??_main+3)^(0+1280),f,c
  5529  0034A4  518F               	movf	main@red& (0+255),w,b
  5530  0034A6  6E33               	movwf	(??_main+4)^(0+1280),c
  5531  0034A8  6A34               	clrf	(??_main+5)^(0+1280),c
  5532  0034AA  5031               	movf	(??_main+2)^(0+1280),w,c
  5533  0034AC  5C33               	subwf	(??_main+4)^(0+1280),w,c
  5534  0034AE  5034               	movf	(??_main+5)^(0+1280),w,c
  5535  0034B0  0A80               	xorlw	128
  5536  0034B2  6E35               	movwf	(??_main+6)^(0+1280),c
  5537  0034B4  5032               	movf	(??_main+3)^(0+1280),w,c
  5538  0034B6  0A80               	xorlw	128
  5539  0034B8  5835               	subwfb	(??_main+6)^(0+1280),w,c
  5540  0034BA  A0D8               	btfss	status,0,c
  5541  0034BC  EF62  F01A         	goto	u4921
  5542  0034C0  EF64  F01A         	goto	u4920
  5543  0034C4                     u4921:
  5544  0034C4  EF7F  F01A         	goto	l670
  5545  0034C8                     u4920:
  5546  0034C8                     
  5547                           ; BSR set to: 5
  5548  0034C8  518F               	movf	main@red& (0+255),w,b
  5549  0034CA  6E2F               	movwf	??_main^(0+1280),c
  5550  0034CC  6A30               	clrf	(??_main+1)^(0+1280),c
  5551  0034CE  5181               	movf	main@redMode4& (0+255),w,b
  5552  0034D0  6E31               	movwf	(??_main+2)^(0+1280),c
  5553  0034D2  6A32               	clrf	(??_main+3)^(0+1280),c
  5554  0034D4  0E05               	movlw	5
  5555  0034D6  2631               	addwf	(??_main+2)^(0+1280),f,c
  5556  0034D8  0E00               	movlw	0
  5557  0034DA  2232               	addwfc	(??_main+3)^(0+1280),f,c
  5558  0034DC  502F               	movf	??_main^(0+1280),w,c
  5559  0034DE  5C31               	subwf	(??_main+2)^(0+1280),w,c
  5560  0034E0  5032               	movf	(??_main+3)^(0+1280),w,c
  5561  0034E2  0A80               	xorlw	128
  5562  0034E4  6E33               	movwf	(??_main+4)^(0+1280),c
  5563  0034E6  5030               	movf	(??_main+1)^(0+1280),w,c
  5564  0034E8  0A80               	xorlw	128
  5565  0034EA  5833               	subwfb	(??_main+4)^(0+1280),w,c
  5566  0034EC  A0D8               	btfss	status,0,c
  5567  0034EE  EF7B  F01A         	goto	u4931
  5568  0034F2  EF7D  F01A         	goto	u4930
  5569  0034F6                     u4931:
  5570  0034F6  EF7F  F01A         	goto	l670
  5571  0034FA                     u4930:
  5572  0034FA                     
  5573                           ; BSR set to: 5
  5574                           ;main.c: 913:                     {;main.c: 914:                         redAdj = 1;
  5575  0034FA  0E01               	movlw	1
  5576  0034FC  6F73               	movwf	main@redAdj& (0+255),b
  5577  0034FE                     l670:
  5578                           
  5579                           ; BSR set to: 5
  5580                           ;main.c: 917:                     if(redAdj)
  5581  0034FE  5173               	movf	main@redAdj& (0+255),w,b
  5582  003500  B4D8               	btfsc	status,2,c
  5583  003502  EF85  F01A         	goto	u4941
  5584  003506  EF87  F01A         	goto	u4940
  5585  00350A                     u4941:
  5586  00350A  EF89  F01A         	goto	l4061
  5587  00350E                     u4940:
  5588  00350E                     
  5589                           ; BSR set to: 5
  5590                           ;main.c: 918:                     {;main.c: 919:                         redMode4 = red;
  5591  00350E  C58F  F581         	movff	main@red,main@redMode4
  5592  003512                     l4061:
  5593                           
  5594                           ; BSR set to: 5
  5595                           ;main.c: 922:                     if((white >= (whiteMode4 - 5) && white <= whiteMode4 +
      +                           5))
  5596  003512  0EFB               	movlw	251
  5597  003514  6E2F               	movwf	??_main^(0+1280),c
  5598  003516  0EFF               	movlw	255
  5599  003518  6E30               	movwf	(??_main+1)^(0+1280),c
  5600  00351A  5186               	movf	main@whiteMode4& (0+255),w,b
  5601  00351C  6E31               	movwf	(??_main+2)^(0+1280),c
  5602  00351E  6A32               	clrf	(??_main+3)^(0+1280),c
  5603  003520  502F               	movf	??_main^(0+1280),w,c
  5604  003522  2631               	addwf	(??_main+2)^(0+1280),f,c
  5605  003524  5030               	movf	(??_main+1)^(0+1280),w,c
  5606  003526  2232               	addwfc	(??_main+3)^(0+1280),f,c
  5607  003528  5192               	movf	main@white& (0+255),w,b
  5608  00352A  6E33               	movwf	(??_main+4)^(0+1280),c
  5609  00352C  6A34               	clrf	(??_main+5)^(0+1280),c
  5610  00352E  5031               	movf	(??_main+2)^(0+1280),w,c
  5611  003530  5C33               	subwf	(??_main+4)^(0+1280),w,c
  5612  003532  5034               	movf	(??_main+5)^(0+1280),w,c
  5613  003534  0A80               	xorlw	128
  5614  003536  6E35               	movwf	(??_main+6)^(0+1280),c
  5615  003538  5032               	movf	(??_main+3)^(0+1280),w,c
  5616  00353A  0A80               	xorlw	128
  5617  00353C  5835               	subwfb	(??_main+6)^(0+1280),w,c
  5618  00353E  A0D8               	btfss	status,0,c
  5619  003540  EFA4  F01A         	goto	u4951
  5620  003544  EFA6  F01A         	goto	u4950
  5621  003548                     u4951:
  5622  003548  EFC1  F01A         	goto	l672
  5623  00354C                     u4950:
  5624  00354C                     
  5625                           ; BSR set to: 5
  5626  00354C  5192               	movf	main@white& (0+255),w,b
  5627  00354E  6E2F               	movwf	??_main^(0+1280),c
  5628  003550  6A30               	clrf	(??_main+1)^(0+1280),c
  5629  003552  5186               	movf	main@whiteMode4& (0+255),w,b
  5630  003554  6E31               	movwf	(??_main+2)^(0+1280),c
  5631  003556  6A32               	clrf	(??_main+3)^(0+1280),c
  5632  003558  0E05               	movlw	5
  5633  00355A  2631               	addwf	(??_main+2)^(0+1280),f,c
  5634  00355C  0E00               	movlw	0
  5635  00355E  2232               	addwfc	(??_main+3)^(0+1280),f,c
  5636  003560  502F               	movf	??_main^(0+1280),w,c
  5637  003562  5C31               	subwf	(??_main+2)^(0+1280),w,c
  5638  003564  5032               	movf	(??_main+3)^(0+1280),w,c
  5639  003566  0A80               	xorlw	128
  5640  003568  6E33               	movwf	(??_main+4)^(0+1280),c
  5641  00356A  5030               	movf	(??_main+1)^(0+1280),w,c
  5642  00356C  0A80               	xorlw	128
  5643  00356E  5833               	subwfb	(??_main+4)^(0+1280),w,c
  5644  003570  A0D8               	btfss	status,0,c
  5645  003572  EFBD  F01A         	goto	u4961
  5646  003576  EFBF  F01A         	goto	u4960
  5647  00357A                     u4961:
  5648  00357A  EFC1  F01A         	goto	l672
  5649  00357E                     u4960:
  5650  00357E                     
  5651                           ; BSR set to: 5
  5652                           ;main.c: 923:                     {;main.c: 924:                         whiteAdj = 1;
  5653  00357E  0E01               	movlw	1
  5654  003580  6F76               	movwf	main@whiteAdj& (0+255),b
  5655  003582                     l672:
  5656                           
  5657                           ; BSR set to: 5
  5658                           ;main.c: 927:                     if(whiteAdj)
  5659  003582  5176               	movf	main@whiteAdj& (0+255),w,b
  5660  003584  B4D8               	btfsc	status,2,c
  5661  003586  EFC7  F01A         	goto	u4971
  5662  00358A  EFC9  F01A         	goto	u4970
  5663  00358E                     u4971:
  5664  00358E  EFCB  F01A         	goto	l4069
  5665  003592                     u4970:
  5666  003592                     
  5667                           ; BSR set to: 5
  5668                           ;main.c: 928:                     {;main.c: 929:                         whiteMode4 = wh
      +                          ite;
  5669  003592  C592  F586         	movff	main@white,main@whiteMode4
  5670  003596                     l4069:
  5671                           
  5672                           ; BSR set to: 5
  5673                           ;main.c: 932:                     if((green >= (greenMode4 - 5) && green <= greenMode4 +
      +                           5))
  5674  003596  0EFB               	movlw	251
  5675  003598  6E2F               	movwf	??_main^(0+1280),c
  5676  00359A  0EFF               	movlw	255
  5677  00359C  6E30               	movwf	(??_main+1)^(0+1280),c
  5678  00359E  5182               	movf	main@greenMode4& (0+255),w,b
  5679  0035A0  6E31               	movwf	(??_main+2)^(0+1280),c
  5680  0035A2  6A32               	clrf	(??_main+3)^(0+1280),c
  5681  0035A4  502F               	movf	??_main^(0+1280),w,c
  5682  0035A6  2631               	addwf	(??_main+2)^(0+1280),f,c
  5683  0035A8  5030               	movf	(??_main+1)^(0+1280),w,c
  5684  0035AA  2232               	addwfc	(??_main+3)^(0+1280),f,c
  5685  0035AC  5190               	movf	main@green& (0+255),w,b
  5686  0035AE  6E33               	movwf	(??_main+4)^(0+1280),c
  5687  0035B0  6A34               	clrf	(??_main+5)^(0+1280),c
  5688  0035B2  5031               	movf	(??_main+2)^(0+1280),w,c
  5689  0035B4  5C33               	subwf	(??_main+4)^(0+1280),w,c
  5690  0035B6  5034               	movf	(??_main+5)^(0+1280),w,c
  5691  0035B8  0A80               	xorlw	128
  5692  0035BA  6E35               	movwf	(??_main+6)^(0+1280),c
  5693  0035BC  5032               	movf	(??_main+3)^(0+1280),w,c
  5694  0035BE  0A80               	xorlw	128
  5695  0035C0  5835               	subwfb	(??_main+6)^(0+1280),w,c
  5696  0035C2  A0D8               	btfss	status,0,c
  5697  0035C4  EFE6  F01A         	goto	u4981
  5698  0035C8  EFE8  F01A         	goto	u4980
  5699  0035CC                     u4981:
  5700  0035CC  EF03  F01B         	goto	l674
  5701  0035D0                     u4980:
  5702  0035D0                     
  5703                           ; BSR set to: 5
  5704  0035D0  5190               	movf	main@green& (0+255),w,b
  5705  0035D2  6E2F               	movwf	??_main^(0+1280),c
  5706  0035D4  6A30               	clrf	(??_main+1)^(0+1280),c
  5707  0035D6  5182               	movf	main@greenMode4& (0+255),w,b
  5708  0035D8  6E31               	movwf	(??_main+2)^(0+1280),c
  5709  0035DA  6A32               	clrf	(??_main+3)^(0+1280),c
  5710  0035DC  0E05               	movlw	5
  5711  0035DE  2631               	addwf	(??_main+2)^(0+1280),f,c
  5712  0035E0  0E00               	movlw	0
  5713  0035E2  2232               	addwfc	(??_main+3)^(0+1280),f,c
  5714  0035E4  502F               	movf	??_main^(0+1280),w,c
  5715  0035E6  5C31               	subwf	(??_main+2)^(0+1280),w,c
  5716  0035E8  5032               	movf	(??_main+3)^(0+1280),w,c
  5717  0035EA  0A80               	xorlw	128
  5718  0035EC  6E33               	movwf	(??_main+4)^(0+1280),c
  5719  0035EE  5030               	movf	(??_main+1)^(0+1280),w,c
  5720  0035F0  0A80               	xorlw	128
  5721  0035F2  5833               	subwfb	(??_main+4)^(0+1280),w,c
  5722  0035F4  A0D8               	btfss	status,0,c
  5723  0035F6  EFFF  F01A         	goto	u4991
  5724  0035FA  EF01  F01B         	goto	u4990
  5725  0035FE                     u4991:
  5726  0035FE  EF03  F01B         	goto	l674
  5727  003602                     u4990:
  5728  003602                     
  5729                           ; BSR set to: 5
  5730                           ;main.c: 933:                     {;main.c: 934:                        greenAdj = 1;
  5731  003602  0E01               	movlw	1
  5732  003604  6F74               	movwf	main@greenAdj& (0+255),b
  5733  003606                     l674:
  5734                           
  5735                           ; BSR set to: 5
  5736                           ;main.c: 937:                     if(greenAdj)
  5737  003606  5174               	movf	main@greenAdj& (0+255),w,b
  5738  003608  B4D8               	btfsc	status,2,c
  5739  00360A  EF09  F01B         	goto	u5001
  5740  00360E  EF0B  F01B         	goto	u5000
  5741  003612                     u5001:
  5742  003612  EF0D  F01B         	goto	l4077
  5743  003616                     u5000:
  5744  003616                     
  5745                           ; BSR set to: 5
  5746                           ;main.c: 938:                     {;main.c: 939:                         greenMode4 = gr
      +                          een;
  5747  003616  C590  F582         	movff	main@green,main@greenMode4
  5748  00361A                     l4077:
  5749                           
  5750                           ; BSR set to: 5
  5751                           ;main.c: 942:                     if((blue >= (blueMode4 - 5) && blue <= blueMode4 + 5))
  5752  00361A  0EFB               	movlw	251
  5753  00361C  6E2F               	movwf	??_main^(0+1280),c
  5754  00361E  0EFF               	movlw	255
  5755  003620  6E30               	movwf	(??_main+1)^(0+1280),c
  5756  003622  5183               	movf	main@blueMode4& (0+255),w,b
  5757  003624  6E31               	movwf	(??_main+2)^(0+1280),c
  5758  003626  6A32               	clrf	(??_main+3)^(0+1280),c
  5759  003628  502F               	movf	??_main^(0+1280),w,c
  5760  00362A  2631               	addwf	(??_main+2)^(0+1280),f,c
  5761  00362C  5030               	movf	(??_main+1)^(0+1280),w,c
  5762  00362E  2232               	addwfc	(??_main+3)^(0+1280),f,c
  5763  003630  5191               	movf	main@blue& (0+255),w,b
  5764  003632  6E33               	movwf	(??_main+4)^(0+1280),c
  5765  003634  6A34               	clrf	(??_main+5)^(0+1280),c
  5766  003636  5031               	movf	(??_main+2)^(0+1280),w,c
  5767  003638  5C33               	subwf	(??_main+4)^(0+1280),w,c
  5768  00363A  5034               	movf	(??_main+5)^(0+1280),w,c
  5769  00363C  0A80               	xorlw	128
  5770  00363E  6E35               	movwf	(??_main+6)^(0+1280),c
  5771  003640  5032               	movf	(??_main+3)^(0+1280),w,c
  5772  003642  0A80               	xorlw	128
  5773  003644  5835               	subwfb	(??_main+6)^(0+1280),w,c
  5774  003646  A0D8               	btfss	status,0,c
  5775  003648  EF28  F01B         	goto	u5011
  5776  00364C  EF2A  F01B         	goto	u5010
  5777  003650                     u5011:
  5778  003650  EF45  F01B         	goto	l676
  5779  003654                     u5010:
  5780  003654                     
  5781                           ; BSR set to: 5
  5782  003654  5191               	movf	main@blue& (0+255),w,b
  5783  003656  6E2F               	movwf	??_main^(0+1280),c
  5784  003658  6A30               	clrf	(??_main+1)^(0+1280),c
  5785  00365A  5183               	movf	main@blueMode4& (0+255),w,b
  5786  00365C  6E31               	movwf	(??_main+2)^(0+1280),c
  5787  00365E  6A32               	clrf	(??_main+3)^(0+1280),c
  5788  003660  0E05               	movlw	5
  5789  003662  2631               	addwf	(??_main+2)^(0+1280),f,c
  5790  003664  0E00               	movlw	0
  5791  003666  2232               	addwfc	(??_main+3)^(0+1280),f,c
  5792  003668  502F               	movf	??_main^(0+1280),w,c
  5793  00366A  5C31               	subwf	(??_main+2)^(0+1280),w,c
  5794  00366C  5032               	movf	(??_main+3)^(0+1280),w,c
  5795  00366E  0A80               	xorlw	128
  5796  003670  6E33               	movwf	(??_main+4)^(0+1280),c
  5797  003672  5030               	movf	(??_main+1)^(0+1280),w,c
  5798  003674  0A80               	xorlw	128
  5799  003676  5833               	subwfb	(??_main+4)^(0+1280),w,c
  5800  003678  A0D8               	btfss	status,0,c
  5801  00367A  EF41  F01B         	goto	u5021
  5802  00367E  EF43  F01B         	goto	u5020
  5803  003682                     u5021:
  5804  003682  EF45  F01B         	goto	l676
  5805  003686                     u5020:
  5806  003686                     
  5807                           ; BSR set to: 5
  5808                           ;main.c: 943:                     {;main.c: 944:                         blueAdj = 1;
  5809  003686  0E01               	movlw	1
  5810  003688  6F75               	movwf	main@blueAdj& (0+255),b
  5811  00368A                     l676:
  5812                           
  5813                           ; BSR set to: 5
  5814                           ;main.c: 947:                     if(blueAdj)
  5815  00368A  5175               	movf	main@blueAdj& (0+255),w,b
  5816  00368C  B4D8               	btfsc	status,2,c
  5817  00368E  EF4B  F01B         	goto	u5031
  5818  003692  EF4D  F01B         	goto	u5030
  5819  003696                     u5031:
  5820  003696  EF4F  F01B         	goto	l669
  5821  00369A                     u5030:
  5822  00369A                     
  5823                           ; BSR set to: 5
  5824                           ;main.c: 948:                     {;main.c: 949:                         blueMode4 = blu
      +                          e;
  5825  00369A  C591  F583         	movff	main@blue,main@blueMode4
  5826  00369E                     l669:
  5827                           
  5828                           ; BSR set to: 5
  5829                           ;main.c: 956:                 if(!PORTCbits.RC6 && taster1Flag)
  5830  00369E  BCD0               	btfsc	208,6,c	;volatile
  5831  0036A0  EF54  F01B         	goto	u5041
  5832  0036A4  EF56  F01B         	goto	u5040
  5833  0036A8                     u5041:
  5834  0036A8  EF72  F01B         	goto	l4095
  5835  0036AC                     u5040:
  5836  0036AC                     
  5837                           ; BSR set to: 5
  5838  0036AC  5177               	movf	main@taster1Flag& (0+255),w,b
  5839  0036AE  B4D8               	btfsc	status,2,c
  5840  0036B0  EF5C  F01B         	goto	u5051
  5841  0036B4  EF5E  F01B         	goto	u5050
  5842  0036B8                     u5051:
  5843  0036B8  EF72  F01B         	goto	l4095
  5844  0036BC                     u5050:
  5845  0036BC                     
  5846                           ; BSR set to: 5
  5847                           ;main.c: 957:                 {;main.c: 958:                     LATCbits.LATC3 = 0;
  5848  0036BC  96C0               	bcf	192,3,c	;volatile
  5849                           
  5850                           ;main.c: 959:                     LATCbits.LATC7 = 1;
  5851  0036BE  8EC0               	bsf	192,7,c	;volatile
  5852  0036C0                     
  5853                           ; BSR set to: 5
  5854                           ;main.c: 960:                     state = T1;
  5855  0036C0  0E01               	movlw	1
  5856  0036C2  6F93               	movwf	main@state& (0+255),b
  5857  0036C4                     
  5858                           ; BSR set to: 5
  5859                           ;main.c: 961:                     DATAEE_WriteByte(36, state);
  5860  0036C4  0E00               	movlw	0
  5861  0036C6  6E02               	movwf	(DATAEE_WriteByte@bAdd+1)^(0+1280),c
  5862  0036C8  0E24               	movlw	36
  5863  0036CA  6E01               	movwf	DATAEE_WriteByte@bAdd^(0+1280),c
  5864  0036CC  C593  F503         	movff	main@state,DATAEE_WriteByte@bData
  5865  0036D0  EC40  F01E         	call	_DATAEE_WriteByte	;wreg free
  5866  0036D4                     
  5867                           ;main.c: 962:                     DATAEE_WriteByte(2, 69);
  5868  0036D4  0E00               	movlw	0
  5869  0036D6  6E02               	movwf	(DATAEE_WriteByte@bAdd+1)^(0+1280),c
  5870  0036D8  0E02               	movlw	2
  5871  0036DA  6E01               	movwf	DATAEE_WriteByte@bAdd^(0+1280),c
  5872  0036DC  0E45               	movlw	69
  5873  0036DE  6E03               	movwf	DATAEE_WriteByte@bData^(0+1280),c
  5874  0036E0  EC40  F01E         	call	_DATAEE_WriteByte	;wreg free
  5875  0036E4                     l4095:
  5876                           
  5877                           ;main.c: 966:                 if(!PORTAbits.RA4 && taster2Flag)
  5878  0036E4  B8CE               	btfsc	206,4,c	;volatile
  5879  0036E6  EF77  F01B         	goto	u5061
  5880  0036EA  EF79  F01B         	goto	u5060
  5881  0036EE                     u5061:
  5882  0036EE  EFA6  F01B         	goto	l4109
  5883  0036F2                     u5060:
  5884  0036F2  0105               	movlb	5	; () banked
  5885  0036F4  5178               	movf	main@taster2Flag& (0+255),w,b
  5886  0036F6  B4D8               	btfsc	status,2,c
  5887  0036F8  EF80  F01B         	goto	u5071
  5888  0036FC  EF82  F01B         	goto	u5070
  5889  003700                     u5071:
  5890  003700  EFA6  F01B         	goto	l4109
  5891  003704                     u5070:
  5892  003704                     
  5893                           ; BSR set to: 5
  5894                           ;main.c: 967:                 {;main.c: 968:                     LATCbits.LATC3 = 0;
  5895  003704  96C0               	bcf	192,3,c	;volatile
  5896                           
  5897                           ;main.c: 969:                     LATCbits.LATC5 = 1;
  5898  003706  8AC0               	bsf	192,5,c	;volatile
  5899  003708                     
  5900                           ; BSR set to: 5
  5901                           ;main.c: 970:                     LED_WriteFull(redMode2, greenMode2, blueMode2, whiteMo
      +                          de2, 300);
  5902  003708  C57C  F507         	movff	main@greenMode2,LED_WriteFull@green
  5903  00370C  C57D  F508         	movff	main@blueMode2,LED_WriteFull@blue
  5904  003710  C584  F509         	movff	main@whiteMode2,LED_WriteFull@white
  5905  003714  0E2C               	movlw	44
  5906  003716  6E0A               	movwf	LED_WriteFull@ledcount^(0+1280),c
  5907  003718  0E01               	movlw	1
  5908  00371A  6E0B               	movwf	(LED_WriteFull@ledcount+1)^(0+1280),c
  5909  00371C  0E00               	movlw	0
  5910  00371E  6E0C               	movwf	(LED_WriteFull@ledcount+2)^(0+1280),c
  5911  003720  517B               	movf	main@redMode2& (0+255),w,b
  5912  003722  EC69  F01E         	call	_LED_WriteFull
  5913  003726                     
  5914                           ;main.c: 971:                     state = T2;
  5915  003726  0E02               	movlw	2
  5916  003728  0105               	movlb	5	; () banked
  5917  00372A  6F93               	movwf	main@state& (0+255),b
  5918  00372C                     
  5919                           ; BSR set to: 5
  5920                           ;main.c: 972:                     DATAEE_WriteByte(36, state);
  5921  00372C  0E00               	movlw	0
  5922  00372E  6E02               	movwf	(DATAEE_WriteByte@bAdd+1)^(0+1280),c
  5923  003730  0E24               	movlw	36
  5924  003732  6E01               	movwf	DATAEE_WriteByte@bAdd^(0+1280),c
  5925  003734  C593  F503         	movff	main@state,DATAEE_WriteByte@bData
  5926  003738  EC40  F01E         	call	_DATAEE_WriteByte	;wreg free
  5927  00373C                     
  5928                           ;main.c: 973:                     DATAEE_WriteByte(2, 69);
  5929  00373C  0E00               	movlw	0
  5930  00373E  6E02               	movwf	(DATAEE_WriteByte@bAdd+1)^(0+1280),c
  5931  003740  0E02               	movlw	2
  5932  003742  6E01               	movwf	DATAEE_WriteByte@bAdd^(0+1280),c
  5933  003744  0E45               	movlw	69
  5934  003746  6E03               	movwf	DATAEE_WriteByte@bData^(0+1280),c
  5935  003748  EC40  F01E         	call	_DATAEE_WriteByte	;wreg free
  5936  00374C                     l4109:
  5937                           
  5938                           ;main.c: 977:                 if(!PORTCbits.RC4 && taster3Flag)
  5939  00374C  B8D0               	btfsc	208,4,c	;volatile
  5940  00374E  EFAB  F01B         	goto	u5081
  5941  003752  EFAD  F01B         	goto	u5080
  5942  003756                     u5081:
  5943  003756  EFD9  F00C         	goto	l3303
  5944  00375A                     u5080:
  5945  00375A  0105               	movlb	5	; () banked
  5946  00375C  517A               	movf	main@taster3Flag& (0+255),w,b
  5947  00375E  B4D8               	btfsc	status,2,c
  5948  003760  EFB4  F01B         	goto	u5091
  5949  003764  EFB6  F01B         	goto	u5090
  5950  003768                     u5091:
  5951  003768  EFD9  F00C         	goto	l3303
  5952  00376C                     u5090:
  5953  00376C                     
  5954                           ; BSR set to: 5
  5955                           ;main.c: 978:                 {;main.c: 979:                     LATCbits.LATC3 = 0;
  5956  00376C  96C0               	bcf	192,3,c	;volatile
  5957                           
  5958                           ;main.c: 980:                     LATAbits.LATA5 = 1;
  5959  00376E  8ABE               	bsf	190,5,c	;volatile
  5960  003770                     
  5961                           ; BSR set to: 5
  5962                           ;main.c: 981:                     LED_WriteFull(redMode3, greenMode3, blueMode3, whiteMo
      +                          de3, 300);
  5963  003770  C57F  F507         	movff	main@greenMode3,LED_WriteFull@green
  5964  003774  C580  F508         	movff	main@blueMode3,LED_WriteFull@blue
  5965  003778  C585  F509         	movff	main@whiteMode3,LED_WriteFull@white
  5966  00377C  0E2C               	movlw	44
  5967  00377E  6E0A               	movwf	LED_WriteFull@ledcount^(0+1280),c
  5968  003780  0E01               	movlw	1
  5969  003782  6E0B               	movwf	(LED_WriteFull@ledcount+1)^(0+1280),c
  5970  003784  0E00               	movlw	0
  5971  003786  6E0C               	movwf	(LED_WriteFull@ledcount+2)^(0+1280),c
  5972  003788  517E               	movf	main@redMode3& (0+255),w,b
  5973  00378A  EC69  F01E         	call	_LED_WriteFull
  5974  00378E                     
  5975                           ;main.c: 982:                     state = T3 ;
  5976  00378E  0E03               	movlw	3
  5977  003790  0105               	movlb	5	; () banked
  5978  003792  6F93               	movwf	main@state& (0+255),b
  5979  003794  EF21  F011         	goto	l3557
  5980  003798                     l4125:
  5981  003798  0105               	movlb	5	; () banked
  5982  00379A  5193               	movf	main@state& (0+255),w,b
  5983  00379C  6E2F               	movwf	??_main^(0+1280),c
  5984  00379E  6A30               	clrf	(??_main+1)^(0+1280),c
  5985                           
  5986                           ; Switch on 2 bytes has been partitioned into a top level switch of size 1, and 1 sub-sw
      +                          itches
  5987                           ; Switch size 1, requested type "simple"
  5988                           ; Number of cases is 1, Range of values is 0 to 0
  5989                           ; switch strategies available:
  5990                           ; Name         Instructions Cycles
  5991                           ; simple_byte            4     3 (average)
  5992                           ;	Chosen strategy is simple_byte
  5993  0037A0  5030               	movf	(??_main+1)^(0+1280),w,c
  5994  0037A2  0A00               	xorlw	0	; case 0
  5995  0037A4  B4D8               	btfsc	status,2,c
  5996  0037A6  EFD7  F01B         	goto	l4163
  5997  0037AA  EFD9  F00C         	goto	l3303
  5998  0037AE                     l4163:
  5999                           
  6000                           ; BSR set to: 5
  6001                           ; Switch size 1, requested type "simple"
  6002                           ; Number of cases is 13, Range of values is 0 to 12
  6003                           ; switch strategies available:
  6004                           ; Name         Instructions Cycles
  6005                           ; simple_byte           40    21 (average)
  6006                           ;	Chosen strategy is simple_byte
  6007  0037AE  502F               	movf	??_main^(0+1280),w,c
  6008  0037B0  0A00               	xorlw	0	; case 0
  6009  0037B2  B4D8               	btfsc	status,2,c
  6010  0037B4  EFAE  F00D         	goto	l3329
  6011  0037B8  0A01               	xorlw	1	; case 1
  6012  0037BA  B4D8               	btfsc	status,2,c
  6013  0037BC  EFEB  F012         	goto	l3677
  6014  0037C0  0A03               	xorlw	3	; case 2
  6015  0037C2  B4D8               	btfsc	status,2,c
  6016  0037C4  EF23  F015         	goto	l3789
  6017  0037C8  0A01               	xorlw	1	; case 3
  6018  0037CA  B4D8               	btfsc	status,2,c
  6019  0037CC  EF58  F017         	goto	l3901
  6020  0037D0  0A07               	xorlw	7	; case 4
  6021  0037D2  B4D8               	btfsc	status,2,c
  6022  0037D4  EFA2  F019         	goto	l4015
  6023  0037D8  0A01               	xorlw	1	; case 5
  6024  0037DA  B4D8               	btfsc	status,2,c
  6025  0037DC  EFDB  F010         	goto	l593
  6026  0037E0  0A03               	xorlw	3	; case 6
  6027  0037E2  B4D8               	btfsc	status,2,c
  6028  0037E4  EF33  F011         	goto	l596
  6029  0037E8  0A01               	xorlw	1	; case 7
  6030  0037EA  B4D8               	btfsc	status,2,c
  6031  0037EC  EF7B  F011         	goto	l599
  6032  0037F0  0A0F               	xorlw	15	; case 8
  6033  0037F2  B4D8               	btfsc	status,2,c
  6034  0037F4  EFC3  F011         	goto	l602
  6035  0037F8  0A01               	xorlw	1	; case 9
  6036  0037FA  B4D8               	btfsc	status,2,c
  6037  0037FC  EF0B  F012         	goto	l605
  6038  003800  0A03               	xorlw	3	; case 10
  6039  003802  B4D8               	btfsc	status,2,c
  6040  003804  EF43  F012         	goto	l608
  6041  003808  0A01               	xorlw	1	; case 11
  6042  00380A  B4D8               	btfsc	status,2,c
  6043  00380C  EF7B  F012         	goto	l611
  6044  003810  0A07               	xorlw	7	; case 12
  6045  003812  B4D8               	btfsc	status,2,c
  6046  003814  EFB3  F012         	goto	l614
  6047  003818  EFD9  F00C         	goto	l3303
  6048  00381C  EF0D  F000         	goto	start
  6049  003820                     __end_of_main:
  6050                           	callstack 0
  6051                           
  6052 ;; *************** function _map *****************
  6053 ;; Defined at:
  6054 ;;		line 11 in file "DivFunctions.c"
  6055 ;; Parameters:    Size  Location     Type
  6056 ;;  x               4   26[COMRAM] long 
  6057 ;;  in_min          4   30[COMRAM] long 
  6058 ;;  in_max          4   34[COMRAM] long 
  6059 ;;  out_min         4   38[COMRAM] long 
  6060 ;;  out_max         4   42[COMRAM] long 
  6061 ;; Auto vars:     Size  Location     Type
  6062 ;;		None
  6063 ;; Return value:  Size  Location     Type
  6064 ;;                  4   26[COMRAM] long 
  6065 ;; Registers used:
  6066 ;;		wreg, status,2, status,0, cstack
  6067 ;; Tracked objects:
  6068 ;;		On entry : 0/0
  6069 ;;		On exit  : 0/0
  6070 ;;		Unchanged: 0/0
  6071 ;; Data sizes:     COMRAM   BANK5   BANK6   BANK7   BANK8   BANK9  BANK10  BANK11  BANK12  BANK13  BANK14  BANK15  BANK1
      +6  BANK17  BANK18  BANK19  BANK20  BANK21
  6072 ;;      Params:        20       0       0       0       0       0       0       0       0       0       0       0       
      +0       0       0       0       0       0
  6073 ;;      Locals:         0       0       0       0       0       0       0       0       0       0       0       0       
      +0       0       0       0       0       0
  6074 ;;      Temps:          0       0       0       0       0       0       0       0       0       0       0       0       
      +0       0       0       0       0       0
  6075 ;;      Totals:        20       0       0       0       0       0       0       0       0       0       0       0       
      +0       0       0       0       0       0
  6076 ;;Total ram usage:       20 bytes
  6077 ;; Hardware stack levels used:    1
  6078 ;; Hardware stack levels required when called:    5
  6079 ;; This function calls:
  6080 ;;		___aldiv
  6081 ;;		___lmul
  6082 ;; This function is called by:
  6083 ;;		_main
  6084 ;; This function uses a non-reentrant model
  6085 ;;
  6086                           
  6087                           	psect	text1
  6088  003ADA                     __ptext1:
  6089                           	callstack 0
  6090  003ADA                     _map:
  6091                           	callstack 122
  6092  003ADA                     
  6093                           ;DivFunctions.c: 12:   return (x - in_min) * (out_max - out_min) / (in_max - in_min) + o
      +                          ut_min;
  6094  003ADA  501F               	movf	map@in_min^(0+1280),w,c
  6095  003ADC  5C1B               	subwf	map@x^(0+1280),w,c
  6096  003ADE  6E01               	movwf	___lmul@multiplier^(0+1280),c
  6097  003AE0  5020               	movf	(map@in_min+1)^(0+1280),w,c
  6098  003AE2  581C               	subwfb	(map@x+1)^(0+1280),w,c
  6099  003AE4  6E02               	movwf	(___lmul@multiplier+1)^(0+1280),c
  6100  003AE6  5021               	movf	(map@in_min+2)^(0+1280),w,c
  6101  003AE8  581D               	subwfb	(map@x+2)^(0+1280),w,c
  6102  003AEA  6E03               	movwf	(___lmul@multiplier+2)^(0+1280),c
  6103  003AEC  5022               	movf	(map@in_min+3)^(0+1280),w,c
  6104  003AEE  581E               	subwfb	(map@x+3)^(0+1280),w,c
  6105  003AF0  6E04               	movwf	(___lmul@multiplier+3)^(0+1280),c
  6106  003AF2  5027               	movf	map@out_min^(0+1280),w,c
  6107  003AF4  5C2B               	subwf	map@out_max^(0+1280),w,c
  6108  003AF6  6E05               	movwf	___lmul@multiplicand^(0+1280),c
  6109  003AF8  5028               	movf	(map@out_min+1)^(0+1280),w,c
  6110  003AFA  582C               	subwfb	(map@out_max+1)^(0+1280),w,c
  6111  003AFC  6E06               	movwf	(___lmul@multiplicand+1)^(0+1280),c
  6112  003AFE  5029               	movf	(map@out_min+2)^(0+1280),w,c
  6113  003B00  582D               	subwfb	(map@out_max+2)^(0+1280),w,c
  6114  003B02  6E07               	movwf	(___lmul@multiplicand+2)^(0+1280),c
  6115  003B04  502A               	movf	(map@out_min+3)^(0+1280),w,c
  6116  003B06  582E               	subwfb	(map@out_max+3)^(0+1280),w,c
  6117  003B08  6E08               	movwf	(___lmul@multiplicand+3)^(0+1280),c
  6118  003B0A  ECAA  F01D         	call	___lmul	;wreg free
  6119  003B0E  C501  F50D         	movff	?___lmul,___aldiv@dividend
  6120  003B12  C502  F50E         	movff	?___lmul+1,___aldiv@dividend+1
  6121  003B16  C503  F50F         	movff	?___lmul+2,___aldiv@dividend+2
  6122  003B1A  C504  F510         	movff	?___lmul+3,___aldiv@dividend+3
  6123  003B1E  501F               	movf	map@in_min^(0+1280),w,c
  6124  003B20  5C23               	subwf	map@in_max^(0+1280),w,c
  6125  003B22  6E11               	movwf	___aldiv@divisor^(0+1280),c
  6126  003B24  5020               	movf	(map@in_min+1)^(0+1280),w,c
  6127  003B26  5824               	subwfb	(map@in_max+1)^(0+1280),w,c
  6128  003B28  6E12               	movwf	(___aldiv@divisor+1)^(0+1280),c
  6129  003B2A  5021               	movf	(map@in_min+2)^(0+1280),w,c
  6130  003B2C  5825               	subwfb	(map@in_max+2)^(0+1280),w,c
  6131  003B2E  6E13               	movwf	(___aldiv@divisor+2)^(0+1280),c
  6132  003B30  5022               	movf	(map@in_min+3)^(0+1280),w,c
  6133  003B32  5826               	subwfb	(map@in_max+3)^(0+1280),w,c
  6134  003B34  6E14               	movwf	(___aldiv@divisor+3)^(0+1280),c
  6135  003B36  EC10  F01C         	call	___aldiv	;wreg free
  6136  003B3A  5027               	movf	map@out_min^(0+1280),w,c
  6137  003B3C  240D               	addwf	?___aldiv^(0+1280),w,c
  6138  003B3E  6E1B               	movwf	?_map^(0+1280),c
  6139  003B40  5028               	movf	(map@out_min+1)^(0+1280),w,c
  6140  003B42  200E               	addwfc	(?___aldiv+1)^(0+1280),w,c
  6141  003B44  6E1C               	movwf	(?_map+1)^(0+1280),c
  6142  003B46  5029               	movf	(map@out_min+2)^(0+1280),w,c
  6143  003B48  200F               	addwfc	(?___aldiv+2)^(0+1280),w,c
  6144  003B4A  6E1D               	movwf	(?_map+2)^(0+1280),c
  6145  003B4C  502A               	movf	(map@out_min+3)^(0+1280),w,c
  6146  003B4E  2010               	addwfc	(?___aldiv+3)^(0+1280),w,c
  6147  003B50  6E1E               	movwf	(?_map+3)^(0+1280),c
  6148  003B52  0012               	return		;funcret
  6149  003B54                     __end_of_map:
  6150                           	callstack 0
  6151                           
  6152 ;; *************** function ___lmul *****************
  6153 ;; Defined at:
  6154 ;;		line 15 in file "C:\Program Files\Microchip\xc8\v2.31\pic\sources\c99\common\Umul32.c"
  6155 ;; Parameters:    Size  Location     Type
  6156 ;;  multiplier      4    0[COMRAM] unsigned long 
  6157 ;;  multiplicand    4    4[COMRAM] unsigned long 
  6158 ;; Auto vars:     Size  Location     Type
  6159 ;;  product         4    8[COMRAM] unsigned long 
  6160 ;; Return value:  Size  Location     Type
  6161 ;;                  4    0[COMRAM] unsigned long 
  6162 ;; Registers used:
  6163 ;;		wreg, status,2, status,0
  6164 ;; Tracked objects:
  6165 ;;		On entry : 0/0
  6166 ;;		On exit  : 0/0
  6167 ;;		Unchanged: 0/0
  6168 ;; Data sizes:     COMRAM   BANK5   BANK6   BANK7   BANK8   BANK9  BANK10  BANK11  BANK12  BANK13  BANK14  BANK15  BANK1
      +6  BANK17  BANK18  BANK19  BANK20  BANK21
  6169 ;;      Params:         8       0       0       0       0       0       0       0       0       0       0       0       
      +0       0       0       0       0       0
  6170 ;;      Locals:         4       0       0       0       0       0       0       0       0       0       0       0       
      +0       0       0       0       0       0
  6171 ;;      Temps:          0       0       0       0       0       0       0       0       0       0       0       0       
      +0       0       0       0       0       0
  6172 ;;      Totals:        12       0       0       0       0       0       0       0       0       0       0       0       
      +0       0       0       0       0       0
  6173 ;;Total ram usage:       12 bytes
  6174 ;; Hardware stack levels used:    1
  6175 ;; Hardware stack levels required when called:    4
  6176 ;; This function calls:
  6177 ;;		Nothing
  6178 ;; This function is called by:
  6179 ;;		_map
  6180 ;; This function uses a non-reentrant model
  6181 ;;
  6182                           
  6183                           	psect	text2
  6184  003B54                     __ptext2:
  6185                           	callstack 0
  6186  003B54                     ___lmul:
  6187                           	callstack 122
  6188  003B54  0E00               	movlw	0
  6189  003B56  6E09               	movwf	___lmul@product^(0+1280),c
  6190  003B58  0E00               	movlw	0
  6191  003B5A  6E0A               	movwf	(___lmul@product+1)^(0+1280),c
  6192  003B5C  0E00               	movlw	0
  6193  003B5E  6E0B               	movwf	(___lmul@product+2)^(0+1280),c
  6194  003B60  0E00               	movlw	0
  6195  003B62  6E0C               	movwf	(___lmul@product+3)^(0+1280),c
  6196  003B64                     l3003:
  6197  003B64  A001               	btfss	___lmul@multiplier^(0+1280),0,c
  6198  003B66  EFB7  F01D         	goto	u2721
  6199  003B6A  EFB9  F01D         	goto	u2720
  6200  003B6E                     u2721:
  6201  003B6E  EFC1  F01D         	goto	l3007
  6202  003B72                     u2720:
  6203  003B72  5005               	movf	___lmul@multiplicand^(0+1280),w,c
  6204  003B74  2609               	addwf	___lmul@product^(0+1280),f,c
  6205  003B76  5006               	movf	(___lmul@multiplicand+1)^(0+1280),w,c
  6206  003B78  220A               	addwfc	(___lmul@product+1)^(0+1280),f,c
  6207  003B7A  5007               	movf	(___lmul@multiplicand+2)^(0+1280),w,c
  6208  003B7C  220B               	addwfc	(___lmul@product+2)^(0+1280),f,c
  6209  003B7E  5008               	movf	(___lmul@multiplicand+3)^(0+1280),w,c
  6210  003B80  220C               	addwfc	(___lmul@product+3)^(0+1280),f,c
  6211  003B82                     l3007:
  6212  003B82  90D8               	bcf	status,0,c
  6213  003B84  3605               	rlcf	___lmul@multiplicand^(0+1280),f,c
  6214  003B86  3606               	rlcf	(___lmul@multiplicand+1)^(0+1280),f,c
  6215  003B88  3607               	rlcf	(___lmul@multiplicand+2)^(0+1280),f,c
  6216  003B8A  3608               	rlcf	(___lmul@multiplicand+3)^(0+1280),f,c
  6217  003B8C  90D8               	bcf	status,0,c
  6218  003B8E  3204               	rrcf	(___lmul@multiplier+3)^(0+1280),f,c
  6219  003B90  3203               	rrcf	(___lmul@multiplier+2)^(0+1280),f,c
  6220  003B92  3202               	rrcf	(___lmul@multiplier+1)^(0+1280),f,c
  6221  003B94  3201               	rrcf	___lmul@multiplier^(0+1280),f,c
  6222  003B96  5001               	movf	___lmul@multiplier^(0+1280),w,c
  6223  003B98  1002               	iorwf	(___lmul@multiplier+1)^(0+1280),w,c
  6224  003B9A  1003               	iorwf	(___lmul@multiplier+2)^(0+1280),w,c
  6225  003B9C  1004               	iorwf	(___lmul@multiplier+3)^(0+1280),w,c
  6226  003B9E  A4D8               	btfss	status,2,c
  6227  003BA0  EFD4  F01D         	goto	u2731
  6228  003BA4  EFD6  F01D         	goto	u2730
  6229  003BA8                     u2731:
  6230  003BA8  EFB2  F01D         	goto	l3003
  6231  003BAC                     u2730:
  6232  003BAC  C509  F501         	movff	___lmul@product,?___lmul
  6233  003BB0  C50A  F502         	movff	___lmul@product+1,?___lmul+1
  6234  003BB4  C50B  F503         	movff	___lmul@product+2,?___lmul+2
  6235  003BB8  C50C  F504         	movff	___lmul@product+3,?___lmul+3
  6236  003BBC  0012               	return		;funcret
  6237  003BBE                     __end_of___lmul:
  6238                           	callstack 0
  6239                           
  6240 ;; *************** function ___aldiv *****************
  6241 ;; Defined at:
  6242 ;;		line 7 in file "C:\Program Files\Microchip\xc8\v2.31\pic\sources\c99\common\aldiv.c"
  6243 ;; Parameters:    Size  Location     Type
  6244 ;;  dividend        4   12[COMRAM] long 
  6245 ;;  divisor         4   16[COMRAM] long 
  6246 ;; Auto vars:     Size  Location     Type
  6247 ;;  quotient        4   22[COMRAM] long 
  6248 ;;  sign            1   21[COMRAM] unsigned char 
  6249 ;;  counter         1   20[COMRAM] unsigned char 
  6250 ;; Return value:  Size  Location     Type
  6251 ;;                  4   12[COMRAM] long 
  6252 ;; Registers used:
  6253 ;;		wreg, status,2, status,0
  6254 ;; Tracked objects:
  6255 ;;		On entry : 0/0
  6256 ;;		On exit  : 0/0
  6257 ;;		Unchanged: 0/0
  6258 ;; Data sizes:     COMRAM   BANK5   BANK6   BANK7   BANK8   BANK9  BANK10  BANK11  BANK12  BANK13  BANK14  BANK15  BANK1
      +6  BANK17  BANK18  BANK19  BANK20  BANK21
  6259 ;;      Params:         8       0       0       0       0       0       0       0       0       0       0       0       
      +0       0       0       0       0       0
  6260 ;;      Locals:         6       0       0       0       0       0       0       0       0       0       0       0       
      +0       0       0       0       0       0
  6261 ;;      Temps:          0       0       0       0       0       0       0       0       0       0       0       0       
      +0       0       0       0       0       0
  6262 ;;      Totals:        14       0       0       0       0       0       0       0       0       0       0       0       
      +0       0       0       0       0       0
  6263 ;;Total ram usage:       14 bytes
  6264 ;; Hardware stack levels used:    1
  6265 ;; Hardware stack levels required when called:    4
  6266 ;; This function calls:
  6267 ;;		Nothing
  6268 ;; This function is called by:
  6269 ;;		_map
  6270 ;; This function uses a non-reentrant model
  6271 ;;
  6272                           
  6273                           	psect	text3
  6274  003820                     __ptext3:
  6275                           	callstack 0
  6276  003820                     ___aldiv:
  6277                           	callstack 122
  6278  003820  0E00               	movlw	0
  6279  003822  6E16               	movwf	___aldiv@sign^(0+1280),c
  6280  003824  BE14               	btfsc	(___aldiv@divisor+3)^(0+1280),7,c
  6281  003826  EF19  F01C         	goto	u2740
  6282  00382A  EF17  F01C         	goto	u2741
  6283  00382E                     u2741:
  6284  00382E  EF23  F01C         	goto	l3019
  6285  003832                     u2740:
  6286  003832  1E14               	comf	(___aldiv@divisor+3)^(0+1280),f,c
  6287  003834  1E13               	comf	(___aldiv@divisor+2)^(0+1280),f,c
  6288  003836  1E12               	comf	(___aldiv@divisor+1)^(0+1280),f,c
  6289  003838  6C11               	negf	___aldiv@divisor^(0+1280),c
  6290  00383A  0E00               	movlw	0
  6291  00383C  2212               	addwfc	(___aldiv@divisor+1)^(0+1280),f,c
  6292  00383E  2213               	addwfc	(___aldiv@divisor+2)^(0+1280),f,c
  6293  003840  2214               	addwfc	(___aldiv@divisor+3)^(0+1280),f,c
  6294  003842  0E01               	movlw	1
  6295  003844  6E16               	movwf	___aldiv@sign^(0+1280),c
  6296  003846                     l3019:
  6297  003846  BE10               	btfsc	(___aldiv@dividend+3)^(0+1280),7,c
  6298  003848  EF2A  F01C         	goto	u2750
  6299  00384C  EF28  F01C         	goto	u2751
  6300  003850                     u2751:
  6301  003850  EF34  F01C         	goto	l3025
  6302  003854                     u2750:
  6303  003854  1E10               	comf	(___aldiv@dividend+3)^(0+1280),f,c
  6304  003856  1E0F               	comf	(___aldiv@dividend+2)^(0+1280),f,c
  6305  003858  1E0E               	comf	(___aldiv@dividend+1)^(0+1280),f,c
  6306  00385A  6C0D               	negf	___aldiv@dividend^(0+1280),c
  6307  00385C  0E00               	movlw	0
  6308  00385E  220E               	addwfc	(___aldiv@dividend+1)^(0+1280),f,c
  6309  003860  220F               	addwfc	(___aldiv@dividend+2)^(0+1280),f,c
  6310  003862  2210               	addwfc	(___aldiv@dividend+3)^(0+1280),f,c
  6311  003864  0E01               	movlw	1
  6312  003866  1A16               	xorwf	___aldiv@sign^(0+1280),f,c
  6313  003868                     l3025:
  6314  003868  0E00               	movlw	0
  6315  00386A  6E17               	movwf	___aldiv@quotient^(0+1280),c
  6316  00386C  0E00               	movlw	0
  6317  00386E  6E18               	movwf	(___aldiv@quotient+1)^(0+1280),c
  6318  003870  0E00               	movlw	0
  6319  003872  6E19               	movwf	(___aldiv@quotient+2)^(0+1280),c
  6320  003874  0E00               	movlw	0
  6321  003876  6E1A               	movwf	(___aldiv@quotient+3)^(0+1280),c
  6322  003878  5011               	movf	___aldiv@divisor^(0+1280),w,c
  6323  00387A  1012               	iorwf	(___aldiv@divisor+1)^(0+1280),w,c
  6324  00387C  1013               	iorwf	(___aldiv@divisor+2)^(0+1280),w,c
  6325  00387E  1014               	iorwf	(___aldiv@divisor+3)^(0+1280),w,c
  6326  003880  B4D8               	btfsc	status,2,c
  6327  003882  EF45  F01C         	goto	u2761
  6328  003886  EF47  F01C         	goto	u2760
  6329  00388A                     u2761:
  6330  00388A  EF7D  F01C         	goto	l3047
  6331  00388E                     u2760:
  6332  00388E  0E01               	movlw	1
  6333  003890  6E15               	movwf	___aldiv@counter^(0+1280),c
  6334  003892  EF51  F01C         	goto	l3033
  6335  003896                     l3031:
  6336  003896  90D8               	bcf	status,0,c
  6337  003898  3611               	rlcf	___aldiv@divisor^(0+1280),f,c
  6338  00389A  3612               	rlcf	(___aldiv@divisor+1)^(0+1280),f,c
  6339  00389C  3613               	rlcf	(___aldiv@divisor+2)^(0+1280),f,c
  6340  00389E  3614               	rlcf	(___aldiv@divisor+3)^(0+1280),f,c
  6341  0038A0  2A15               	incf	___aldiv@counter^(0+1280),f,c
  6342  0038A2                     l3033:
  6343  0038A2  AE14               	btfss	(___aldiv@divisor+3)^(0+1280),7,c
  6344  0038A4  EF56  F01C         	goto	u2771
  6345  0038A8  EF58  F01C         	goto	u2770
  6346  0038AC                     u2771:
  6347  0038AC  EF4B  F01C         	goto	l3031
  6348  0038B0                     u2770:
  6349  0038B0                     l3035:
  6350  0038B0  90D8               	bcf	status,0,c
  6351  0038B2  3617               	rlcf	___aldiv@quotient^(0+1280),f,c
  6352  0038B4  3618               	rlcf	(___aldiv@quotient+1)^(0+1280),f,c
  6353  0038B6  3619               	rlcf	(___aldiv@quotient+2)^(0+1280),f,c
  6354  0038B8  361A               	rlcf	(___aldiv@quotient+3)^(0+1280),f,c
  6355  0038BA  5011               	movf	___aldiv@divisor^(0+1280),w,c
  6356  0038BC  5C0D               	subwf	___aldiv@dividend^(0+1280),w,c
  6357  0038BE  5012               	movf	(___aldiv@divisor+1)^(0+1280),w,c
  6358  0038C0  580E               	subwfb	(___aldiv@dividend+1)^(0+1280),w,c
  6359  0038C2  5013               	movf	(___aldiv@divisor+2)^(0+1280),w,c
  6360  0038C4  580F               	subwfb	(___aldiv@dividend+2)^(0+1280),w,c
  6361  0038C6  5014               	movf	(___aldiv@divisor+3)^(0+1280),w,c
  6362  0038C8  5810               	subwfb	(___aldiv@dividend+3)^(0+1280),w,c
  6363  0038CA  A0D8               	btfss	status,0,c
  6364  0038CC  EF6A  F01C         	goto	u2781
  6365  0038D0  EF6C  F01C         	goto	u2780
  6366  0038D4                     u2781:
  6367  0038D4  EF75  F01C         	goto	l3043
  6368  0038D8                     u2780:
  6369  0038D8  5011               	movf	___aldiv@divisor^(0+1280),w,c
  6370  0038DA  5E0D               	subwf	___aldiv@dividend^(0+1280),f,c
  6371  0038DC  5012               	movf	(___aldiv@divisor+1)^(0+1280),w,c
  6372  0038DE  5A0E               	subwfb	(___aldiv@dividend+1)^(0+1280),f,c
  6373  0038E0  5013               	movf	(___aldiv@divisor+2)^(0+1280),w,c
  6374  0038E2  5A0F               	subwfb	(___aldiv@dividend+2)^(0+1280),f,c
  6375  0038E4  5014               	movf	(___aldiv@divisor+3)^(0+1280),w,c
  6376  0038E6  5A10               	subwfb	(___aldiv@dividend+3)^(0+1280),f,c
  6377  0038E8  8017               	bsf	___aldiv@quotient^(0+1280),0,c
  6378  0038EA                     l3043:
  6379  0038EA  90D8               	bcf	status,0,c
  6380  0038EC  3214               	rrcf	(___aldiv@divisor+3)^(0+1280),f,c
  6381  0038EE  3213               	rrcf	(___aldiv@divisor+2)^(0+1280),f,c
  6382  0038F0  3212               	rrcf	(___aldiv@divisor+1)^(0+1280),f,c
  6383  0038F2  3211               	rrcf	___aldiv@divisor^(0+1280),f,c
  6384  0038F4  2E15               	decfsz	___aldiv@counter^(0+1280),f,c
  6385  0038F6  EF58  F01C         	goto	l3035
  6386  0038FA                     l3047:
  6387  0038FA  5016               	movf	___aldiv@sign^(0+1280),w,c
  6388  0038FC  B4D8               	btfsc	status,2,c
  6389  0038FE  EF83  F01C         	goto	u2791
  6390  003902  EF85  F01C         	goto	u2790
  6391  003906                     u2791:
  6392  003906  EF8D  F01C         	goto	l3051
  6393  00390A                     u2790:
  6394  00390A  1E1A               	comf	(___aldiv@quotient+3)^(0+1280),f,c
  6395  00390C  1E19               	comf	(___aldiv@quotient+2)^(0+1280),f,c
  6396  00390E  1E18               	comf	(___aldiv@quotient+1)^(0+1280),f,c
  6397  003910  6C17               	negf	___aldiv@quotient^(0+1280),c
  6398  003912  0E00               	movlw	0
  6399  003914  2218               	addwfc	(___aldiv@quotient+1)^(0+1280),f,c
  6400  003916  2219               	addwfc	(___aldiv@quotient+2)^(0+1280),f,c
  6401  003918  221A               	addwfc	(___aldiv@quotient+3)^(0+1280),f,c
  6402  00391A                     l3051:
  6403  00391A  C517  F50D         	movff	___aldiv@quotient,?___aldiv
  6404  00391E  C518  F50E         	movff	___aldiv@quotient+1,?___aldiv+1
  6405  003922  C519  F50F         	movff	___aldiv@quotient+2,?___aldiv+2
  6406  003926  C51A  F510         	movff	___aldiv@quotient+3,?___aldiv+3
  6407  00392A  0012               	return		;funcret
  6408  00392C                     __end_of___aldiv:
  6409                           	callstack 0
  6410                           
  6411 ;; *************** function _SYSTEM_Initialize *****************
  6412 ;; Defined at:
  6413 ;;		line 50 in file "mcc_generated_files/mcc.c"
  6414 ;; Parameters:    Size  Location     Type
  6415 ;;		None
  6416 ;; Auto vars:     Size  Location     Type
  6417 ;;		None
  6418 ;; Return value:  Size  Location     Type
  6419 ;;                  1    wreg      void 
  6420 ;; Registers used:
  6421 ;;		wreg, status,2, status,0, cstack
  6422 ;; Tracked objects:
  6423 ;;		On entry : 0/0
  6424 ;;		On exit  : 0/0
  6425 ;;		Unchanged: 0/0
  6426 ;; Data sizes:     COMRAM   BANK5   BANK6   BANK7   BANK8   BANK9  BANK10  BANK11  BANK12  BANK13  BANK14  BANK15  BANK1
      +6  BANK17  BANK18  BANK19  BANK20  BANK21
  6427 ;;      Params:         0       0       0       0       0       0       0       0       0       0       0       0       
      +0       0       0       0       0       0
  6428 ;;      Locals:         0       0       0       0       0       0       0       0       0       0       0       0       
      +0       0       0       0       0       0
  6429 ;;      Temps:          0       0       0       0       0       0       0       0       0       0       0       0       
      +0       0       0       0       0       0
  6430 ;;      Totals:         0       0       0       0       0       0       0       0       0       0       0       0       
      +0       0       0       0       0       0
  6431 ;;Total ram usage:        0 bytes
  6432 ;; Hardware stack levels used:    1
  6433 ;; Hardware stack levels required when called:    6
  6434 ;; This function calls:
  6435 ;;		_ADCC_Initialize
  6436 ;;		_INTERRUPT_Initialize
  6437 ;;		_OSCILLATOR_Initialize
  6438 ;;		_PIN_MANAGER_Initialize
  6439 ;;		_PMD_Initialize
  6440 ;;		_SPI1_Initialize
  6441 ;;		_TMR2_Initialize
  6442 ;; This function is called by:
  6443 ;;		_main
  6444 ;; This function uses a non-reentrant model
  6445 ;;
  6446                           
  6447                           	psect	text4
  6448  003E0E                     __ptext4:
  6449                           	callstack 0
  6450  003E0E                     _SYSTEM_Initialize:
  6451                           	callstack 121
  6452  003E0E                     
  6453                           ;mcc_generated_files/mcc.c: 52:     INTERRUPT_Initialize();
  6454  003E0E  EC91  F01F         	call	_INTERRUPT_Initialize	;wreg free
  6455  003E12                     
  6456                           ;mcc_generated_files/mcc.c: 53:     PMD_Initialize();
  6457  003E12  EC33  F01F         	call	_PMD_Initialize	;wreg free
  6458  003E16                     
  6459                           ;mcc_generated_files/mcc.c: 54:     PIN_MANAGER_Initialize();
  6460  003E16  ECDF  F01D         	call	_PIN_MANAGER_Initialize	;wreg free
  6461  003E1A                     
  6462                           ;mcc_generated_files/mcc.c: 55:     OSCILLATOR_Initialize();
  6463  003E1A  EC41  F01F         	call	_OSCILLATOR_Initialize	;wreg free
  6464  003E1E                     
  6465                           ;mcc_generated_files/mcc.c: 56:     ADCC_Initialize();
  6466  003E1E  EC12  F01E         	call	_ADCC_Initialize	;wreg free
  6467  003E22                     
  6468                           ;mcc_generated_files/mcc.c: 57:     TMR2_Initialize();
  6469  003E22  ECA8  F01E         	call	_TMR2_Initialize	;wreg free
  6470  003E26                     
  6471                           ;mcc_generated_files/mcc.c: 58:     SPI1_Initialize();
  6472  003E26  EC5D  F01F         	call	_SPI1_Initialize	;wreg free
  6473  003E2A  0012               	return		;funcret
  6474  003E2C                     __end_of_SYSTEM_Initialize:
  6475                           	callstack 0
  6476                           
  6477 ;; *************** function _TMR2_Initialize *****************
  6478 ;; Defined at:
  6479 ;;		line 64 in file "mcc_generated_files/tmr2.c"
  6480 ;; Parameters:    Size  Location     Type
  6481 ;;		None
  6482 ;; Auto vars:     Size  Location     Type
  6483 ;;		None
  6484 ;; Return value:  Size  Location     Type
  6485 ;;                  1    wreg      void 
  6486 ;; Registers used:
  6487 ;;		wreg, status,2, status,0, cstack
  6488 ;; Tracked objects:
  6489 ;;		On entry : 0/0
  6490 ;;		On exit  : 0/0
  6491 ;;		Unchanged: 0/0
  6492 ;; Data sizes:     COMRAM   BANK5   BANK6   BANK7   BANK8   BANK9  BANK10  BANK11  BANK12  BANK13  BANK14  BANK15  BANK1
      +6  BANK17  BANK18  BANK19  BANK20  BANK21
  6493 ;;      Params:         0       0       0       0       0       0       0       0       0       0       0       0       
      +0       0       0       0       0       0
  6494 ;;      Locals:         0       0       0       0       0       0       0       0       0       0       0       0       
      +0       0       0       0       0       0
  6495 ;;      Temps:          0       0       0       0       0       0       0       0       0       0       0       0       
      +0       0       0       0       0       0
  6496 ;;      Totals:         0       0       0       0       0       0       0       0       0       0       0       0       
      +0       0       0       0       0       0
  6497 ;;Total ram usage:        0 bytes
  6498 ;; Hardware stack levels used:    1
  6499 ;; Hardware stack levels required when called:    5
  6500 ;; This function calls:
  6501 ;;		_TMR2_SetInterruptHandler
  6502 ;; This function is called by:
  6503 ;;		_SYSTEM_Initialize
  6504 ;; This function uses a non-reentrant model
  6505 ;;
  6506                           
  6507                           	psect	text5
  6508  003D50                     __ptext5:
  6509                           	callstack 0
  6510  003D50                     _TMR2_Initialize:
  6511                           	callstack 121
  6512  003D50                     
  6513                           ;mcc_generated_files/tmr2.c: 69:     T2CLKCON = 0x03;
  6514  003D50  0E03               	movlw	3
  6515  003D52  0103               	movlb	3	; () banked
  6516  003D54  6F20               	movwf	32,b	;volatile
  6517                           
  6518                           ;mcc_generated_files/tmr2.c: 72:     T2HLT = 0x00;
  6519  003D56  0E00               	movlw	0
  6520  003D58  6F1F               	movwf	31,b	;volatile
  6521                           
  6522                           ;mcc_generated_files/tmr2.c: 75:     T2RST = 0x00;
  6523  003D5A  0E00               	movlw	0
  6524  003D5C  6F21               	movwf	33,b	;volatile
  6525                           
  6526                           ;mcc_generated_files/tmr2.c: 78:     T2PR = 0xF9;
  6527  003D5E  0EF9               	movlw	249
  6528  003D60  6F1D               	movwf	29,b	;volatile
  6529                           
  6530                           ;mcc_generated_files/tmr2.c: 81:     T2TMR = 0x00;
  6531  003D62  0E00               	movlw	0
  6532  003D64  6F1C               	movwf	28,b	;volatile
  6533  003D66                     
  6534                           ; BSR set to: 3
  6535                           ;mcc_generated_files/tmr2.c: 84:     PIR3bits.TMR2IF = 0;
  6536  003D66  96B6               	bcf	182,3,c	;volatile
  6537  003D68                     
  6538                           ; BSR set to: 3
  6539                           ;mcc_generated_files/tmr2.c: 87:     PIE3bits.TMR2IE = 1;
  6540  003D68  86AB               	bsf	171,3,c	;volatile
  6541  003D6A                     
  6542                           ; BSR set to: 3
  6543                           ;mcc_generated_files/tmr2.c: 90:     TMR2_SetInterruptHandler(TMR2_DefaultInterruptHandl
      +                          er);
  6544  003D6A  0E26               	movlw	low _TMR2_DefaultInterruptHandler
  6545  003D6C  6E01               	movwf	TMR2_SetInterruptHandler@InterruptHandler^(0+1280),c
  6546  003D6E  0E3F               	movlw	high _TMR2_DefaultInterruptHandler
  6547  003D70  6E02               	movwf	(TMR2_SetInterruptHandler@InterruptHandler+1)^(0+1280),c
  6548  003D72  EC77  F01F         	call	_TMR2_SetInterruptHandler	;wreg free
  6549  003D76                     
  6550                           ;mcc_generated_files/tmr2.c: 93:     T2CON = 0xF1;
  6551  003D76  0EF1               	movlw	241
  6552  003D78  0103               	movlb	3	; () banked
  6553  003D7A  6F1E               	movwf	30,b	;volatile
  6554  003D7C                     
  6555                           ; BSR set to: 3
  6556  003D7C  0012               	return		;funcret
  6557  003D7E                     __end_of_TMR2_Initialize:
  6558                           	callstack 0
  6559                           
  6560 ;; *************** function _TMR2_SetInterruptHandler *****************
  6561 ;; Defined at:
  6562 ;;		line 186 in file "mcc_generated_files/tmr2.c"
  6563 ;; Parameters:    Size  Location     Type
  6564 ;;  InterruptHan    2    0[COMRAM] PTR FTN()void 
  6565 ;;		 -> LOOPDELAY_TimerISR(1), TMR2_DefaultInterruptHandler(1), 
  6566 ;; Auto vars:     Size  Location     Type
  6567 ;;		None
  6568 ;; Return value:  Size  Location     Type
  6569 ;;                  1    wreg      void 
  6570 ;; Registers used:
  6571 ;;		wreg, status,2, status,0
  6572 ;; Tracked objects:
  6573 ;;		On entry : 0/0
  6574 ;;		On exit  : 0/0
  6575 ;;		Unchanged: 0/0
  6576 ;; Data sizes:     COMRAM   BANK5   BANK6   BANK7   BANK8   BANK9  BANK10  BANK11  BANK12  BANK13  BANK14  BANK15  BANK1
      +6  BANK17  BANK18  BANK19  BANK20  BANK21
  6577 ;;      Params:         2       0       0       0       0       0       0       0       0       0       0       0       
      +0       0       0       0       0       0
  6578 ;;      Locals:         0       0       0       0       0       0       0       0       0       0       0       0       
      +0       0       0       0       0       0
  6579 ;;      Temps:          0       0       0       0       0       0       0       0       0       0       0       0       
      +0       0       0       0       0       0
  6580 ;;      Totals:         2       0       0       0       0       0       0       0       0       0       0       0       
      +0       0       0       0       0       0
  6581 ;;Total ram usage:        2 bytes
  6582 ;; Hardware stack levels used:    1
  6583 ;; Hardware stack levels required when called:    4
  6584 ;; This function calls:
  6585 ;;		Nothing
  6586 ;; This function is called by:
  6587 ;;		_TMR2_Initialize
  6588 ;;		_main
  6589 ;; This function uses a non-reentrant model
  6590 ;;
  6591                           
  6592                           	psect	text6
  6593  003EEE                     __ptext6:
  6594                           	callstack 0
  6595  003EEE                     _TMR2_SetInterruptHandler:
  6596                           	callstack 123
  6597  003EEE                     
  6598                           ;mcc_generated_files/tmr2.c: 187:     TMR2_InterruptHandler = InterruptHandler;
  6599  003EEE  C501  F53A         	movff	TMR2_SetInterruptHandler@InterruptHandler,_TMR2_InterruptHandler
  6600  003EF2  C502  F53B         	movff	TMR2_SetInterruptHandler@InterruptHandler+1,_TMR2_InterruptHandler+1
  6601  003EF6  0012               	return		;funcret
  6602  003EF8                     __end_of_TMR2_SetInterruptHandler:
  6603                           	callstack 0
  6604                           
  6605 ;; *************** function _SPI1_Initialize *****************
  6606 ;; Defined at:
  6607 ;;		line 64 in file "mcc_generated_files/spi1.c"
  6608 ;; Parameters:    Size  Location     Type
  6609 ;;		None
  6610 ;; Auto vars:     Size  Location     Type
  6611 ;;		None
  6612 ;; Return value:  Size  Location     Type
  6613 ;;                  1    wreg      void 
  6614 ;; Registers used:
  6615 ;;		wreg, status,2
  6616 ;; Tracked objects:
  6617 ;;		On entry : 0/0
  6618 ;;		On exit  : 0/0
  6619 ;;		Unchanged: 0/0
  6620 ;; Data sizes:     COMRAM   BANK5   BANK6   BANK7   BANK8   BANK9  BANK10  BANK11  BANK12  BANK13  BANK14  BANK15  BANK1
      +6  BANK17  BANK18  BANK19  BANK20  BANK21
  6621 ;;      Params:         0       0       0       0       0       0       0       0       0       0       0       0       
      +0       0       0       0       0       0
  6622 ;;      Locals:         0       0       0       0       0       0       0       0       0       0       0       0       
      +0       0       0       0       0       0
  6623 ;;      Temps:          0       0       0       0       0       0       0       0       0       0       0       0       
      +0       0       0       0       0       0
  6624 ;;      Totals:         0       0       0       0       0       0       0       0       0       0       0       0       
      +0       0       0       0       0       0
  6625 ;;Total ram usage:        0 bytes
  6626 ;; Hardware stack levels used:    1
  6627 ;; Hardware stack levels required when called:    4
  6628 ;; This function calls:
  6629 ;;		Nothing
  6630 ;; This function is called by:
  6631 ;;		_SYSTEM_Initialize
  6632 ;; This function uses a non-reentrant model
  6633 ;;
  6634                           
  6635                           	psect	text7
  6636  003EBA                     __ptext7:
  6637                           	callstack 0
  6638  003EBA                     _SPI1_Initialize:
  6639                           	callstack 122
  6640  003EBA                     
  6641                           ;mcc_generated_files/spi1.c: 67:     SPI1CON0 = 0x02;
  6642  003EBA  0E02               	movlw	2
  6643  003EBC  0100               	movlb	0	; () banked
  6644  003EBE  6F84               	movwf	132,b	;volatile
  6645                           
  6646                           ;mcc_generated_files/spi1.c: 69:     SPI1CON1 = 0x40;
  6647  003EC0  0E40               	movlw	64
  6648  003EC2  6F85               	movwf	133,b	;volatile
  6649                           
  6650                           ;mcc_generated_files/spi1.c: 71:     SPI1CON2 = 0x00;
  6651  003EC4  0E00               	movlw	0
  6652  003EC6  6F86               	movwf	134,b	;volatile
  6653                           
  6654                           ;mcc_generated_files/spi1.c: 73:     SPI1CLK = 0x00;
  6655  003EC8  0E00               	movlw	0
  6656  003ECA  6F8C               	movwf	140,b	;volatile
  6657                           
  6658                           ;mcc_generated_files/spi1.c: 75:     SPI1BAUD = 0x03;
  6659  003ECC  0E03               	movlw	3
  6660  003ECE  6F89               	movwf	137,b	;volatile
  6661  003ED0                     
  6662                           ; BSR set to: 0
  6663                           ;mcc_generated_files/spi1.c: 76:     TRISBbits.TRISB6 = 0;
  6664  003ED0  9CC7               	bcf	199,6,c	;volatile
  6665  003ED2                     
  6666                           ; BSR set to: 0
  6667  003ED2  0012               	return		;funcret
  6668  003ED4                     __end_of_SPI1_Initialize:
  6669                           	callstack 0
  6670                           
  6671 ;; *************** function _PMD_Initialize *****************
  6672 ;; Defined at:
  6673 ;;		line 77 in file "mcc_generated_files/mcc.c"
  6674 ;; Parameters:    Size  Location     Type
  6675 ;;		None
  6676 ;; Auto vars:     Size  Location     Type
  6677 ;;		None
  6678 ;; Return value:  Size  Location     Type
  6679 ;;                  1    wreg      void 
  6680 ;; Registers used:
  6681 ;;		wreg, status,2
  6682 ;; Tracked objects:
  6683 ;;		On entry : 0/0
  6684 ;;		On exit  : 0/0
  6685 ;;		Unchanged: 0/0
  6686 ;; Data sizes:     COMRAM   BANK5   BANK6   BANK7   BANK8   BANK9  BANK10  BANK11  BANK12  BANK13  BANK14  BANK15  BANK1
      +6  BANK17  BANK18  BANK19  BANK20  BANK21
  6687 ;;      Params:         0       0       0       0       0       0       0       0       0       0       0       0       
      +0       0       0       0       0       0
  6688 ;;      Locals:         0       0       0       0       0       0       0       0       0       0       0       0       
      +0       0       0       0       0       0
  6689 ;;      Temps:          0       0       0       0       0       0       0       0       0       0       0       0       
      +0       0       0       0       0       0
  6690 ;;      Totals:         0       0       0       0       0       0       0       0       0       0       0       0       
      +0       0       0       0       0       0
  6691 ;;Total ram usage:        0 bytes
  6692 ;; Hardware stack levels used:    1
  6693 ;; Hardware stack levels required when called:    4
  6694 ;; This function calls:
  6695 ;;		Nothing
  6696 ;; This function is called by:
  6697 ;;		_SYSTEM_Initialize
  6698 ;; This function uses a non-reentrant model
  6699 ;;
  6700                           
  6701                           	psect	text8
  6702  003E66                     __ptext8:
  6703                           	callstack 0
  6704  003E66                     _PMD_Initialize:
  6705                           	callstack 122
  6706  003E66                     
  6707                           ;mcc_generated_files/mcc.c: 80:     PMD0 = 0x00;
  6708  003E66  0E00               	movlw	0
  6709  003E68  0100               	movlb	0	; () banked
  6710  003E6A  6F63               	movwf	99,b	;volatile
  6711                           
  6712                           ;mcc_generated_files/mcc.c: 82:     PMD1 = 0x00;
  6713  003E6C  0E00               	movlw	0
  6714  003E6E  6F64               	movwf	100,b	;volatile
  6715                           
  6716                           ;mcc_generated_files/mcc.c: 84:     PMD2 = 0x00;
  6717  003E70  0E00               	movlw	0
  6718  003E72  6F65               	movwf	101,b	;volatile
  6719                           
  6720                           ;mcc_generated_files/mcc.c: 86:     PMD3 = 0x00;
  6721  003E74  0E00               	movlw	0
  6722  003E76  6F66               	movwf	102,b	;volatile
  6723                           
  6724                           ;mcc_generated_files/mcc.c: 88:     PMD4 = 0x00;
  6725  003E78  0E00               	movlw	0
  6726  003E7A  6F67               	movwf	103,b	;volatile
  6727                           
  6728                           ;mcc_generated_files/mcc.c: 90:     PMD5 = 0x00;
  6729  003E7C  0E00               	movlw	0
  6730  003E7E  6F68               	movwf	104,b	;volatile
  6731  003E80                     
  6732                           ; BSR set to: 0
  6733  003E80  0012               	return		;funcret
  6734  003E82                     __end_of_PMD_Initialize:
  6735                           	callstack 0
  6736                           
  6737 ;; *************** function _PIN_MANAGER_Initialize *****************
  6738 ;; Defined at:
  6739 ;;		line 55 in file "mcc_generated_files/pin_manager.c"
  6740 ;; Parameters:    Size  Location     Type
  6741 ;;		None
  6742 ;; Auto vars:     Size  Location     Type
  6743 ;;		None
  6744 ;; Return value:  Size  Location     Type
  6745 ;;                  1    wreg      void 
  6746 ;; Registers used:
  6747 ;;		wreg, status,2
  6748 ;; Tracked objects:
  6749 ;;		On entry : 0/0
  6750 ;;		On exit  : 0/0
  6751 ;;		Unchanged: 0/0
  6752 ;; Data sizes:     COMRAM   BANK5   BANK6   BANK7   BANK8   BANK9  BANK10  BANK11  BANK12  BANK13  BANK14  BANK15  BANK1
      +6  BANK17  BANK18  BANK19  BANK20  BANK21
  6753 ;;      Params:         0       0       0       0       0       0       0       0       0       0       0       0       
      +0       0       0       0       0       0
  6754 ;;      Locals:         0       0       0       0       0       0       0       0       0       0       0       0       
      +0       0       0       0       0       0
  6755 ;;      Temps:          0       0       0       0       0       0       0       0       0       0       0       0       
      +0       0       0       0       0       0
  6756 ;;      Totals:         0       0       0       0       0       0       0       0       0       0       0       0       
      +0       0       0       0       0       0
  6757 ;;Total ram usage:        0 bytes
  6758 ;; Hardware stack levels used:    1
  6759 ;; Hardware stack levels required when called:    4
  6760 ;; This function calls:
  6761 ;;		Nothing
  6762 ;; This function is called by:
  6763 ;;		_SYSTEM_Initialize
  6764 ;; This function uses a non-reentrant model
  6765 ;;
  6766                           
  6767                           	psect	text9
  6768  003BBE                     __ptext9:
  6769                           	callstack 0
  6770  003BBE                     _PIN_MANAGER_Initialize:
  6771                           	callstack 122
  6772  003BBE                     
  6773                           ;mcc_generated_files/pin_manager.c: 60:     LATA = 0x00;
  6774  003BBE  0E00               	movlw	0
  6775  003BC0  6EBE               	movwf	190,c	;volatile
  6776                           
  6777                           ;mcc_generated_files/pin_manager.c: 61:     LATB = 0x00;
  6778  003BC2  0E00               	movlw	0
  6779  003BC4  6EBF               	movwf	191,c	;volatile
  6780                           
  6781                           ;mcc_generated_files/pin_manager.c: 62:     LATC = 0x00;
  6782  003BC6  0E00               	movlw	0
  6783  003BC8  6EC0               	movwf	192,c	;volatile
  6784                           
  6785                           ;mcc_generated_files/pin_manager.c: 67:     TRISA = 0x1F;
  6786  003BCA  0E1F               	movlw	31
  6787  003BCC  6EC6               	movwf	198,c	;volatile
  6788                           
  6789                           ;mcc_generated_files/pin_manager.c: 68:     TRISB = 0xA0;
  6790  003BCE  0EA0               	movlw	160
  6791  003BD0  6EC7               	movwf	199,c	;volatile
  6792                           
  6793                           ;mcc_generated_files/pin_manager.c: 69:     TRISC = 0x57;
  6794  003BD2  0E57               	movlw	87
  6795  003BD4  6EC8               	movwf	200,c	;volatile
  6796                           
  6797                           ;mcc_generated_files/pin_manager.c: 74:     ANSELC = 0xAF;
  6798  003BD6  0EAF               	movlw	175
  6799  003BD8  0104               	movlb	4	; () banked
  6800  003BDA  6F10               	movwf	16,b	;volatile
  6801                           
  6802                           ;mcc_generated_files/pin_manager.c: 75:     ANSELB = 0x00;
  6803  003BDC  0E00               	movlw	0
  6804  003BDE  6F08               	movwf	8,b	;volatile
  6805                           
  6806                           ;mcc_generated_files/pin_manager.c: 76:     ANSELA = 0x07;
  6807  003BE0  0E07               	movlw	7
  6808  003BE2  6F00               	movwf	0,b	;volatile
  6809                           
  6810                           ;mcc_generated_files/pin_manager.c: 81:     WPUB = 0x80;
  6811  003BE4  0E80               	movlw	128
  6812  003BE6  6F09               	movwf	9,b	;volatile
  6813                           
  6814                           ;mcc_generated_files/pin_manager.c: 82:     WPUA = 0x10;
  6815  003BE8  0E10               	movlw	16
  6816  003BEA  6F01               	movwf	1,b	;volatile
  6817                           
  6818                           ;mcc_generated_files/pin_manager.c: 83:     WPUC = 0x50;
  6819  003BEC  0E50               	movlw	80
  6820  003BEE  6F11               	movwf	17,b	;volatile
  6821                           
  6822                           ;mcc_generated_files/pin_manager.c: 88:     ODCONA = 0x00;
  6823  003BF0  0E00               	movlw	0
  6824  003BF2  6F02               	movwf	2,b	;volatile
  6825                           
  6826                           ;mcc_generated_files/pin_manager.c: 89:     ODCONB = 0x00;
  6827  003BF4  0E00               	movlw	0
  6828  003BF6  6F0A               	movwf	10,b	;volatile
  6829                           
  6830                           ;mcc_generated_files/pin_manager.c: 90:     ODCONC = 0x00;
  6831  003BF8  0E00               	movlw	0
  6832  003BFA  6F12               	movwf	18,b	;volatile
  6833                           
  6834                           ;mcc_generated_files/pin_manager.c: 95:     SLRCONA = 0x37;
  6835  003BFC  0E37               	movlw	55
  6836  003BFE  6F03               	movwf	3,b	;volatile
  6837                           
  6838                           ;mcc_generated_files/pin_manager.c: 96:     SLRCONB = 0xF0;
  6839  003C00  0EF0               	movlw	240
  6840  003C02  6F0B               	movwf	11,b	;volatile
  6841  003C04                     
  6842                           ; BSR set to: 4
  6843                           ;mcc_generated_files/pin_manager.c: 97:     SLRCONC = 0xFF;
  6844  003C04  6913               	setf	19,b	;volatile
  6845                           
  6846                           ;mcc_generated_files/pin_manager.c: 102:     INLVLA = 0x3F;
  6847  003C06  0E3F               	movlw	63
  6848  003C08  6F04               	movwf	4,b	;volatile
  6849                           
  6850                           ;mcc_generated_files/pin_manager.c: 103:     INLVLB = 0xF0;
  6851  003C0A  0EF0               	movlw	240
  6852  003C0C  6F0C               	movwf	12,b	;volatile
  6853  003C0E                     
  6854                           ; BSR set to: 4
  6855                           ;mcc_generated_files/pin_manager.c: 104:     INLVLC = 0xFF;
  6856  003C0E  6914               	setf	20,b	;volatile
  6857                           
  6858                           ;mcc_generated_files/pin_manager.c: 113:     SPI1SCKPPS = 0x0E;
  6859  003C10  0E0E               	movlw	14
  6860  003C12  0102               	movlb	2	; () banked
  6861  003C14  6F6A               	movwf	106,b	;volatile
  6862                           
  6863                           ;mcc_generated_files/pin_manager.c: 114:     RB6PPS = 0x1B;
  6864  003C16  0E1B               	movlw	27
  6865  003C18  6F0F               	movwf	15,b	;volatile
  6866                           
  6867                           ;mcc_generated_files/pin_manager.c: 115:     RB4PPS = 0x1C;
  6868  003C1A  0E1C               	movlw	28
  6869  003C1C  6F0D               	movwf	13,b	;volatile
  6870                           
  6871                           ;mcc_generated_files/pin_manager.c: 116:     SPI1SDIPPS = 0x0D;
  6872  003C1E  0E0D               	movlw	13
  6873  003C20  6F6B               	movwf	107,b	;volatile
  6874  003C22                     
  6875                           ; BSR set to: 2
  6876  003C22  0012               	return		;funcret
  6877  003C24                     __end_of_PIN_MANAGER_Initialize:
  6878                           	callstack 0
  6879                           
  6880 ;; *************** function _OSCILLATOR_Initialize *****************
  6881 ;; Defined at:
  6882 ;;		line 61 in file "mcc_generated_files/mcc.c"
  6883 ;; Parameters:    Size  Location     Type
  6884 ;;		None
  6885 ;; Auto vars:     Size  Location     Type
  6886 ;;		None
  6887 ;; Return value:  Size  Location     Type
  6888 ;;                  1    wreg      void 
  6889 ;; Registers used:
  6890 ;;		wreg, status,2
  6891 ;; Tracked objects:
  6892 ;;		On entry : 0/0
  6893 ;;		On exit  : 0/0
  6894 ;;		Unchanged: 0/0
  6895 ;; Data sizes:     COMRAM   BANK5   BANK6   BANK7   BANK8   BANK9  BANK10  BANK11  BANK12  BANK13  BANK14  BANK15  BANK1
      +6  BANK17  BANK18  BANK19  BANK20  BANK21
  6896 ;;      Params:         0       0       0       0       0       0       0       0       0       0       0       0       
      +0       0       0       0       0       0
  6897 ;;      Locals:         0       0       0       0       0       0       0       0       0       0       0       0       
      +0       0       0       0       0       0
  6898 ;;      Temps:          0       0       0       0       0       0       0       0       0       0       0       0       
      +0       0       0       0       0       0
  6899 ;;      Totals:         0       0       0       0       0       0       0       0       0       0       0       0       
      +0       0       0       0       0       0
  6900 ;;Total ram usage:        0 bytes
  6901 ;; Hardware stack levels used:    1
  6902 ;; Hardware stack levels required when called:    4
  6903 ;; This function calls:
  6904 ;;		Nothing
  6905 ;; This function is called by:
  6906 ;;		_SYSTEM_Initialize
  6907 ;; This function uses a non-reentrant model
  6908 ;;
  6909                           
  6910                           	psect	text10
  6911  003E82                     __ptext10:
  6912                           	callstack 0
  6913  003E82                     _OSCILLATOR_Initialize:
  6914                           	callstack 122
  6915  003E82                     
  6916                           ;mcc_generated_files/mcc.c: 64:     OSCCON1 = 0x60;
  6917  003E82  0E60               	movlw	96
  6918  003E84  0100               	movlb	0	; () banked
  6919  003E86  6FAD               	movwf	173,b	;volatile
  6920                           
  6921                           ;mcc_generated_files/mcc.c: 66:     OSCCON3 = 0x00;
  6922  003E88  0E00               	movlw	0
  6923  003E8A  6FAF               	movwf	175,b	;volatile
  6924                           
  6925                           ;mcc_generated_files/mcc.c: 68:     OSCEN = 0x00;
  6926  003E8C  0E00               	movlw	0
  6927  003E8E  6FB3               	movwf	179,b	;volatile
  6928                           
  6929                           ;mcc_generated_files/mcc.c: 70:     OSCFRQ = 0x08;
  6930  003E90  0E08               	movlw	8
  6931  003E92  6FB1               	movwf	177,b	;volatile
  6932                           
  6933                           ;mcc_generated_files/mcc.c: 72:     OSCTUNE = 0x00;
  6934  003E94  0E00               	movlw	0
  6935  003E96  6FB0               	movwf	176,b	;volatile
  6936                           
  6937                           ;mcc_generated_files/mcc.c: 74:     ACTCON = 0x00;
  6938  003E98  0E00               	movlw	0
  6939  003E9A  6FAC               	movwf	172,b	;volatile
  6940  003E9C                     
  6941                           ; BSR set to: 0
  6942  003E9C  0012               	return		;funcret
  6943  003E9E                     __end_of_OSCILLATOR_Initialize:
  6944                           	callstack 0
  6945                           
  6946 ;; *************** function _INTERRUPT_Initialize *****************
  6947 ;; Defined at:
  6948 ;;		line 52 in file "mcc_generated_files/interrupt_manager.c"
  6949 ;; Parameters:    Size  Location     Type
  6950 ;;		None
  6951 ;; Auto vars:     Size  Location     Type
  6952 ;;		None
  6953 ;; Return value:  Size  Location     Type
  6954 ;;                  1    wreg      void 
  6955 ;; Registers used:
  6956 ;;		None
  6957 ;; Tracked objects:
  6958 ;;		On entry : 0/0
  6959 ;;		On exit  : 0/0
  6960 ;;		Unchanged: 0/0
  6961 ;; Data sizes:     COMRAM   BANK5   BANK6   BANK7   BANK8   BANK9  BANK10  BANK11  BANK12  BANK13  BANK14  BANK15  BANK1
      +6  BANK17  BANK18  BANK19  BANK20  BANK21
  6962 ;;      Params:         0       0       0       0       0       0       0       0       0       0       0       0       
      +0       0       0       0       0       0
  6963 ;;      Locals:         0       0       0       0       0       0       0       0       0       0       0       0       
      +0       0       0       0       0       0
  6964 ;;      Temps:          0       0       0       0       0       0       0       0       0       0       0       0       
      +0       0       0       0       0       0
  6965 ;;      Totals:         0       0       0       0       0       0       0       0       0       0       0       0       
      +0       0       0       0       0       0
  6966 ;;Total ram usage:        0 bytes
  6967 ;; Hardware stack levels used:    1
  6968 ;; Hardware stack levels required when called:    4
  6969 ;; This function calls:
  6970 ;;		Nothing
  6971 ;; This function is called by:
  6972 ;;		_SYSTEM_Initialize
  6973 ;; This function uses a non-reentrant model
  6974 ;;
  6975                           
  6976                           	psect	text11
  6977  003F22                     __ptext11:
  6978                           	callstack 0
  6979  003F22                     _INTERRUPT_Initialize:
  6980                           	callstack 122
  6981  003F22                     
  6982                           ;mcc_generated_files/interrupt_manager.c: 55:     INTCON0bits.IPEN = 0;
  6983  003F22  9AD6               	bcf	214,5,c	;volatile
  6984  003F24  0012               	return		;funcret
  6985  003F26                     __end_of_INTERRUPT_Initialize:
  6986                           	callstack 0
  6987                           
  6988 ;; *************** function _ADCC_Initialize *****************
  6989 ;; Defined at:
  6990 ;;		line 62 in file "mcc_generated_files/adcc.c"
  6991 ;; Parameters:    Size  Location     Type
  6992 ;;		None
  6993 ;; Auto vars:     Size  Location     Type
  6994 ;;		None
  6995 ;; Return value:  Size  Location     Type
  6996 ;;                  1    wreg      void 
  6997 ;; Registers used:
  6998 ;;		wreg, status,2
  6999 ;; Tracked objects:
  7000 ;;		On entry : 0/0
  7001 ;;		On exit  : 0/0
  7002 ;;		Unchanged: 0/0
  7003 ;; Data sizes:     COMRAM   BANK5   BANK6   BANK7   BANK8   BANK9  BANK10  BANK11  BANK12  BANK13  BANK14  BANK15  BANK1
      +6  BANK17  BANK18  BANK19  BANK20  BANK21
  7004 ;;      Params:         0       0       0       0       0       0       0       0       0       0       0       0       
      +0       0       0       0       0       0
  7005 ;;      Locals:         0       0       0       0       0       0       0       0       0       0       0       0       
      +0       0       0       0       0       0
  7006 ;;      Temps:          0       0       0       0       0       0       0       0       0       0       0       0       
      +0       0       0       0       0       0
  7007 ;;      Totals:         0       0       0       0       0       0       0       0       0       0       0       0       
      +0       0       0       0       0       0
  7008 ;;Total ram usage:        0 bytes
  7009 ;; Hardware stack levels used:    1
  7010 ;; Hardware stack levels required when called:    4
  7011 ;; This function calls:
  7012 ;;		Nothing
  7013 ;; This function is called by:
  7014 ;;		_SYSTEM_Initialize
  7015 ;; This function uses a non-reentrant model
  7016 ;;
  7017                           
  7018                           	psect	text12
  7019  003C24                     __ptext12:
  7020                           	callstack 0
  7021  003C24                     _ADCC_Initialize:
  7022                           	callstack 122
  7023  003C24                     
  7024                           ;mcc_generated_files/adcc.c: 66:     ADLTHL = 0x00;
  7025  003C24  0E00               	movlw	0
  7026  003C26  0103               	movlb	3	; () banked
  7027  003C28  6FD9               	movwf	217,b	;volatile
  7028                           
  7029                           ;mcc_generated_files/adcc.c: 68:     ADLTHH = 0x00;
  7030  003C2A  0E00               	movlw	0
  7031  003C2C  6FDA               	movwf	218,b	;volatile
  7032                           
  7033                           ;mcc_generated_files/adcc.c: 70:     ADUTHL = 0x00;
  7034  003C2E  0E00               	movlw	0
  7035  003C30  6FDB               	movwf	219,b	;volatile
  7036                           
  7037                           ;mcc_generated_files/adcc.c: 72:     ADUTHH = 0x00;
  7038  003C32  0E00               	movlw	0
  7039  003C34  6FDC               	movwf	220,b	;volatile
  7040                           
  7041                           ;mcc_generated_files/adcc.c: 74:     ADSTPTL = 0x00;
  7042  003C36  0E00               	movlw	0
  7043  003C38  6FDF               	movwf	223,b	;volatile
  7044                           
  7045                           ;mcc_generated_files/adcc.c: 76:     ADSTPTH = 0x00;
  7046  003C3A  0E00               	movlw	0
  7047  003C3C  6FE0               	movwf	224,b	;volatile
  7048                           
  7049                           ;mcc_generated_files/adcc.c: 78:     ADACCU = 0x00;
  7050  003C3E  0E00               	movlw	0
  7051  003C40  6FE5               	movwf	229,b	;volatile
  7052                           
  7053                           ;mcc_generated_files/adcc.c: 80:     ADRPT = 0x00;
  7054  003C42  0E00               	movlw	0
  7055  003C44  6FE7               	movwf	231,b	;volatile
  7056                           
  7057                           ;mcc_generated_files/adcc.c: 82:     ADPCH = 0x00;
  7058  003C46  0E00               	movlw	0
  7059  003C48  6FEC               	movwf	236,b	;volatile
  7060                           
  7061                           ;mcc_generated_files/adcc.c: 84:     ADACQL = 0x00;
  7062  003C4A  0E00               	movlw	0
  7063  003C4C  6FEE               	movwf	238,b	;volatile
  7064                           
  7065                           ;mcc_generated_files/adcc.c: 86:     ADACQH = 0x00;
  7066  003C4E  0E00               	movlw	0
  7067  003C50  6FEF               	movwf	239,b	;volatile
  7068                           
  7069                           ;mcc_generated_files/adcc.c: 88:     ADCAP = 0x00;
  7070  003C52  0E00               	movlw	0
  7071  003C54  6FF0               	movwf	240,b	;volatile
  7072                           
  7073                           ;mcc_generated_files/adcc.c: 90:     ADPREL = 0x00;
  7074  003C56  0E00               	movlw	0
  7075  003C58  6FF1               	movwf	241,b	;volatile
  7076                           
  7077                           ;mcc_generated_files/adcc.c: 92:     ADPREH = 0x00;
  7078  003C5A  0E00               	movlw	0
  7079  003C5C  6FF2               	movwf	242,b	;volatile
  7080                           
  7081                           ;mcc_generated_files/adcc.c: 94:     ADCON1 = 0x00;
  7082  003C5E  0E00               	movlw	0
  7083  003C60  6FF4               	movwf	244,b	;volatile
  7084                           
  7085                           ;mcc_generated_files/adcc.c: 96:     ADCON2 = 0x10;
  7086  003C62  0E10               	movlw	16
  7087  003C64  6FF5               	movwf	245,b	;volatile
  7088                           
  7089                           ;mcc_generated_files/adcc.c: 98:     ADCON3 = 0x00;
  7090  003C66  0E00               	movlw	0
  7091  003C68  6FF6               	movwf	246,b	;volatile
  7092                           
  7093                           ;mcc_generated_files/adcc.c: 100:     ADSTAT = 0x00;
  7094  003C6A  0E00               	movlw	0
  7095  003C6C  6FF7               	movwf	247,b	;volatile
  7096                           
  7097                           ;mcc_generated_files/adcc.c: 102:     ADREF = 0x00;
  7098  003C6E  0E00               	movlw	0
  7099  003C70  6FF8               	movwf	248,b	;volatile
  7100                           
  7101                           ;mcc_generated_files/adcc.c: 104:     ADACT = 0x00;
  7102  003C72  0E00               	movlw	0
  7103  003C74  6FF9               	movwf	249,b	;volatile
  7104                           
  7105                           ;mcc_generated_files/adcc.c: 106:     ADCLK = 0x1F;
  7106  003C76  0E1F               	movlw	31
  7107  003C78  6FFA               	movwf	250,b	;volatile
  7108                           
  7109                           ;mcc_generated_files/adcc.c: 108:     ADCON0 = 0x84;
  7110  003C7A  0E84               	movlw	132
  7111  003C7C  6FF3               	movwf	243,b	;volatile
  7112  003C7E                     
  7113                           ; BSR set to: 3
  7114  003C7E  0012               	return		;funcret
  7115  003C80                     __end_of_ADCC_Initialize:
  7116                           	callstack 0
  7117                           
  7118 ;; *************** function _SPI1_Open *****************
  7119 ;; Defined at:
  7120 ;;		line 79 in file "mcc_generated_files/spi1.c"
  7121 ;; Parameters:    Size  Location     Type
  7122 ;;  spi1UniqueCo    1    wreg     enum E355
  7123 ;; Auto vars:     Size  Location     Type
  7124 ;;  spi1UniqueCo    1    1[COMRAM] enum E355
  7125 ;; Return value:  Size  Location     Type
  7126 ;;                  1    wreg      _Bool 
  7127 ;; Registers used:
  7128 ;;		wreg, status,2, status,0, tblptrl, tblptrh, tblptru, prodl, prodh
  7129 ;; Tracked objects:
  7130 ;;		On entry : 0/0
  7131 ;;		On exit  : 0/0
  7132 ;;		Unchanged: 0/0
  7133 ;; Data sizes:     COMRAM   BANK5   BANK6   BANK7   BANK8   BANK9  BANK10  BANK11  BANK12  BANK13  BANK14  BANK15  BANK1
      +6  BANK17  BANK18  BANK19  BANK20  BANK21
  7134 ;;      Params:         0       0       0       0       0       0       0       0       0       0       0       0       
      +0       0       0       0       0       0
  7135 ;;      Locals:         1       0       0       0       0       0       0       0       0       0       0       0       
      +0       0       0       0       0       0
  7136 ;;      Temps:          1       0       0       0       0       0       0       0       0       0       0       0       
      +0       0       0       0       0       0
  7137 ;;      Totals:         2       0       0       0       0       0       0       0       0       0       0       0       
      +0       0       0       0       0       0
  7138 ;;Total ram usage:        2 bytes
  7139 ;; Hardware stack levels used:    1
  7140 ;; Hardware stack levels required when called:    4
  7141 ;; This function calls:
  7142 ;;		Nothing
  7143 ;; This function is called by:
  7144 ;;		_main
  7145 ;; This function uses a non-reentrant model
  7146 ;;
  7147                           
  7148                           	psect	text13
  7149  00392C                     __ptext13:
  7150                           	callstack 0
  7151  00392C                     _SPI1_Open:
  7152                           	callstack 123
  7153                           
  7154                           ; BSR set to: 3
  7155                           ;incstack = 0
  7156                           ;SPI1_Open@spi1UniqueConfiguration stored from wreg
  7157  00392C  6E02               	movwf	SPI1_Open@spi1UniqueConfiguration^(0+1280),c
  7158  00392E                     
  7159                           ;mcc_generated_files/spi1.c: 79: _Bool SPI1_Open(spi1_modes_t spi1UniqueConfiguration);m
      +                          cc_generated_files/spi1.c: 80: {;mcc_generated_files/spi1.c: 81:     if(!SPI1CON0bits.EN
      +                          )
  7160  00392E  0100               	movlb	0	; () banked
  7161  003930  BF84               	btfsc	132,7,b	;volatile
  7162  003932  EF9D  F01C         	goto	u2811
  7163  003936  EF9F  F01C         	goto	u2810
  7164  00393A                     u2811:
  7165  00393A  EF02  F01D         	goto	l294
  7166  00393E                     u2810:
  7167  00393E                     
  7168                           ; BSR set to: 0
  7169                           ;mcc_generated_files/spi1.c: 82:     {;mcc_generated_files/spi1.c: 83:         SPI1CON0 
      +                          = spi1_configuration[spi1UniqueConfiguration].con0;
  7170  00393E  5002               	movf	SPI1_Open@spi1UniqueConfiguration^(0+1280),w,c
  7171  003940  0D05               	mullw	5
  7172  003942  0E01               	movlw	low _spi1_configuration
  7173  003944  24F3               	addwf	243,w,c
  7174  003946  6EF6               	movwf	tblptrl,c
  7175  003948  0E16               	movlw	high _spi1_configuration
  7176  00394A  20F4               	addwfc	244,w,c
  7177  00394C  6EF7               	movwf	tblptrh,c
  7178  00394E                     	if	1	;There are 3 active tblptr bytes
  7179  00394E  6AF8               	clrf	tblptru,c
  7180  003950  0E00               	movlw	low (__mediumconst shr (0+16))
  7181  003952  22F8               	addwfc	tblptru,f,c
  7182  003954                     	endif
  7183  003954  0008               	tblrd		*
  7184  003956  C4F5 F084          	movff	tablat,132	;volatile
  7185                           
  7186                           ;mcc_generated_files/spi1.c: 84:         SPI1CON1 = spi1_configuration[spi1UniqueConfigu
      +                          ration].con1;
  7187  00395A  5002               	movf	SPI1_Open@spi1UniqueConfiguration^(0+1280),w,c
  7188  00395C  0D05               	mullw	5
  7189  00395E  0E01               	movlw	1
  7190  003960  26F3               	addwf	243,f,c
  7191  003962  0E00               	movlw	0
  7192  003964  22F4               	addwfc	244,f,c
  7193  003966  0E01               	movlw	low _spi1_configuration
  7194  003968  24F3               	addwf	243,w,c
  7195  00396A  6EF6               	movwf	tblptrl,c
  7196  00396C  0E16               	movlw	high _spi1_configuration
  7197  00396E  20F4               	addwfc	244,w,c
  7198  003970  6EF7               	movwf	tblptrh,c
  7199  003972                     	if	1	;There are 3 active tblptr bytes
  7200  003972  6AF8               	clrf	tblptru,c
  7201  003974  0E00               	movlw	low (__mediumconst shr (0+16))
  7202  003976  22F8               	addwfc	tblptru,f,c
  7203  003978                     	endif
  7204  003978  0008               	tblrd		*
  7205  00397A  C4F5 F085          	movff	tablat,133	;volatile
  7206                           
  7207                           ;mcc_generated_files/spi1.c: 85:         SPI1CON2 = spi1_configuration[spi1UniqueConfigu
      +                          ration].con2 | (0x1 | 0x2);
  7208  00397E  5002               	movf	SPI1_Open@spi1UniqueConfiguration^(0+1280),w,c
  7209  003980  0D05               	mullw	5
  7210  003982  0E02               	movlw	2
  7211  003984  26F3               	addwf	243,f,c
  7212  003986  0E00               	movlw	0
  7213  003988  22F4               	addwfc	244,f,c
  7214  00398A  0E01               	movlw	low _spi1_configuration
  7215  00398C  24F3               	addwf	243,w,c
  7216  00398E  6EF6               	movwf	tblptrl,c
  7217  003990  0E16               	movlw	high _spi1_configuration
  7218  003992  20F4               	addwfc	244,w,c
  7219  003994  6EF7               	movwf	tblptrh,c
  7220  003996                     	if	1	;There are 3 active tblptr bytes
  7221  003996  6AF8               	clrf	tblptru,c
  7222  003998  0E00               	movlw	low (__mediumconst shr (0+16))
  7223  00399A  22F8               	addwfc	tblptru,f,c
  7224  00399C                     	endif
  7225  00399C  0008               	tblrd		*
  7226  00399E  50F5               	movf	tablat,w,c
  7227  0039A0  0903               	iorlw	3
  7228  0039A2  6F86               	movwf	134,b	;volatile
  7229  0039A4                     
  7230                           ; BSR set to: 0
  7231                           ;mcc_generated_files/spi1.c: 86:         SPI1CLK = 0x00;
  7232  0039A4  0E00               	movlw	0
  7233  0039A6  6F8C               	movwf	140,b	;volatile
  7234  0039A8                     
  7235                           ; BSR set to: 0
  7236                           ;mcc_generated_files/spi1.c: 87:         SPI1BAUD = spi1_configuration[spi1UniqueConfigu
      +                          ration].baud;
  7237  0039A8  5002               	movf	SPI1_Open@spi1UniqueConfiguration^(0+1280),w,c
  7238  0039AA  0D05               	mullw	5
  7239  0039AC  0E03               	movlw	3
  7240  0039AE  26F3               	addwf	243,f,c
  7241  0039B0  0E00               	movlw	0
  7242  0039B2  22F4               	addwfc	244,f,c
  7243  0039B4  0E01               	movlw	low _spi1_configuration
  7244  0039B6  24F3               	addwf	243,w,c
  7245  0039B8  6EF6               	movwf	tblptrl,c
  7246  0039BA  0E16               	movlw	high _spi1_configuration
  7247  0039BC  20F4               	addwfc	244,w,c
  7248  0039BE  6EF7               	movwf	tblptrh,c
  7249  0039C0                     	if	1	;There are 3 active tblptr bytes
  7250  0039C0  6AF8               	clrf	tblptru,c
  7251  0039C2  0E00               	movlw	low (__mediumconst shr (0+16))
  7252  0039C4  22F8               	addwfc	tblptru,f,c
  7253  0039C6                     	endif
  7254  0039C6  0008               	tblrd		*
  7255  0039C8  C4F5 F089          	movff	tablat,137	;volatile
  7256  0039CC                     
  7257                           ; BSR set to: 0
  7258                           ;mcc_generated_files/spi1.c: 88:         TRISBbits.TRISB6 = spi1_configuration[spi1Uniqu
      +                          eConfiguration].operation;
  7259  0039CC  5002               	movf	SPI1_Open@spi1UniqueConfiguration^(0+1280),w,c
  7260  0039CE  0D05               	mullw	5
  7261  0039D0  0E04               	movlw	4
  7262  0039D2  26F3               	addwf	243,f,c
  7263  0039D4  0E00               	movlw	0
  7264  0039D6  22F4               	addwfc	244,f,c
  7265  0039D8  0E01               	movlw	low _spi1_configuration
  7266  0039DA  24F3               	addwf	243,w,c
  7267  0039DC  6EF6               	movwf	tblptrl,c
  7268  0039DE  0E16               	movlw	high _spi1_configuration
  7269  0039E0  20F4               	addwfc	244,w,c
  7270  0039E2  6EF7               	movwf	tblptrh,c
  7271  0039E4                     	if	1	;There are 3 active tblptr bytes
  7272  0039E4  6AF8               	clrf	tblptru,c
  7273  0039E6  0E00               	movlw	low (__mediumconst shr (0+16))
  7274  0039E8  22F8               	addwfc	tblptru,f,c
  7275  0039EA                     	endif
  7276  0039EA  0008               	tblrd		*
  7277  0039EC  0061 F3D4  F501    	movff	tablat,??_SPI1_Open
  7278  0039F2  3A01               	swapf	??_SPI1_Open^(0+1280),f,c
  7279  0039F4  4601               	rlncf	??_SPI1_Open^(0+1280),f,c
  7280  0039F6  4601               	rlncf	??_SPI1_Open^(0+1280),f,c
  7281  0039F8  50C7               	movf	199,w,c	;volatile
  7282  0039FA  1801               	xorwf	??_SPI1_Open^(0+1280),w,c
  7283  0039FC  0BBF               	andlw	-65
  7284  0039FE  1801               	xorwf	??_SPI1_Open^(0+1280),w,c
  7285  003A00  6EC7               	movwf	199,c	;volatile
  7286  003A02                     
  7287                           ; BSR set to: 0
  7288                           ;mcc_generated_files/spi1.c: 89:         SPI1CON0bits.EN = 1;
  7289  003A02  8F84               	bsf	132,7,b	;volatile
  7290  003A04                     l294:
  7291                           
  7292                           ; BSR set to: 0
  7293  003A04  0012               	return		;funcret
  7294  003A06                     __end_of_SPI1_Open:
  7295                           	callstack 0
  7296                           
  7297 ;; *************** function _LOOPDELAY_Wait *****************
  7298 ;; Defined at:
  7299 ;;		line 17 in file "Loopdelay.c"
  7300 ;; Parameters:    Size  Location     Type
  7301 ;;		None
  7302 ;; Auto vars:     Size  Location     Type
  7303 ;;		None
  7304 ;; Return value:  Size  Location     Type
  7305 ;;                  1    wreg      void 
  7306 ;; Registers used:
  7307 ;;		wreg, status,2, status,0
  7308 ;; Tracked objects:
  7309 ;;		On entry : 0/0
  7310 ;;		On exit  : 0/0
  7311 ;;		Unchanged: 0/0
  7312 ;; Data sizes:     COMRAM   BANK5   BANK6   BANK7   BANK8   BANK9  BANK10  BANK11  BANK12  BANK13  BANK14  BANK15  BANK1
      +6  BANK17  BANK18  BANK19  BANK20  BANK21
  7313 ;;      Params:         0       0       0       0       0       0       0       0       0       0       0       0       
      +0       0       0       0       0       0
  7314 ;;      Locals:         0       0       0       0       0       0       0       0       0       0       0       0       
      +0       0       0       0       0       0
  7315 ;;      Temps:          0       0       0       0       0       0       0       0       0       0       0       0       
      +0       0       0       0       0       0
  7316 ;;      Totals:         0       0       0       0       0       0       0       0       0       0       0       0       
      +0       0       0       0       0       0
  7317 ;;Total ram usage:        0 bytes
  7318 ;; Hardware stack levels used:    1
  7319 ;; Hardware stack levels required when called:    4
  7320 ;; This function calls:
  7321 ;;		Nothing
  7322 ;; This function is called by:
  7323 ;;		_main
  7324 ;; This function uses a non-reentrant model
  7325 ;;
  7326                           
  7327                           	psect	text14
  7328  003DEE                     __ptext14:
  7329                           	callstack 0
  7330  003DEE                     _LOOPDELAY_Wait:
  7331                           	callstack 123
  7332  003DEE                     l3135:
  7333  003DEE  5036               	movf	_loopTimeMS^(0+1280),w,c
  7334  003DF0  5C38               	subwf	_loopTimeCnt^(0+1280),w,c	;volatile
  7335  003DF2  5037               	movf	(_loopTimeMS+1)^(0+1280),w,c
  7336  003DF4  5839               	subwfb	(_loopTimeCnt+1)^(0+1280),w,c	;volatile
  7337  003DF6  A0D8               	btfss	status,0,c
  7338  003DF8  EF00  F01F         	goto	u2841
  7339  003DFC  EF02  F01F         	goto	u2840
  7340  003E00                     u2841:
  7341  003E00  EFF7  F01E         	goto	l3135
  7342  003E04                     u2840:
  7343  003E04                     
  7344                           ;Loopdelay.c: 20:     loopTimeCnt = 0;
  7345  003E04  0E00               	movlw	0
  7346  003E06  6E39               	movwf	(_loopTimeCnt+1)^(0+1280),c	;volatile
  7347  003E08  0E00               	movlw	0
  7348  003E0A  6E38               	movwf	_loopTimeCnt^(0+1280),c	;volatile
  7349  003E0C  0012               	return		;funcret
  7350  003E0E                     __end_of_LOOPDELAY_Wait:
  7351                           	callstack 0
  7352                           
  7353 ;; *************** function _LOOPDELAY_Init *****************
  7354 ;; Defined at:
  7355 ;;		line 23 in file "Loopdelay.c"
  7356 ;; Parameters:    Size  Location     Type
  7357 ;;  newLoopTimeM    2    0[COMRAM] unsigned short 
  7358 ;; Auto vars:     Size  Location     Type
  7359 ;;		None
  7360 ;; Return value:  Size  Location     Type
  7361 ;;                  1    wreg      void 
  7362 ;; Registers used:
  7363 ;;		None
  7364 ;; Tracked objects:
  7365 ;;		On entry : 0/0
  7366 ;;		On exit  : 0/0
  7367 ;;		Unchanged: 0/0
  7368 ;; Data sizes:     COMRAM   BANK5   BANK6   BANK7   BANK8   BANK9  BANK10  BANK11  BANK12  BANK13  BANK14  BANK15  BANK1
      +6  BANK17  BANK18  BANK19  BANK20  BANK21
  7369 ;;      Params:         2       0       0       0       0       0       0       0       0       0       0       0       
      +0       0       0       0       0       0
  7370 ;;      Locals:         0       0       0       0       0       0       0       0       0       0       0       0       
      +0       0       0       0       0       0
  7371 ;;      Temps:          0       0       0       0       0       0       0       0       0       0       0       0       
      +0       0       0       0       0       0
  7372 ;;      Totals:         2       0       0       0       0       0       0       0       0       0       0       0       
      +0       0       0       0       0       0
  7373 ;;Total ram usage:        2 bytes
  7374 ;; Hardware stack levels used:    1
  7375 ;; Hardware stack levels required when called:    4
  7376 ;; This function calls:
  7377 ;;		Nothing
  7378 ;; This function is called by:
  7379 ;;		_main
  7380 ;; This function uses a non-reentrant model
  7381 ;;
  7382                           
  7383                           	psect	text15
  7384  003EF8                     __ptext15:
  7385                           	callstack 0
  7386  003EF8                     _LOOPDELAY_Init:
  7387                           	callstack 123
  7388  003EF8                     
  7389                           ;Loopdelay.c: 23: void LOOPDELAY_Init(uint16_t newLoopTimeMS);Loopdelay.c: 24: {;Loopdel
      +                          ay.c: 25:     loopTimeMS = newLoopTimeMS;
  7390  003EF8  C501  F536         	movff	LOOPDELAY_Init@newLoopTimeMS,_loopTimeMS
  7391  003EFC  C502  F537         	movff	LOOPDELAY_Init@newLoopTimeMS+1,_loopTimeMS+1
  7392  003F00  0012               	return		;funcret
  7393  003F02                     __end_of_LOOPDELAY_Init:
  7394                           	callstack 0
  7395                           
  7396 ;; *************** function _LED_WriteFull *****************
  7397 ;; Defined at:
  7398 ;;		line 51 in file "DivFunctions.c"
  7399 ;; Parameters:    Size  Location     Type
  7400 ;;  red             1    wreg     unsigned char 
  7401 ;;  green           1    6[COMRAM] unsigned char 
  7402 ;;  blue            1    7[COMRAM] unsigned char 
  7403 ;;  white           1    8[COMRAM] unsigned char 
  7404 ;;  ledcount        3    9[COMRAM] unsigned um
  7405 ;; Auto vars:     Size  Location     Type
  7406 ;;  red             1   12[COMRAM] unsigned char 
  7407 ;;  i               3   13[COMRAM] unsigned um
  7408 ;; Return value:  Size  Location     Type
  7409 ;;                  1    wreg      void 
  7410 ;; Registers used:
  7411 ;;		wreg, status,2, status,0, cstack
  7412 ;; Tracked objects:
  7413 ;;		On entry : 0/0
  7414 ;;		On exit  : 0/0
  7415 ;;		Unchanged: 0/0
  7416 ;; Data sizes:     COMRAM   BANK5   BANK6   BANK7   BANK8   BANK9  BANK10  BANK11  BANK12  BANK13  BANK14  BANK15  BANK1
      +6  BANK17  BANK18  BANK19  BANK20  BANK21
  7417 ;;      Params:         6       0       0       0       0       0       0       0       0       0       0       0       
      +0       0       0       0       0       0
  7418 ;;      Locals:         4       0       0       0       0       0       0       0       0       0       0       0       
      +0       0       0       0       0       0
  7419 ;;      Temps:          0       0       0       0       0       0       0       0       0       0       0       0       
      +0       0       0       0       0       0
  7420 ;;      Totals:        10       0       0       0       0       0       0       0       0       0       0       0       
      +0       0       0       0       0       0
  7421 ;;Total ram usage:       10 bytes
  7422 ;; Hardware stack levels used:    1
  7423 ;; Hardware stack levels required when called:    8
  7424 ;; This function calls:
  7425 ;;		_WS2812B_Write
  7426 ;; This function is called by:
  7427 ;;		_main
  7428 ;; This function uses a non-reentrant model
  7429 ;;
  7430                           
  7431                           	psect	text16
  7432  003CD2                     __ptext16:
  7433                           	callstack 0
  7434  003CD2                     _LED_WriteFull:
  7435                           	callstack 119
  7436                           
  7437                           ;incstack = 0
  7438                           ;LED_WriteFull@red stored from wreg
  7439  003CD2  6E0D               	movwf	LED_WriteFull@red^(0+1280),c
  7440  003CD4                     
  7441                           ;DivFunctions.c: 51: void LED_WriteFull(uint8_t red, uint8_t green, uint8_t blue, uint8_
      +                          t white, uint24_t ledcount);DivFunctions.c: 52: {;DivFunctions.c: 53:     for(uint24_t i
      +                          =0; i <= ledcount; i++)
  7442  003CD4  0E00               	movlw	0
  7443  003CD6  6E0E               	movwf	LED_WriteFull@i^(0+1280),c
  7444  003CD8  0E00               	movlw	0
  7445  003CDA  6E0F               	movwf	(LED_WriteFull@i+1)^(0+1280),c
  7446  003CDC  0E00               	movlw	0
  7447  003CDE  6E10               	movwf	(LED_WriteFull@i+2)^(0+1280),c
  7448  003CE0  EF81  F01E         	goto	l3145
  7449  003CE4                     l3141:
  7450                           
  7451                           ;DivFunctions.c: 54:     {;DivFunctions.c: 55:         WS2812B_Write(red, green, blue, w
      +                          hite);
  7452  003CE4  C507  F503         	movff	LED_WriteFull@green,WS2812B_Write@G
  7453  003CE8  C508  F504         	movff	LED_WriteFull@blue,WS2812B_Write@B
  7454  003CEC  C509  F505         	movff	LED_WriteFull@white,WS2812B_Write@W
  7455  003CF0  500D               	movf	LED_WriteFull@red^(0+1280),w,c
  7456  003CF2  EC4F  F01F         	call	_WS2812B_Write
  7457  003CF6                     
  7458                           ;DivFunctions.c: 56:     }
  7459  003CF6  0E01               	movlw	1
  7460  003CF8  260E               	addwf	LED_WriteFull@i^(0+1280),f,c
  7461  003CFA  0E00               	movlw	0
  7462  003CFC  220F               	addwfc	(LED_WriteFull@i+1)^(0+1280),f,c
  7463  003CFE  0E00               	movlw	0
  7464  003D00  2210               	addwfc	(LED_WriteFull@i+2)^(0+1280),f,c
  7465  003D02                     l3145:
  7466  003D02  500E               	movf	LED_WriteFull@i^(0+1280),w,c
  7467  003D04  5C0A               	subwf	LED_WriteFull@ledcount^(0+1280),w,c
  7468  003D06  500F               	movf	(LED_WriteFull@i+1)^(0+1280),w,c
  7469  003D08  580B               	subwfb	(LED_WriteFull@ledcount+1)^(0+1280),w,c
  7470  003D0A  5010               	movf	(LED_WriteFull@i+2)^(0+1280),w,c
  7471  003D0C  580C               	subwfb	(LED_WriteFull@ledcount+2)^(0+1280),w,c
  7472  003D0E  B0D8               	btfsc	status,0,c
  7473  003D10  EF8C  F01E         	goto	u2851
  7474  003D14  EF8E  F01E         	goto	u2850
  7475  003D18                     u2851:
  7476  003D18  EF72  F01E         	goto	l3141
  7477  003D1C                     u2850:
  7478  003D1C  0012               	return		;funcret
  7479  003D1E                     __end_of_LED_WriteFull:
  7480                           	callstack 0
  7481                           
  7482 ;; *************** function _WS2812B_Write *****************
  7483 ;; Defined at:
  7484 ;;		line 3 in file "DivFunctions.c"
  7485 ;; Parameters:    Size  Location     Type
  7486 ;;  R               1    wreg     unsigned char 
  7487 ;;  G               1    2[COMRAM] unsigned char 
  7488 ;;  B               1    3[COMRAM] unsigned char 
  7489 ;;  W               1    4[COMRAM] unsigned char 
  7490 ;; Auto vars:     Size  Location     Type
  7491 ;;  R               1    5[COMRAM] unsigned char 
  7492 ;; Return value:  Size  Location     Type
  7493 ;;                  1    wreg      void 
  7494 ;; Registers used:
  7495 ;;		wreg, status,2, cstack
  7496 ;; Tracked objects:
  7497 ;;		On entry : 0/0
  7498 ;;		On exit  : 0/0
  7499 ;;		Unchanged: 0/0
  7500 ;; Data sizes:     COMRAM   BANK5   BANK6   BANK7   BANK8   BANK9  BANK10  BANK11  BANK12  BANK13  BANK14  BANK15  BANK1
      +6  BANK17  BANK18  BANK19  BANK20  BANK21
  7501 ;;      Params:         3       0       0       0       0       0       0       0       0       0       0       0       
      +0       0       0       0       0       0
  7502 ;;      Locals:         1       0       0       0       0       0       0       0       0       0       0       0       
      +0       0       0       0       0       0
  7503 ;;      Temps:          0       0       0       0       0       0       0       0       0       0       0       0       
      +0       0       0       0       0       0
  7504 ;;      Totals:         4       0       0       0       0       0       0       0       0       0       0       0       
      +0       0       0       0       0       0
  7505 ;;Total ram usage:        4 bytes
  7506 ;; Hardware stack levels used:    1
  7507 ;; Hardware stack levels required when called:    7
  7508 ;; This function calls:
  7509 ;;		_ws_send_byte
  7510 ;; This function is called by:
  7511 ;;		_LED_WriteFull
  7512 ;; This function uses a non-reentrant model
  7513 ;;
  7514                           
  7515                           	psect	text17
  7516  003E9E                     __ptext17:
  7517                           	callstack 0
  7518  003E9E                     _WS2812B_Write:
  7519                           	callstack 119
  7520                           
  7521                           ;incstack = 0
  7522                           ;WS2812B_Write@R stored from wreg
  7523  003E9E  6E06               	movwf	WS2812B_Write@R^(0+1280),c
  7524  003EA0                     
  7525                           ;DivFunctions.c: 3: void WS2812B_Write(uint8_t R, uint8_t G, uint8_t B, uint8_t W);DivFu
      +                          nctions.c: 4: {;DivFunctions.c: 5:     ws_send_byte(G);
  7526  003EA0  5003               	movf	WS2812B_Write@G^(0+1280),w,c
  7527  003EA2  EC03  F01D         	call	_ws_send_byte
  7528                           
  7529                           ;DivFunctions.c: 6:     ws_send_byte(R);
  7530  003EA6  5006               	movf	WS2812B_Write@R^(0+1280),w,c
  7531  003EA8  EC03  F01D         	call	_ws_send_byte
  7532                           
  7533                           ;DivFunctions.c: 7:     ws_send_byte(B);
  7534  003EAC  5004               	movf	WS2812B_Write@B^(0+1280),w,c
  7535  003EAE  EC03  F01D         	call	_ws_send_byte
  7536                           
  7537                           ;DivFunctions.c: 8:     ws_send_byte(W);
  7538  003EB2  5005               	movf	WS2812B_Write@W^(0+1280),w,c
  7539  003EB4  EC03  F01D         	call	_ws_send_byte
  7540  003EB8  0012               	return		;funcret
  7541  003EBA                     __end_of_WS2812B_Write:
  7542                           	callstack 0
  7543                           
  7544 ;; *************** function _ws_send_byte *****************
  7545 ;; Defined at:
  7546 ;;		line 24 in file "DivFunctions.c"
  7547 ;; Parameters:    Size  Location     Type
  7548 ;;  K               1    wreg     unsigned char 
  7549 ;; Auto vars:     Size  Location     Type
  7550 ;;  K               1    1[COMRAM] unsigned char 
  7551 ;; Return value:  Size  Location     Type
  7552 ;;                  1    wreg      void 
  7553 ;; Registers used:
  7554 ;;		wreg, status,2, cstack
  7555 ;; Tracked objects:
  7556 ;;		On entry : 0/0
  7557 ;;		On exit  : 0/0
  7558 ;;		Unchanged: 0/0
  7559 ;; Data sizes:     COMRAM   BANK5   BANK6   BANK7   BANK8   BANK9  BANK10  BANK11  BANK12  BANK13  BANK14  BANK15  BANK1
      +6  BANK17  BANK18  BANK19  BANK20  BANK21
  7560 ;;      Params:         0       0       0       0       0       0       0       0       0       0       0       0       
      +0       0       0       0       0       0
  7561 ;;      Locals:         1       0       0       0       0       0       0       0       0       0       0       0       
      +0       0       0       0       0       0
  7562 ;;      Temps:          0       0       0       0       0       0       0       0       0       0       0       0       
      +0       0       0       0       0       0
  7563 ;;      Totals:         1       0       0       0       0       0       0       0       0       0       0       0       
      +0       0       0       0       0       0
  7564 ;;Total ram usage:        1 bytes
  7565 ;; Hardware stack levels used:    1
  7566 ;; Hardware stack levels required when called:    6
  7567 ;; This function calls:
  7568 ;;		_onePulse
  7569 ;;		_zeroPulse
  7570 ;; This function is called by:
  7571 ;;		_WS2812B_Write
  7572 ;; This function uses a non-reentrant model
  7573 ;;
  7574                           
  7575                           	psect	text18
  7576  003A06                     __ptext18:
  7577                           	callstack 0
  7578  003A06                     _ws_send_byte:
  7579                           	callstack 119
  7580                           
  7581                           ;incstack = 0
  7582                           ;ws_send_byte@K stored from wreg
  7583  003A06  6E02               	movwf	ws_send_byte@K^(0+1280),c
  7584  003A08                     
  7585                           ;DivFunctions.c: 24: void ws_send_byte(uint8_t K);DivFunctions.c: 25: {;DivFunctions.c: 
      +                          26:     if(K & 0b10000000) {onePulse();}
  7586  003A08  AE02               	btfss	ws_send_byte@K^(0+1280),7,c
  7587  003A0A  EF09  F01D         	goto	u2641
  7588  003A0E  EF0B  F01D         	goto	u2640
  7589  003A12                     u2641:
  7590  003A12  EF0F  F01D         	goto	l2927
  7591  003A16                     u2640:
  7592  003A16  EC85  F01F         	call	_onePulse	;wreg free
  7593  003A1A  EF11  F01D         	goto	l2929
  7594  003A1E                     l2927:
  7595  003A1E  EC81  F01F         	call	_zeroPulse	;wreg free
  7596  003A22                     l2929:
  7597                           
  7598                           ;DivFunctions.c: 29:     if(K & 0b01000000) {onePulse();}
  7599  003A22  AC02               	btfss	ws_send_byte@K^(0+1280),6,c
  7600  003A24  EF16  F01D         	goto	u2651
  7601  003A28  EF18  F01D         	goto	u2650
  7602  003A2C                     u2651:
  7603  003A2C  EF1C  F01D         	goto	l2933
  7604  003A30                     u2650:
  7605  003A30  EC85  F01F         	call	_onePulse	;wreg free
  7606  003A34  EF1E  F01D         	goto	l2935
  7607  003A38                     l2933:
  7608  003A38  EC81  F01F         	call	_zeroPulse	;wreg free
  7609  003A3C                     l2935:
  7610                           
  7611                           ;DivFunctions.c: 32:     if(K & 0b00100000) {onePulse();}
  7612  003A3C  AA02               	btfss	ws_send_byte@K^(0+1280),5,c
  7613  003A3E  EF23  F01D         	goto	u2661
  7614  003A42  EF25  F01D         	goto	u2660
  7615  003A46                     u2661:
  7616  003A46  EF29  F01D         	goto	l2939
  7617  003A4A                     u2660:
  7618  003A4A  EC85  F01F         	call	_onePulse	;wreg free
  7619  003A4E  EF2B  F01D         	goto	l2941
  7620  003A52                     l2939:
  7621  003A52  EC81  F01F         	call	_zeroPulse	;wreg free
  7622  003A56                     l2941:
  7623                           
  7624                           ;DivFunctions.c: 35:     if(K & 0b00010000) {onePulse();}
  7625  003A56  A802               	btfss	ws_send_byte@K^(0+1280),4,c
  7626  003A58  EF30  F01D         	goto	u2671
  7627  003A5C  EF32  F01D         	goto	u2670
  7628  003A60                     u2671:
  7629  003A60  EF36  F01D         	goto	l2945
  7630  003A64                     u2670:
  7631  003A64  EC85  F01F         	call	_onePulse	;wreg free
  7632  003A68  EF38  F01D         	goto	l2947
  7633  003A6C                     l2945:
  7634  003A6C  EC81  F01F         	call	_zeroPulse	;wreg free
  7635  003A70                     l2947:
  7636                           
  7637                           ;DivFunctions.c: 38:     if(K & 0b00001000) {onePulse();}
  7638  003A70  A602               	btfss	ws_send_byte@K^(0+1280),3,c
  7639  003A72  EF3D  F01D         	goto	u2681
  7640  003A76  EF3F  F01D         	goto	u2680
  7641  003A7A                     u2681:
  7642  003A7A  EF43  F01D         	goto	l2951
  7643  003A7E                     u2680:
  7644  003A7E  EC85  F01F         	call	_onePulse	;wreg free
  7645  003A82  EF45  F01D         	goto	l2953
  7646  003A86                     l2951:
  7647  003A86  EC81  F01F         	call	_zeroPulse	;wreg free
  7648  003A8A                     l2953:
  7649                           
  7650                           ;DivFunctions.c: 41:     if(K & 0b00000100) {onePulse();}
  7651  003A8A  A402               	btfss	ws_send_byte@K^(0+1280),2,c
  7652  003A8C  EF4A  F01D         	goto	u2691
  7653  003A90  EF4C  F01D         	goto	u2690
  7654  003A94                     u2691:
  7655  003A94  EF50  F01D         	goto	l2957
  7656  003A98                     u2690:
  7657  003A98  EC85  F01F         	call	_onePulse	;wreg free
  7658  003A9C  EF52  F01D         	goto	l2959
  7659  003AA0                     l2957:
  7660  003AA0  EC81  F01F         	call	_zeroPulse	;wreg free
  7661  003AA4                     l2959:
  7662                           
  7663                           ;DivFunctions.c: 44:     if(K & 0b00000010) {onePulse();}
  7664  003AA4  A202               	btfss	ws_send_byte@K^(0+1280),1,c
  7665  003AA6  EF57  F01D         	goto	u2701
  7666  003AAA  EF59  F01D         	goto	u2700
  7667  003AAE                     u2701:
  7668  003AAE  EF5D  F01D         	goto	l2963
  7669  003AB2                     u2700:
  7670  003AB2  EC85  F01F         	call	_onePulse	;wreg free
  7671  003AB6  EF5F  F01D         	goto	l2965
  7672  003ABA                     l2963:
  7673  003ABA  EC81  F01F         	call	_zeroPulse	;wreg free
  7674  003ABE                     l2965:
  7675                           
  7676                           ;DivFunctions.c: 47:     if(K & 0b00000001) {onePulse();}
  7677  003ABE  A002               	btfss	ws_send_byte@K^(0+1280),0,c
  7678  003AC0  EF64  F01D         	goto	u2711
  7679  003AC4  EF66  F01D         	goto	u2710
  7680  003AC8                     u2711:
  7681  003AC8  EF6A  F01D         	goto	l2969
  7682  003ACC                     u2710:
  7683  003ACC  EC85  F01F         	call	_onePulse	;wreg free
  7684  003AD0  EF6C  F01D         	goto	l718
  7685  003AD4                     l2969:
  7686  003AD4  EC81  F01F         	call	_zeroPulse	;wreg free
  7687  003AD8                     l718:
  7688  003AD8  0012               	return		;funcret
  7689  003ADA                     __end_of_ws_send_byte:
  7690                           	callstack 0
  7691                           
  7692 ;; *************** function _zeroPulse *****************
  7693 ;; Defined at:
  7694 ;;		line 20 in file "DivFunctions.c"
  7695 ;; Parameters:    Size  Location     Type
  7696 ;;		None
  7697 ;; Auto vars:     Size  Location     Type
  7698 ;;		None
  7699 ;; Return value:  Size  Location     Type
  7700 ;;                  1    wreg      void 
  7701 ;; Registers used:
  7702 ;;		wreg, status,2, cstack
  7703 ;; Tracked objects:
  7704 ;;		On entry : 0/0
  7705 ;;		On exit  : 0/0
  7706 ;;		Unchanged: 0/0
  7707 ;; Data sizes:     COMRAM   BANK5   BANK6   BANK7   BANK8   BANK9  BANK10  BANK11  BANK12  BANK13  BANK14  BANK15  BANK1
      +6  BANK17  BANK18  BANK19  BANK20  BANK21
  7708 ;;      Params:         0       0       0       0       0       0       0       0       0       0       0       0       
      +0       0       0       0       0       0
  7709 ;;      Locals:         0       0       0       0       0       0       0       0       0       0       0       0       
      +0       0       0       0       0       0
  7710 ;;      Temps:          0       0       0       0       0       0       0       0       0       0       0       0       
      +0       0       0       0       0       0
  7711 ;;      Totals:         0       0       0       0       0       0       0       0       0       0       0       0       
      +0       0       0       0       0       0
  7712 ;;Total ram usage:        0 bytes
  7713 ;; Hardware stack levels used:    1
  7714 ;; Hardware stack levels required when called:    5
  7715 ;; This function calls:
  7716 ;;		_SPI1_ExchangeByte
  7717 ;; This function is called by:
  7718 ;;		_ws_send_byte
  7719 ;; This function uses a non-reentrant model
  7720 ;;
  7721                           
  7722                           	psect	text19
  7723  003F02                     __ptext19:
  7724                           	callstack 0
  7725  003F02                     _zeroPulse:
  7726                           	callstack 119
  7727  003F02                     
  7728                           ;DivFunctions.c: 22:     SPI1_ExchangeByte(0xC0);
  7729  003F02  0EC0               	movlw	192
  7730  003F04  ECD5  F01E         	call	_SPI1_ExchangeByte
  7731  003F08  0012               	return		;funcret
  7732  003F0A                     __end_of_zeroPulse:
  7733                           	callstack 0
  7734                           
  7735 ;; *************** function _onePulse *****************
  7736 ;; Defined at:
  7737 ;;		line 15 in file "DivFunctions.c"
  7738 ;; Parameters:    Size  Location     Type
  7739 ;;		None
  7740 ;; Auto vars:     Size  Location     Type
  7741 ;;		None
  7742 ;; Return value:  Size  Location     Type
  7743 ;;                  1    wreg      void 
  7744 ;; Registers used:
  7745 ;;		wreg, status,2, cstack
  7746 ;; Tracked objects:
  7747 ;;		On entry : 0/0
  7748 ;;		On exit  : 0/0
  7749 ;;		Unchanged: 0/0
  7750 ;; Data sizes:     COMRAM   BANK5   BANK6   BANK7   BANK8   BANK9  BANK10  BANK11  BANK12  BANK13  BANK14  BANK15  BANK1
      +6  BANK17  BANK18  BANK19  BANK20  BANK21
  7751 ;;      Params:         0       0       0       0       0       0       0       0       0       0       0       0       
      +0       0       0       0       0       0
  7752 ;;      Locals:         0       0       0       0       0       0       0       0       0       0       0       0       
      +0       0       0       0       0       0
  7753 ;;      Temps:          0       0       0       0       0       0       0       0       0       0       0       0       
      +0       0       0       0       0       0
  7754 ;;      Totals:         0       0       0       0       0       0       0       0       0       0       0       0       
      +0       0       0       0       0       0
  7755 ;;Total ram usage:        0 bytes
  7756 ;; Hardware stack levels used:    1
  7757 ;; Hardware stack levels required when called:    5
  7758 ;; This function calls:
  7759 ;;		_SPI1_ExchangeByte
  7760 ;; This function is called by:
  7761 ;;		_ws_send_byte
  7762 ;; This function uses a non-reentrant model
  7763 ;;
  7764                           
  7765                           	psect	text20
  7766  003F0A                     __ptext20:
  7767                           	callstack 0
  7768  003F0A                     _onePulse:
  7769                           	callstack 119
  7770  003F0A                     
  7771                           ;DivFunctions.c: 17:     SPI1_ExchangeByte(0xF0);
  7772  003F0A  0EF0               	movlw	240
  7773  003F0C  ECD5  F01E         	call	_SPI1_ExchangeByte
  7774  003F10  0012               	return		;funcret
  7775  003F12                     __end_of_onePulse:
  7776                           	callstack 0
  7777                           
  7778 ;; *************** function _SPI1_ExchangeByte *****************
  7779 ;; Defined at:
  7780 ;;		line 100 in file "mcc_generated_files/spi1.c"
  7781 ;; Parameters:    Size  Location     Type
  7782 ;;  data            1    wreg     unsigned char 
  7783 ;; Auto vars:     Size  Location     Type
  7784 ;;  data            1    0[COMRAM] unsigned char 
  7785 ;; Return value:  Size  Location     Type
  7786 ;;                  1    wreg      unsigned char 
  7787 ;; Registers used:
  7788 ;;		wreg, status,2
  7789 ;; Tracked objects:
  7790 ;;		On entry : 0/0
  7791 ;;		On exit  : 0/0
  7792 ;;		Unchanged: 0/0
  7793 ;; Data sizes:     COMRAM   BANK5   BANK6   BANK7   BANK8   BANK9  BANK10  BANK11  BANK12  BANK13  BANK14  BANK15  BANK1
      +6  BANK17  BANK18  BANK19  BANK20  BANK21
  7794 ;;      Params:         0       0       0       0       0       0       0       0       0       0       0       0       
      +0       0       0       0       0       0
  7795 ;;      Locals:         1       0       0       0       0       0       0       0       0       0       0       0       
      +0       0       0       0       0       0
  7796 ;;      Temps:          0       0       0       0       0       0       0       0       0       0       0       0       
      +0       0       0       0       0       0
  7797 ;;      Totals:         1       0       0       0       0       0       0       0       0       0       0       0       
      +0       0       0       0       0       0
  7798 ;;Total ram usage:        1 bytes
  7799 ;; Hardware stack levels used:    1
  7800 ;; Hardware stack levels required when called:    4
  7801 ;; This function calls:
  7802 ;;		Nothing
  7803 ;; This function is called by:
  7804 ;;		_onePulse
  7805 ;;		_zeroPulse
  7806 ;;		_SPI1_WriteBlock
  7807 ;;		_SPI1_ReadBlock
  7808 ;; This function uses a non-reentrant model
  7809 ;;
  7810                           
  7811                           	psect	text21
  7812  003DAA                     __ptext21:
  7813                           	callstack 0
  7814  003DAA                     _SPI1_ExchangeByte:
  7815                           	callstack 119
  7816                           
  7817                           ;incstack = 0
  7818                           ;SPI1_ExchangeByte@data stored from wreg
  7819  003DAA  6E01               	movwf	SPI1_ExchangeByte@data^(0+1280),c
  7820  003DAC                     
  7821                           ;mcc_generated_files/spi1.c: 100: uint8_t SPI1_ExchangeByte(uint8_t data);mcc_generated_
      +                          files/spi1.c: 101: {;mcc_generated_files/spi1.c: 102:     SPI1TCNTL = 1;
  7822  003DAC  0E01               	movlw	1
  7823  003DAE  0100               	movlb	0	; () banked
  7824  003DB0  6F82               	movwf	130,b	;volatile
  7825  003DB2                     
  7826                           ; BSR set to: 0
  7827                           ;mcc_generated_files/spi1.c: 103:     SPI1TXB = data;
  7828  003DB2  0061  F404  F081   	movff	SPI1_ExchangeByte@data,129	;volatile
  7829  003DB8                     l300:
  7830  003DB8  A0B6               	btfss	182,0,c	;volatile
  7831  003DBA  EFE1  F01E         	goto	u2631
  7832  003DBE  EFE3  F01E         	goto	u2630
  7833  003DC2                     u2631:
  7834  003DC2  EFDC  F01E         	goto	l300
  7835  003DC6                     u2630:
  7836  003DC6                     
  7837                           ;mcc_generated_files/spi1.c: 105:     return SPI1RXB;
  7838  003DC6  0100               	movlb	0	; () banked
  7839  003DC8  5180               	movf	128,w,b	;volatile
  7840  003DCA                     
  7841                           ; BSR set to: 0
  7842  003DCA  0012               	return		;funcret
  7843  003DCC                     __end_of_SPI1_ExchangeByte:
  7844                           	callstack 0
  7845                           
  7846 ;; *************** function _DATAEE_WriteByte *****************
  7847 ;; Defined at:
  7848 ;;		line 231 in file "mcc_generated_files/memory.c"
  7849 ;; Parameters:    Size  Location     Type
  7850 ;;  bAdd            2    0[COMRAM] unsigned short 
  7851 ;;  bData           1    2[COMRAM] unsigned char 
  7852 ;; Auto vars:     Size  Location     Type
  7853 ;;  GIEBitValue     1    3[COMRAM] unsigned char 
  7854 ;; Return value:  Size  Location     Type
  7855 ;;                  1    wreg      void 
  7856 ;; Registers used:
  7857 ;;		wreg, status,2
  7858 ;; Tracked objects:
  7859 ;;		On entry : 0/0
  7860 ;;		On exit  : 0/0
  7861 ;;		Unchanged: 0/0
  7862 ;; Data sizes:     COMRAM   BANK5   BANK6   BANK7   BANK8   BANK9  BANK10  BANK11  BANK12  BANK13  BANK14  BANK15  BANK1
      +6  BANK17  BANK18  BANK19  BANK20  BANK21
  7863 ;;      Params:         3       0       0       0       0       0       0       0       0       0       0       0       
      +0       0       0       0       0       0
  7864 ;;      Locals:         1       0       0       0       0       0       0       0       0       0       0       0       
      +0       0       0       0       0       0
  7865 ;;      Temps:          0       0       0       0       0       0       0       0       0       0       0       0       
      +0       0       0       0       0       0
  7866 ;;      Totals:         4       0       0       0       0       0       0       0       0       0       0       0       
      +0       0       0       0       0       0
  7867 ;;Total ram usage:        4 bytes
  7868 ;; Hardware stack levels used:    1
  7869 ;; Hardware stack levels required when called:    4
  7870 ;; This function calls:
  7871 ;;		Nothing
  7872 ;; This function is called by:
  7873 ;;		_main
  7874 ;; This function uses a non-reentrant model
  7875 ;;
  7876                           
  7877                           	psect	text22
  7878  003C80                     __ptext22:
  7879                           	callstack 0
  7880  003C80                     _DATAEE_WriteByte:
  7881                           	callstack 123
  7882  003C80                     
  7883                           ;mcc_generated_files/memory.c: 231: void DATAEE_WriteByte(uint16_t bAdd, uint8_t bData);
      +                          mcc_generated_files/memory.c: 232: {;mcc_generated_files/memory.c: 233:     uint8_t GIEB
      +                          itValue = INTCON0bits.GIE;
  7884  003C80  0E00               	movlw	0
  7885  003C82  BED6               	btfsc	214,7,c	;volatile
  7886  003C84  0E01               	movlw	1
  7887  003C86  6E04               	movwf	DATAEE_WriteByte@GIEBitValue^(0+1280),c
  7888  003C88                     
  7889                           ;mcc_generated_files/memory.c: 236:     NVMADRU = 0x38;
  7890  003C88  0E38               	movlw	56
  7891  003C8A  0100               	movlb	0	; () banked
  7892  003C8C  6F45               	movwf	69,b	;volatile
  7893  003C8E                     
  7894                           ; BSR set to: 0
  7895                           ;mcc_generated_files/memory.c: 237:     NVMADRH = (uint8_t) ((bAdd & 0xFF00) >> 8);
  7896  003C8E  5002               	movf	(DATAEE_WriteByte@bAdd+1)^(0+1280),w,c
  7897  003C90  6F44               	movwf	68,b	;volatile
  7898  003C92                     
  7899                           ; BSR set to: 0
  7900                           ;mcc_generated_files/memory.c: 238:     NVMADRL = (uint8_t) (bAdd & 0x00FF);
  7901  003C92  0061  F404  F043   	movff	DATAEE_WriteByte@bAdd,67	;volatile
  7902  003C98                     
  7903                           ; BSR set to: 0
  7904                           ;mcc_generated_files/memory.c: 241:     NVMDATL = bData;
  7905  003C98  0061  F40C  F046   	movff	DATAEE_WriteByte@bData,70	;volatile
  7906  003C9E                     
  7907                           ; BSR set to: 0
  7908                           ;mcc_generated_files/memory.c: 244:     NVMCON1bits.NVMCMD = 0b011;
  7909  003C9E  5141               	movf	65,w,b	;volsfr
  7910  003CA0  0BF8               	andlw	-8
  7911  003CA2  0903               	iorlw	3
  7912  003CA4  6F41               	movwf	65,b	;volsfr
  7913  003CA6                     
  7914                           ; BSR set to: 0
  7915                           ;mcc_generated_files/memory.c: 247:     INTCON0bits.GIE = 0;
  7916  003CA6  9ED6               	bcf	214,7,c	;volatile
  7917  003CA8                     
  7918                           ; BSR set to: 0
  7919                           ;mcc_generated_files/memory.c: 250:     NVMLOCK = 0x55;
  7920  003CA8  0E55               	movlw	85
  7921  003CAA  6F42               	movwf	66,b	;volatile
  7922  003CAC                     
  7923                           ; BSR set to: 0
  7924                           ;mcc_generated_files/memory.c: 251:     NVMLOCK = 0xAA;
  7925  003CAC  0EAA               	movlw	170
  7926  003CAE  6F42               	movwf	66,b	;volatile
  7927  003CB0                     
  7928                           ; BSR set to: 0
  7929                           ;mcc_generated_files/memory.c: 254:     NVMCON0bits.GO = 1;
  7930  003CB0  8140               	bsf	64,0,b	;volatile
  7931  003CB2                     l396:
  7932                           
  7933                           ; BSR set to: 0
  7934  003CB2  B140               	btfsc	64,0,b	;volatile
  7935  003CB4  EF5E  F01E         	goto	u2821
  7936  003CB8  EF60  F01E         	goto	u2820
  7937  003CBC                     u2821:
  7938  003CBC  EF59  F01E         	goto	l396
  7939  003CC0                     u2820:
  7940  003CC0                     
  7941                           ; BSR set to: 0
  7942                           ;mcc_generated_files/memory.c: 258:     INTCON0bits.GIE = GIEBitValue;
  7943  003CC0  B004               	btfsc	DATAEE_WriteByte@GIEBitValue^(0+1280),0,c
  7944  003CC2  D002               	bra	u2835
  7945  003CC4  9ED6               	bcf	214,7,c	;volatile
  7946  003CC6  D001               	bra	u2836
  7947  003CC8                     u2835:
  7948  003CC8  8ED6               	bsf	214,7,c	;volatile
  7949  003CCA                     u2836:
  7950  003CCA                     
  7951                           ;mcc_generated_files/memory.c: 261:     NVMCON1bits.NVMCMD = 0b000;
  7952  003CCA  0EF8               	movlw	-8
  7953  003CCC  0100               	movlb	0	; () banked
  7954  003CCE  1741               	andwf	65,f,b	;volsfr
  7955  003CD0                     
  7956                           ; BSR set to: 0
  7957  003CD0  0012               	return		;funcret
  7958  003CD2                     __end_of_DATAEE_WriteByte:
  7959                           	callstack 0
  7960                           
  7961 ;; *************** function _DATAEE_ReadByte *****************
  7962 ;; Defined at:
  7963 ;;		line 264 in file "mcc_generated_files/memory.c"
  7964 ;; Parameters:    Size  Location     Type
  7965 ;;  bAdd            2    0[COMRAM] unsigned short 
  7966 ;; Auto vars:     Size  Location     Type
  7967 ;;		None
  7968 ;; Return value:  Size  Location     Type
  7969 ;;                  1    wreg      unsigned char 
  7970 ;; Registers used:
  7971 ;;		wreg, status,2
  7972 ;; Tracked objects:
  7973 ;;		On entry : 0/0
  7974 ;;		On exit  : 0/0
  7975 ;;		Unchanged: 0/0
  7976 ;; Data sizes:     COMRAM   BANK5   BANK6   BANK7   BANK8   BANK9  BANK10  BANK11  BANK12  BANK13  BANK14  BANK15  BANK1
      +6  BANK17  BANK18  BANK19  BANK20  BANK21
  7977 ;;      Params:         2       0       0       0       0       0       0       0       0       0       0       0       
      +0       0       0       0       0       0
  7978 ;;      Locals:         0       0       0       0       0       0       0       0       0       0       0       0       
      +0       0       0       0       0       0
  7979 ;;      Temps:          0       0       0       0       0       0       0       0       0       0       0       0       
      +0       0       0       0       0       0
  7980 ;;      Totals:         2       0       0       0       0       0       0       0       0       0       0       0       
      +0       0       0       0       0       0
  7981 ;;Total ram usage:        2 bytes
  7982 ;; Hardware stack levels used:    1
  7983 ;; Hardware stack levels required when called:    4
  7984 ;; This function calls:
  7985 ;;		Nothing
  7986 ;; This function is called by:
  7987 ;;		_main
  7988 ;; This function uses a non-reentrant model
  7989 ;;
  7990                           
  7991                           	psect	text23
  7992  003ED4                     __ptext23:
  7993                           	callstack 0
  7994  003ED4                     _DATAEE_ReadByte:
  7995                           	callstack 123
  7996  003ED4                     
  7997                           ;mcc_generated_files/memory.c: 264: uint8_t DATAEE_ReadByte(uint16_t bAdd);mcc_generated
      +                          _files/memory.c: 265: {;mcc_generated_files/memory.c: 267:     NVMADRU = 0x38;
  7998  003ED4  0E38               	movlw	56
  7999  003ED6  0100               	movlb	0	; () banked
  8000  003ED8  6F45               	movwf	69,b	;volatile
  8001                           
  8002                           ;mcc_generated_files/memory.c: 268:     NVMADRH = (uint8_t) ((bAdd & 0xFF00) >> 8);
  8003  003EDA  5002               	movf	(DATAEE_ReadByte@bAdd+1)^(0+1280),w,c
  8004  003EDC  6F44               	movwf	68,b	;volatile
  8005  003EDE                     
  8006                           ; BSR set to: 0
  8007                           ;mcc_generated_files/memory.c: 269:     NVMADRL = (uint8_t) (bAdd & 0x00FF);
  8008  003EDE  0061  F404  F043   	movff	DATAEE_ReadByte@bAdd,67	;volatile
  8009                           
  8010                           ;mcc_generated_files/memory.c: 272:     NVMCON1bits.NVMCMD = 0b000;
  8011  003EE4  0EF8               	movlw	-8
  8012  003EE6  1741               	andwf	65,f,b	;volsfr
  8013  003EE8                     
  8014                           ; BSR set to: 0
  8015                           ;mcc_generated_files/memory.c: 273:     NVMCON0bits.GO = 1;
  8016  003EE8  8140               	bsf	64,0,b	;volatile
  8017                           
  8018                           ;mcc_generated_files/memory.c: 275:     return NVMDATL;
  8019  003EEA  5146               	movf	70,w,b	;volatile
  8020  003EEC                     
  8021                           ; BSR set to: 0
  8022  003EEC  0012               	return		;funcret
  8023  003EEE                     __end_of_DATAEE_ReadByte:
  8024                           	callstack 0
  8025                           
  8026 ;; *************** function _ADCC_GetSingleConversion *****************
  8027 ;; Defined at:
  8028 ;;		line 137 in file "mcc_generated_files/adcc.c"
  8029 ;; Parameters:    Size  Location     Type
  8030 ;;  channel         1    wreg     enum E12898
  8031 ;; Auto vars:     Size  Location     Type
  8032 ;;  channel         1    4[COMRAM] enum E12898
  8033 ;; Return value:  Size  Location     Type
  8034 ;;                  2    0[COMRAM] unsigned short 
  8035 ;; Registers used:
  8036 ;;		wreg, status,2, status,0
  8037 ;; Tracked objects:
  8038 ;;		On entry : 0/0
  8039 ;;		On exit  : 0/0
  8040 ;;		Unchanged: 0/0
  8041 ;; Data sizes:     COMRAM   BANK5   BANK6   BANK7   BANK8   BANK9  BANK10  BANK11  BANK12  BANK13  BANK14  BANK15  BANK1
      +6  BANK17  BANK18  BANK19  BANK20  BANK21
  8042 ;;      Params:         2       0       0       0       0       0       0       0       0       0       0       0       
      +0       0       0       0       0       0
  8043 ;;      Locals:         1       0       0       0       0       0       0       0       0       0       0       0       
      +0       0       0       0       0       0
  8044 ;;      Temps:          2       0       0       0       0       0       0       0       0       0       0       0       
      +0       0       0       0       0       0
  8045 ;;      Totals:         5       0       0       0       0       0       0       0       0       0       0       0       
      +0       0       0       0       0       0
  8046 ;;Total ram usage:        5 bytes
  8047 ;; Hardware stack levels used:    1
  8048 ;; Hardware stack levels required when called:    4
  8049 ;; This function calls:
  8050 ;;		Nothing
  8051 ;; This function is called by:
  8052 ;;		_main
  8053 ;; This function uses a non-reentrant model
  8054 ;;
  8055                           
  8056                           	psect	text24
  8057  003D1E                     __ptext24:
  8058                           	callstack 0
  8059  003D1E                     _ADCC_GetSingleConversion:
  8060                           	callstack 123
  8061                           
  8062                           ; BSR set to: 0
  8063                           ;incstack = 0
  8064                           ;ADCC_GetSingleConversion@channel stored from wreg
  8065  003D1E  6E05               	movwf	ADCC_GetSingleConversion@channel^(0+1280),c
  8066  003D20                     
  8067                           ;mcc_generated_files/adcc.c: 137: adc_result_t ADCC_GetSingleConversion(adcc_channel_t c
      +                          hannel);mcc_generated_files/adcc.c: 138: {;mcc_generated_files/adcc.c: 140:     ADPCH = 
      +                          channel;
  8068  003D20  0061  F414  F3EC   	movff	ADCC_GetSingleConversion@channel,1004	;volatile
  8069  003D26                     
  8070                           ;mcc_generated_files/adcc.c: 143:     ADCON0bits.ADON = 1;
  8071  003D26  0103               	movlb	3	; () banked
  8072  003D28  8FF3               	bsf	243,7,b	;volatile
  8073  003D2A                     
  8074                           ; BSR set to: 3
  8075                           ;mcc_generated_files/adcc.c: 146:     ADCON0bits.ADCONT = 0;
  8076  003D2A  9DF3               	bcf	243,6,b	;volatile
  8077  003D2C                     
  8078                           ; BSR set to: 3
  8079                           ;mcc_generated_files/adcc.c: 149:     ADCON0bits.ADGO = 1;
  8080  003D2C  81F3               	bsf	243,0,b	;volatile
  8081  003D2E                     l147:
  8082                           
  8083                           ; BSR set to: 3
  8084                           ;mcc_generated_files/adcc.c: 153:     while (ADCON0bits.ADGO)
  8085  003D2E  B1F3               	btfsc	243,0,b	;volatile
  8086  003D30  EF9C  F01E         	goto	u2801
  8087  003D34  EF9E  F01E         	goto	u2800
  8088  003D38                     u2801:
  8089  003D38  EF97  F01E         	goto	l147
  8090  003D3C                     u2800:
  8091  003D3C                     
  8092                           ; BSR set to: 3
  8093                           ;mcc_generated_files/adcc.c: 159:     return ((adc_result_t)((ADRESH << 8) + ADRESL));
  8094  003D3C  51EB               	movf	235,w,b	;volatile
  8095  003D3E  6E04               	movwf	(??_ADCC_GetSingleConversion+1)^(0+1280),c
  8096  003D40  6A03               	clrf	??_ADCC_GetSingleConversion^(0+1280),c
  8097  003D42  51EA               	movf	234,w,b	;volatile
  8098  003D44  2403               	addwf	??_ADCC_GetSingleConversion^(0+1280),w,c
  8099  003D46  6E01               	movwf	?_ADCC_GetSingleConversion^(0+1280),c
  8100  003D48  0E00               	movlw	0
  8101  003D4A  2004               	addwfc	(??_ADCC_GetSingleConversion+1)^(0+1280),w,c
  8102  003D4C  6E02               	movwf	(?_ADCC_GetSingleConversion+1)^(0+1280),c
  8103  003D4E                     
  8104                           ; BSR set to: 3
  8105  003D4E  0012               	return		;funcret
  8106  003D50                     __end_of_ADCC_GetSingleConversion:
  8107                           	callstack 0
  8108                           
  8109 ;; *************** function _ADCC_DischargeSampleCapacitor *****************
  8110 ;; Defined at:
  8111 ;;		line 174 in file "mcc_generated_files/adcc.c"
  8112 ;; Parameters:    Size  Location     Type
  8113 ;;		None
  8114 ;; Auto vars:     Size  Location     Type
  8115 ;;		None
  8116 ;; Return value:  Size  Location     Type
  8117 ;;                  1    wreg      void 
  8118 ;; Registers used:
  8119 ;;		wreg, status,2
  8120 ;; Tracked objects:
  8121 ;;		On entry : 0/0
  8122 ;;		On exit  : 0/0
  8123 ;;		Unchanged: 0/0
  8124 ;; Data sizes:     COMRAM   BANK5   BANK6   BANK7   BANK8   BANK9  BANK10  BANK11  BANK12  BANK13  BANK14  BANK15  BANK1
      +6  BANK17  BANK18  BANK19  BANK20  BANK21
  8125 ;;      Params:         0       0       0       0       0       0       0       0       0       0       0       0       
      +0       0       0       0       0       0
  8126 ;;      Locals:         0       0       0       0       0       0       0       0       0       0       0       0       
      +0       0       0       0       0       0
  8127 ;;      Temps:          0       0       0       0       0       0       0       0       0       0       0       0       
      +0       0       0       0       0       0
  8128 ;;      Totals:         0       0       0       0       0       0       0       0       0       0       0       0       
      +0       0       0       0       0       0
  8129 ;;Total ram usage:        0 bytes
  8130 ;; Hardware stack levels used:    1
  8131 ;; Hardware stack levels required when called:    4
  8132 ;; This function calls:
  8133 ;;		Nothing
  8134 ;; This function is called by:
  8135 ;;		_main
  8136 ;; This function uses a non-reentrant model
  8137 ;;
  8138                           
  8139                           	psect	text25
  8140  003F12                     __ptext25:
  8141                           	callstack 0
  8142  003F12                     _ADCC_DischargeSampleCapacitor:
  8143                           	callstack 123
  8144  003F12                     
  8145                           ;mcc_generated_files/adcc.c: 177:     ADPCH = 0x3b;
  8146  003F12  0E3B               	movlw	59
  8147  003F14  0103               	movlb	3	; () banked
  8148  003F16  6FEC               	movwf	236,b	;volatile
  8149  003F18                     
  8150                           ; BSR set to: 3
  8151  003F18  0012               	return		;funcret
  8152  003F1A                     __end_of_ADCC_DischargeSampleCapacitor:
  8153                           	callstack 0
  8154                           
  8155 ;; *************** function _INTERRUPT_InterruptManager *****************
  8156 ;; Defined at:
  8157 ;;		line 58 in file "mcc_generated_files/interrupt_manager.c"
  8158 ;; Parameters:    Size  Location     Type
  8159 ;;		None
  8160 ;; Auto vars:     Size  Location     Type
  8161 ;;		None
  8162 ;; Return value:  Size  Location     Type
  8163 ;;                  1    wreg      void 
  8164 ;; Registers used:
  8165 ;;		wreg, status,2, status,0, pclath, tosl, cstack
  8166 ;; Tracked objects:
  8167 ;;		On entry : 0/0
  8168 ;;		On exit  : 0/0
  8169 ;;		Unchanged: 0/0
  8170 ;; Data sizes:     COMRAM   BANK5   BANK6   BANK7   BANK8   BANK9  BANK10  BANK11  BANK12  BANK13  BANK14  BANK15  BANK1
      +6  BANK17  BANK18  BANK19  BANK20  BANK21
  8171 ;;      Params:         0       0       0       0       0       0       0       0       0       0       0       0       
      +0       0       0       0       0       0
  8172 ;;      Locals:         0       0       0       0       0       0       0       0       0       0       0       0       
      +0       0       0       0       0       0
  8173 ;;      Temps:          0       0       0       0       0       0       0       0       0       0       0       0       
      +0       0       0       0       0       0
  8174 ;;      Totals:         0       0       0       0       0       0       0       0       0       0       0       0       
      +0       0       0       0       0       0
  8175 ;;Total ram usage:        0 bytes
  8176 ;; Hardware stack levels used:    1
  8177 ;; Hardware stack levels required when called:    3
  8178 ;; This function calls:
  8179 ;;		_TMR2_ISR
  8180 ;; This function is called by:
  8181 ;;		Interrupt level 2
  8182 ;; This function uses a non-reentrant model
  8183 ;;
  8184                           
  8185                           	psect	text26
  8186  003DCC                     __ptext26:
  8187                           	callstack 0
  8188  003DCC                     _INTERRUPT_InterruptManager:
  8189                           	callstack 119
  8190  003DCC                     
  8191                           ;mcc_generated_files/interrupt_manager.c: 61:     if(PIE3bits.TMR2IE == 1 && PIR3bits.TM
      +                          R2IF == 1)
  8192  003DCC  A6AB               	btfss	171,3,c	;volatile
  8193  003DCE  EFEB  F01E         	goto	i2u39_41
  8194  003DD2  EFED  F01E         	goto	i2u39_40
  8195  003DD6                     i2u39_41:
  8196  003DD6  EFF6  F01E         	goto	i2l423
  8197  003DDA                     i2u39_40:
  8198  003DDA  A6B6               	btfss	182,3,c	;volatile
  8199  003DDC  EFF2  F01E         	goto	i2u40_41
  8200  003DE0  EFF4  F01E         	goto	i2u40_40
  8201  003DE4                     i2u40_41:
  8202  003DE4  EFF6  F01E         	goto	i2l423
  8203  003DE8                     i2u40_40:
  8204  003DE8                     
  8205                           ;mcc_generated_files/interrupt_manager.c: 62:     {;mcc_generated_files/interrupt_manage
      +                          r.c: 63:         TMR2_ISR();
  8206  003DE8  EC8D  F01F         	call	_TMR2_ISR	;wreg free
  8207  003DEC                     i2l423:
  8208  003DEC  0011               	retfie		f
  8209  003DEE                     __end_of_INTERRUPT_InterruptManager:
  8210                           	callstack 0
  8211                           
  8212 ;; *************** function _TMR2_ISR *****************
  8213 ;; Defined at:
  8214 ;;		line 165 in file "mcc_generated_files/tmr2.c"
  8215 ;; Parameters:    Size  Location     Type
  8216 ;;		None
  8217 ;; Auto vars:     Size  Location     Type
  8218 ;;		None
  8219 ;; Return value:  Size  Location     Type
  8220 ;;                  1    wreg      void 
  8221 ;; Registers used:
  8222 ;;		wreg, status,2, status,0, pclath, tosl, cstack
  8223 ;; Tracked objects:
  8224 ;;		On entry : 0/0
  8225 ;;		On exit  : 0/0
  8226 ;;		Unchanged: 0/0
  8227 ;; Data sizes:     COMRAM   BANK5   BANK6   BANK7   BANK8   BANK9  BANK10  BANK11  BANK12  BANK13  BANK14  BANK15  BANK1
      +6  BANK17  BANK18  BANK19  BANK20  BANK21
  8228 ;;      Params:         0       0       0       0       0       0       0       0       0       0       0       0       
      +0       0       0       0       0       0
  8229 ;;      Locals:         0       0       0       0       0       0       0       0       0       0       0       0       
      +0       0       0       0       0       0
  8230 ;;      Temps:          0       0       0       0       0       0       0       0       0       0       0       0       
      +0       0       0       0       0       0
  8231 ;;      Totals:         0       0       0       0       0       0       0       0       0       0       0       0       
      +0       0       0       0       0       0
  8232 ;;Total ram usage:        0 bytes
  8233 ;; Hardware stack levels used:    1
  8234 ;; Hardware stack levels required when called:    2
  8235 ;; This function calls:
  8236 ;;		_TMR2_CallBack
  8237 ;; This function is called by:
  8238 ;;		_INTERRUPT_InterruptManager
  8239 ;; This function uses a non-reentrant model
  8240 ;;
  8241                           
  8242                           	psect	text27
  8243  003F1A                     __ptext27:
  8244                           	callstack 0
  8245  003F1A                     _TMR2_ISR:
  8246                           	callstack 119
  8247  003F1A                     
  8248                           ;mcc_generated_files/tmr2.c: 169:     PIR3bits.TMR2IF = 0;
  8249  003F1A  96B6               	bcf	182,3,c	;volatile
  8250  003F1C                     
  8251                           ;mcc_generated_files/tmr2.c: 173:     TMR2_CallBack();
  8252  003F1C  ECBF  F01E         	call	_TMR2_CallBack	;wreg free
  8253  003F20  0012               	return		;funcret
  8254  003F22                     __end_of_TMR2_ISR:
  8255                           	callstack 0
  8256                           
  8257 ;; *************** function _TMR2_CallBack *****************
  8258 ;; Defined at:
  8259 ;;		line 176 in file "mcc_generated_files/tmr2.c"
  8260 ;; Parameters:    Size  Location     Type
  8261 ;;		None
  8262 ;; Auto vars:     Size  Location     Type
  8263 ;;		None
  8264 ;; Return value:  Size  Location     Type
  8265 ;;                  1    wreg      void 
  8266 ;; Registers used:
  8267 ;;		wreg, status,2, status,0, pclath, tosl, cstack
  8268 ;; Tracked objects:
  8269 ;;		On entry : 0/0
  8270 ;;		On exit  : 0/0
  8271 ;;		Unchanged: 0/0
  8272 ;; Data sizes:     COMRAM   BANK5   BANK6   BANK7   BANK8   BANK9  BANK10  BANK11  BANK12  BANK13  BANK14  BANK15  BANK1
      +6  BANK17  BANK18  BANK19  BANK20  BANK21
  8273 ;;      Params:         0       0       0       0       0       0       0       0       0       0       0       0       
      +0       0       0       0       0       0
  8274 ;;      Locals:         0       0       0       0       0       0       0       0       0       0       0       0       
      +0       0       0       0       0       0
  8275 ;;      Temps:          0       0       0       0       0       0       0       0       0       0       0       0       
      +0       0       0       0       0       0
  8276 ;;      Totals:         0       0       0       0       0       0       0       0       0       0       0       0       
      +0       0       0       0       0       0
  8277 ;;Total ram usage:        0 bytes
  8278 ;; Hardware stack levels used:    1
  8279 ;; Hardware stack levels required when called:    1
  8280 ;; This function calls:
  8281 ;;		Absolute function
  8282 ;;		_LOOPDELAY_TimerISR
  8283 ;;		_TMR2_DefaultInterruptHandler
  8284 ;; This function is called by:
  8285 ;;		_TMR2_ISR
  8286 ;; This function uses a non-reentrant model
  8287 ;;
  8288                           
  8289                           	psect	text28
  8290  003D7E                     __ptext28:
  8291                           	callstack 0
  8292  003D7E                     _TMR2_CallBack:
  8293                           	callstack 119
  8294  003D7E                     
  8295                           ;mcc_generated_files/tmr2.c: 180:     if(TMR2_InterruptHandler)
  8296  003D7E  503A               	movf	_TMR2_InterruptHandler^(0+1280),w,c
  8297  003D80  103B               	iorwf	(_TMR2_InterruptHandler+1)^(0+1280),w,c
  8298  003D82  B4D8               	btfsc	status,2,c
  8299  003D84  EFC6  F01E         	goto	i2u11_41
  8300  003D88  EFC8  F01E         	goto	i2u11_40
  8301  003D8C                     i2u11_41:
  8302  003D8C  EFD4  F01E         	goto	i2l503
  8303  003D90                     i2u11_40:
  8304  003D90                     
  8305                           ;mcc_generated_files/tmr2.c: 181:     {;mcc_generated_files/tmr2.c: 182:         TMR2_In
      +                          terruptHandler();
  8306  003D90  D802               	call	i2u12_48
  8307  003D92  EFD4  F01E         	goto	i2u12_49
  8308  003D96                     i2u12_48:
  8309  003D96  0005               	push	
  8310  003D98  6EFA               	movwf	pclath,c
  8311  003D9A  503A               	movf	_TMR2_InterruptHandler^(0+1280),w,c
  8312  003D9C  6EFD               	movwf	tosl,c
  8313  003D9E  503B               	movf	(_TMR2_InterruptHandler+1)^(0+1280),w,c
  8314  003DA0  6EFE               	movwf	tosh,c
  8315  003DA2  6AFF               	clrf	tosu,c
  8316  003DA4  50FA               	movf	pclath,w,c
  8317  003DA6  0012               	return		;indir
  8318  003DA8                     i2u12_49:
  8319  003DA8                     i2l503:
  8320  003DA8  0012               	return		;funcret
  8321  003DAA                     __end_of_TMR2_CallBack:
  8322                           	callstack 0
  8323                           
  8324 ;; *************** function _LOOPDELAY_TimerISR *****************
  8325 ;; Defined at:
  8326 ;;		line 9 in file "Loopdelay.c"
  8327 ;; Parameters:    Size  Location     Type
  8328 ;;		None
  8329 ;; Auto vars:     Size  Location     Type
  8330 ;;		None
  8331 ;; Return value:  Size  Location     Type
  8332 ;;                  1    wreg      void 
  8333 ;; Registers used:
  8334 ;;		wreg, status,2, status,0
  8335 ;; Tracked objects:
  8336 ;;		On entry : 0/0
  8337 ;;		On exit  : 0/0
  8338 ;;		Unchanged: 0/0
  8339 ;; Data sizes:     COMRAM   BANK5   BANK6   BANK7   BANK8   BANK9  BANK10  BANK11  BANK12  BANK13  BANK14  BANK15  BANK1
      +6  BANK17  BANK18  BANK19  BANK20  BANK21
  8340 ;;      Params:         0       0       0       0       0       0       0       0       0       0       0       0       
      +0       0       0       0       0       0
  8341 ;;      Locals:         0       0       0       0       0       0       0       0       0       0       0       0       
      +0       0       0       0       0       0
  8342 ;;      Temps:          0       0       0       0       0       0       0       0       0       0       0       0       
      +0       0       0       0       0       0
  8343 ;;      Totals:         0       0       0       0       0       0       0       0       0       0       0       0       
      +0       0       0       0       0       0
  8344 ;;Total ram usage:        0 bytes
  8345 ;; Hardware stack levels used:    1
  8346 ;; This function calls:
  8347 ;;		Nothing
  8348 ;; This function is called by:
  8349 ;;		_main
  8350 ;;		_TMR2_CallBack
  8351 ;; This function uses a non-reentrant model
  8352 ;;
  8353                           
  8354                           	psect	text29
  8355  003E2C                     __ptext29:
  8356                           	callstack 0
  8357  003E2C                     _LOOPDELAY_TimerISR:
  8358                           	callstack 119
  8359  003E2C                     
  8360                           ;Loopdelay.c: 11:     if(loopTimeCnt != 10000)
  8361  003E2C  0E10               	movlw	16
  8362  003E2E  1838               	xorwf	_loopTimeCnt^(0+1280),w,c	;volatile
  8363  003E30  E109               	bnz	i2u10_40
  8364  003E32  0E27               	movlw	39
  8365  003E34  1839               	xorwf	(_loopTimeCnt+1)^(0+1280),w,c	;volatile
  8366  003E36  B4D8               	btfsc	status,2,c
  8367  003E38  EF20  F01F         	goto	i2u10_41
  8368  003E3C  EF22  F01F         	goto	i2u10_40
  8369  003E40                     i2u10_41:
  8370  003E40  EF24  F01F         	goto	i2l732
  8371  003E44                     i2u10_40:
  8372  003E44                     
  8373                           ;Loopdelay.c: 12:     {;Loopdelay.c: 13:         loopTimeCnt += 1;
  8374  003E44  4A38               	infsnz	_loopTimeCnt^(0+1280),f,c	;volatile
  8375  003E46  2A39               	incf	(_loopTimeCnt+1)^(0+1280),f,c	;volatile
  8376  003E48                     i2l732:
  8377  003E48  0012               	return		;funcret
  8378  003E4A                     __end_of_LOOPDELAY_TimerISR:
  8379                           	callstack 0
  8380                           
  8381 ;; *************** function _TMR2_DefaultInterruptHandler *****************
  8382 ;; Defined at:
  8383 ;;		line 190 in file "mcc_generated_files/tmr2.c"
  8384 ;; Parameters:    Size  Location     Type
  8385 ;;		None
  8386 ;; Auto vars:     Size  Location     Type
  8387 ;;		None
  8388 ;; Return value:  Size  Location     Type
  8389 ;;                  1    wreg      void 
  8390 ;; Registers used:
  8391 ;;		None
  8392 ;; Tracked objects:
  8393 ;;		On entry : 0/0
  8394 ;;		On exit  : 0/0
  8395 ;;		Unchanged: 0/0
  8396 ;; Data sizes:     COMRAM   BANK5   BANK6   BANK7   BANK8   BANK9  BANK10  BANK11  BANK12  BANK13  BANK14  BANK15  BANK1
      +6  BANK17  BANK18  BANK19  BANK20  BANK21
  8397 ;;      Params:         0       0       0       0       0       0       0       0       0       0       0       0       
      +0       0       0       0       0       0
  8398 ;;      Locals:         0       0       0       0       0       0       0       0       0       0       0       0       
      +0       0       0       0       0       0
  8399 ;;      Temps:          0       0       0       0       0       0       0       0       0       0       0       0       
      +0       0       0       0       0       0
  8400 ;;      Totals:         0       0       0       0       0       0       0       0       0       0       0       0       
      +0       0       0       0       0       0
  8401 ;;Total ram usage:        0 bytes
  8402 ;; Hardware stack levels used:    1
  8403 ;; This function calls:
  8404 ;;		Nothing
  8405 ;; This function is called by:
  8406 ;;		_TMR2_Initialize
  8407 ;;		_TMR2_CallBack
  8408 ;; This function uses a non-reentrant model
  8409 ;;
  8410                           
  8411                           	psect	text30
  8412  003F26                     __ptext30:
  8413                           	callstack 0
  8414  003F26                     _TMR2_DefaultInterruptHandler:
  8415                           	callstack 119
  8416  003F26  0012               	return		;funcret
  8417  003F28                     __end_of_TMR2_DefaultInterruptHandler:
  8418                           	callstack 0
  8419                           
  8420                           ;
  8421                           ; Interrupt Vector Table @ 0x8
  8422                           ;
  8423                           
  8424                           	psect	ivt0x8
  8425  000008                     __pivt0x8:
  8426                           	callstack 0
  8427  000008                     ivt0x8_base:
  8428                           	callstack 0
  8429                           
  8430                           ; high-priority vector
  8431  000008  EFE6  F01E         	goto	_INTERRUPT_InterruptManager
  8432  000018                     	org	16
  8433                           
  8434                           ; low-priority vector
  8435  000018  00FF               	reset	
  8436                           
  8437                           	psect	text31
  8438  000000                     __ptext31:
  8439                           	callstack 0
  8440  000000                     
  8441                           	psect	rparam
  8442  0000                     
  8443                           	psect	idloc
  8444                           
  8445                           ;Config register IDLOC0 @ 0x200000
  8446                           ;	unspecified, using default values
  8447  200000                     	org	2097152
  8448  200000  0FFF               	dw	4095
  8449                           
  8450                           ;Config register IDLOC1 @ 0x200002
  8451                           ;	unspecified, using default values
  8452  200002                     	org	2097154
  8453  200002  0FFF               	dw	4095
  8454                           
  8455                           ;Config register IDLOC2 @ 0x200004
  8456                           ;	unspecified, using default values
  8457  200004                     	org	2097156
  8458  200004  0FFF               	dw	4095
  8459                           
  8460                           ;Config register IDLOC3 @ 0x200006
  8461                           ;	unspecified, using default values
  8462  200006                     	org	2097158
  8463  200006  0FFF               	dw	4095
  8464                           
  8465                           ;Config register IDLOC4 @ 0x200008
  8466                           ;	unspecified, using default values
  8467  200008                     	org	2097160
  8468  200008  0FFF               	dw	4095
  8469                           
  8470                           ;Config register IDLOC5 @ 0x20000A
  8471                           ;	unspecified, using default values
  8472  20000A                     	org	2097162
  8473  20000A  0FFF               	dw	4095
  8474                           
  8475                           ;Config register IDLOC6 @ 0x20000C
  8476                           ;	unspecified, using default values
  8477  20000C                     	org	2097164
  8478  20000C  0FFF               	dw	4095
  8479                           
  8480                           ;Config register IDLOC7 @ 0x20000E
  8481                           ;	unspecified, using default values
  8482  20000E                     	org	2097166
  8483  20000E  0FFF               	dw	4095
  8484                           
  8485                           ;Config register IDLOC8 @ 0x200010
  8486                           ;	unspecified, using default values
  8487  200010                     	org	2097168
  8488  200010  0FFF               	dw	4095
  8489                           
  8490                           ;Config register IDLOC9 @ 0x200012
  8491                           ;	unspecified, using default values
  8492  200012                     	org	2097170
  8493  200012  0FFF               	dw	4095
  8494                           
  8495                           ;Config register IDLOC10 @ 0x200014
  8496                           ;	unspecified, using default values
  8497  200014                     	org	2097172
  8498  200014  0FFF               	dw	4095
  8499                           
  8500                           ;Config register IDLOC11 @ 0x200016
  8501                           ;	unspecified, using default values
  8502  200016                     	org	2097174
  8503  200016  0FFF               	dw	4095
  8504                           
  8505                           ;Config register IDLOC12 @ 0x200018
  8506                           ;	unspecified, using default values
  8507  200018                     	org	2097176
  8508  200018  0FFF               	dw	4095
  8509                           
  8510                           ;Config register IDLOC13 @ 0x20001A
  8511                           ;	unspecified, using default values
  8512  20001A                     	org	2097178
  8513  20001A  0FFF               	dw	4095
  8514                           
  8515                           ;Config register IDLOC14 @ 0x20001C
  8516                           ;	unspecified, using default values
  8517  20001C                     	org	2097180
  8518  20001C  0FFF               	dw	4095
  8519                           
  8520                           ;Config register IDLOC15 @ 0x20001E
  8521                           ;	unspecified, using default values
  8522  20001E                     	org	2097182
  8523  20001E  0FFF               	dw	4095
  8524                           
  8525                           	psect	config
  8526                           
  8527                           ;Config register CONFIG1 @ 0x300000
  8528                           ;	External Oscillator Selection
  8529                           ;	FEXTOSC = OFF, Oscillator not enabled
  8530                           ;	Reset Oscillator Selection
  8531                           ;	RSTOSC = HFINTOSC_64MHZ, HFINTOSC with HFFRQ = 64 MHz and CDIV = 1:1
  8532  300000                     	org	3145728
  8533  300000  8C                 	db	140
  8534                           
  8535                           ;Config register CONFIG2 @ 0x300001
  8536                           ;	Clock out Enable bit
  8537                           ;	CLKOUTEN = OFF, CLKOUT function is disabled
  8538                           ;	PRLOCKED One-Way Set Enable bit
  8539                           ;	PR1WAY = ON, PRLOCKED bit can be cleared and set only once
  8540                           ;	Clock Switch Enable bit
  8541                           ;	CSWEN = ON, Writing to NOSC and NDIV is allowed
  8542                           ;	Fail-Safe Clock Monitor Enable bit
  8543                           ;	FCMEN = ON, Fail-Safe Clock Monitor enabled
  8544                           ;	Fail-Safe Clock Monitor - Primary XTAL Enable bit
  8545                           ;	FCMENP = ON, Fail-Safe Clock Monitor enabled; timer will flag FSCMP bit and OSFIF inte
      +                          rrupt on EXTOSC failure.
  8546                           ;	Fail-Safe Clock Monitor - Secondary XTAL Enable bit
  8547                           ;	FCMENS = ON, Fail-Safe Clock Monitor enabled; timer will flag FSCMP bit and OSFIF inte
      +                          rrupt on SOSC failure.
  8548  300001                     	org	3145729
  8549  300001  FF                 	db	255
  8550                           
  8551                           ;Config register CONFIG3 @ 0x300002
  8552                           ;	MCLR Enable bit
  8553                           ;	MCLRE = EXTMCLR, If LVP = 0, MCLR pin is MCLR; If LVP = 1, RE3 pin function is MCLR
  8554                           ;	Power-up timer selection bits
  8555                           ;	PWRTS = PWRT_OFF, PWRT is disabled
  8556                           ;	Multi-vector enable bit
  8557                           ;	MVECEN = OFF, Interrupt contoller does not use vector table to prioritze interrupts
  8558                           ;	IVTLOCK bit One-way set enable bit
  8559                           ;	IVT1WAY = ON, IVTLOCKED bit can be cleared and set only once
  8560                           ;	Low Power BOR Enable bit
  8561                           ;	LPBOREN = OFF, Low-Power BOR disabled
  8562                           ;	Brown-out Reset Enable bits
  8563                           ;	BOREN = SBORDIS, Brown-out Reset enabled , SBOREN bit is ignored
  8564  300002                     	org	3145730
  8565  300002  F7                 	db	247
  8566                           
  8567                           ;Config register CONFIG4 @ 0x300003
  8568                           ;	Brown-out Reset Voltage Selection bits
  8569                           ;	BORV = VBOR_1P9, Brown-out Reset Voltage (VBOR) set to 1.9V
  8570                           ;	ZCD Disable bit
  8571                           ;	ZCD = OFF, ZCD module is disabled. ZCD can be enabled by setting the ZCDSEN bit of ZCD
      +                          CON
  8572                           ;	PPSLOCK bit One-Way Set Enable bit
  8573                           ;	PPS1WAY = ON, PPSLOCKED bit can be cleared and set only once; PPS registers remain loc
      +                          ked after one clear/set cycle
  8574                           ;	Stack Full/Underflow Reset Enable bit
  8575                           ;	STVREN = ON, Stack full/underflow will cause Reset
  8576                           ;	Low Voltage Programming Enable bit
  8577                           ;	LVP = ON, Low voltage programming enabled. MCLR/VPP pin function is MCLR. MCLRE config
      +                          uration bit is ignored
  8578                           ;	Extended Instruction Set Enable bit
  8579                           ;	XINST = OFF, Extended Instruction Set and Indexed Addressing Mode disabled
  8580  300003                     	org	3145731
  8581  300003  FF                 	db	255
  8582                           
  8583                           ;Config register CONFIG5 @ 0x300004
  8584                           ;	WDT Period selection bits
  8585                           ;	WDTCPS = WDTCPS_31, Divider ratio 1:65536; software control of WDTPS
  8586                           ;	WDT operating mode
  8587                           ;	WDTE = OFF, WDT Disabled; SWDTEN is ignored
  8588  300004                     	org	3145732
  8589  300004  9F                 	db	159
  8590                           
  8591                           ;Config register CONFIG6 @ 0x300005
  8592                           ;	WDT Window Select bits
  8593                           ;	WDTCWS = WDTCWS_7, window always open (100%); software control; keyed access not requi
      +                          red
  8594                           ;	WDT input clock selector
  8595                           ;	WDTCCS = SC, Software Control
  8596  300005                     	org	3145733
  8597  300005  FF                 	db	255
  8598                           
  8599                           ;Config register CONFIG7 @ 0x300006
  8600                           ;	Boot Block Size selection bits
  8601                           ;	BBSIZE = BBSIZE_512, Boot Block size is 512 words
  8602                           ;	Boot Block enable bit
  8603                           ;	BBEN = OFF, Boot block disabled
  8604                           ;	Storage Area Flash enable bit
  8605                           ;	SAFEN = OFF, SAF disabled
  8606                           ;	Background Debugger
  8607                           ;	DEBUG = OFF, Background Debugger disabled
  8608  300006                     	org	3145734
  8609  300006  FF                 	db	255
  8610                           
  8611                           ;Config register CONFIG8 @ 0x300007
  8612                           ;	Boot Block Write Protection bit
  8613                           ;	WRTB = OFF, Boot Block not Write protected
  8614                           ;	Configuration Register Write Protection bit
  8615                           ;	WRTC = OFF, Configuration registers not Write protected
  8616                           ;	Data EEPROM Write Protection bit
  8617                           ;	WRTD = OFF, Data EEPROM not Write protected
  8618                           ;	SAF Write protection bit
  8619                           ;	WRTSAF = OFF, SAF not Write Protected
  8620                           ;	Application Block write protection bit
  8621                           ;	WRTAPP = OFF, Application Block not write protected
  8622  300007                     	org	3145735
  8623  300007  FF                 	db	255
  8624                           
  8625                           ;Config register CONFIG9 @ 0x300008
  8626                           ;	PFM and Data EEPROM Code Protection bit
  8627                           ;	CP = OFF, PFM and Data EEPROM code protection disabled
  8628  300008                     	org	3145736
  8629  300008  FF                 	db	255
  8630                           
  8631                           ; Padding undefined space
  8632  300009                     	org	3145737
  8633  300009  FF                 	db	255
  8634                           tosu	equ	0x4FF
  8635                           tosh	equ	0x4FE
  8636                           tosl	equ	0x4FD
  8637                           stkptr	equ	0x4FC
  8638                           pclatu	equ	0x4FB
  8639                           pclath	equ	0x4FA
  8640                           pcl	equ	0x4F9
  8641                           tblptru	equ	0x4F8
  8642                           tblptrh	equ	0x4F7
  8643                           tblptrl	equ	0x4F6
  8644                           tablat	equ	0x4F5
  8645                           prodh	equ	0x4F4
  8646                           prodl	equ	0x4F3
  8647                           indf0	equ	0x4EF
  8648                           postinc0	equ	0x4EE
  8649                           postdec0	equ	0x4ED
  8650                           preinc0	equ	0x4EC
  8651                           plusw0	equ	0x4EB
  8652                           fsr0h	equ	0x4EA
  8653                           fsr0l	equ	0x4E9
  8654                           wreg	equ	0x4E8
  8655                           indf1	equ	0x4E7
  8656                           postinc1	equ	0x4E6
  8657                           postdec1	equ	0x4E5
  8658                           preinc1	equ	0x4E4
  8659                           plusw1	equ	0x4E3
  8660                           fsr1h	equ	0x4E2
  8661                           fsr1l	equ	0x4E1
  8662                           bsr	equ	0x4E0
  8663                           indf2	equ	0x4DF
  8664                           postinc2	equ	0x4DE
  8665                           postdec2	equ	0x4DD
  8666                           preinc2	equ	0x4DC
  8667                           plusw2	equ	0x4DB
  8668                           fsr2h	equ	0x4DA
  8669                           fsr2l	equ	0x4D9
  8670                           status	equ	0x4D8

Data Sizes:
    Strings     0
    Constant    5
    Data        0
    BSS         4
    Persistent  2
    Stack       0

Auto Spaces:
    Space          Size  Autos    Used
    COMRAM           95     53      59
    BANK5           160     52      52
    BANK6           256      0       0
    BANK7           256      0       0
    BANK8           256      0       0
    BANK9           256      0       0
    BANK10          256      0       0
    BANK11          256      0       0
    BANK12          256      0       0
    BANK13          256      0       0
    BANK14          256      0       0
    BANK15          256      0       0
    BANK16          256      0       0
    BANK17          256      0       0
    BANK18          256      0       0
    BANK19          256      0       0
    BANK20          256      0       0
    BANK21          254      0       0

Pointer List with Targets:

    TMR2_SetInterruptHandler@InterruptHandler	PTR FTN()void  size(2) Largest target is 1
		 -> LOOPDELAY_TimerISR(), TMR2_DefaultInterruptHandler(), 

    TMR2_InterruptHandler	PTR FTN()void  size(2) Largest target is 1
		 -> LOOPDELAY_TimerISR(), Absolute function(), TMR2_DefaultInterruptHandler(), 


Critical Paths under _main in COMRAM

    _main->_map
    _map->___aldiv
    ___aldiv->___lmul
    _TMR2_Initialize->_TMR2_SetInterruptHandler
    _LED_WriteFull->_WS2812B_Write
    _WS2812B_Write->_ws_send_byte
    _zeroPulse->_SPI1_ExchangeByte
    _onePulse->_SPI1_ExchangeByte

Critical Paths under _INTERRUPT_InterruptManager in COMRAM

    None.

Critical Paths under _main in BANK5

    None.

Critical Paths under _INTERRUPT_InterruptManager in BANK5

    None.

Critical Paths under _main in BANK6

    None.

Critical Paths under _INTERRUPT_InterruptManager in BANK6

    None.

Critical Paths under _main in BANK7

    None.

Critical Paths under _INTERRUPT_InterruptManager in BANK7

    None.

Critical Paths under _main in BANK8

    None.

Critical Paths under _INTERRUPT_InterruptManager in BANK8

    None.

Critical Paths under _main in BANK9

    None.

Critical Paths under _INTERRUPT_InterruptManager in BANK9

    None.

Critical Paths under _main in BANK10

    None.

Critical Paths under _INTERRUPT_InterruptManager in BANK10

    None.

Critical Paths under _main in BANK11

    None.

Critical Paths under _INTERRUPT_InterruptManager in BANK11

    None.

Critical Paths under _main in BANK12

    None.

Critical Paths under _INTERRUPT_InterruptManager in BANK12

    None.

Critical Paths under _main in BANK13

    None.

Critical Paths under _INTERRUPT_InterruptManager in BANK13

    None.

Critical Paths under _main in BANK14

    None.

Critical Paths under _INTERRUPT_InterruptManager in BANK14

    None.

Critical Paths under _main in BANK15

    None.

Critical Paths under _INTERRUPT_InterruptManager in BANK15

    None.

Critical Paths under _main in BANK16

    None.

Critical Paths under _INTERRUPT_InterruptManager in BANK16

    None.

Critical Paths under _main in BANK17

    None.

Critical Paths under _INTERRUPT_InterruptManager in BANK17

    None.

Critical Paths under _main in BANK18

    None.

Critical Paths under _INTERRUPT_InterruptManager in BANK18

    None.

Critical Paths under _main in BANK19

    None.

Critical Paths under _INTERRUPT_InterruptManager in BANK19

    None.

Critical Paths under _main in BANK20

    None.

Critical Paths under _INTERRUPT_InterruptManager in BANK20

    None.

Critical Paths under _main in BANK21

    None.

Critical Paths under _INTERRUPT_InterruptManager in BANK21

    None.

Call Graph Tables:

 ---------------------------------------------------------------------------------
 (Depth) Function   	        Calls       Base Space   Used Autos Params    Refs
 ---------------------------------------------------------------------------------
 (0) _main                                                60    60      0   33212
                                             46 COMRAM     7     7      0
                                              0 BANK5     52    52      0
      _ADCC_DischargeSampleCapacitor
           _ADCC_GetSingleConversion
                    _DATAEE_ReadByte
                   _DATAEE_WriteByte
                      _LED_WriteFull
                     _LOOPDELAY_Init
                     _LOOPDELAY_Wait
                          _SPI1_Open
                  _SYSTEM_Initialize
           _TMR2_SetInterruptHandler
                                _map
 ---------------------------------------------------------------------------------
 (1) _map                                                 20     0     20    2496
                                             26 COMRAM    20     0     20
           _ADCC_GetSingleConversion (ARG)
                            ___aldiv
                             ___lmul
 ---------------------------------------------------------------------------------
 (2) ___lmul                                              12     4      8     370
                                              0 COMRAM    12     4      8
 ---------------------------------------------------------------------------------
 (2) ___aldiv                                             14     6      8     452
                                             12 COMRAM    14     6      8
                             ___lmul (ARG)
 ---------------------------------------------------------------------------------
 (1) _SYSTEM_Initialize                                    0     0      0     174
                    _ADCC_Initialize
               _INTERRUPT_Initialize
              _OSCILLATOR_Initialize
             _PIN_MANAGER_Initialize
                     _PMD_Initialize
                    _SPI1_Initialize
                    _TMR2_Initialize
 ---------------------------------------------------------------------------------
 (2) _TMR2_Initialize                                      0     0      0     174
           _TMR2_SetInterruptHandler
 ---------------------------------------------------------------------------------
 (1) _TMR2_SetInterruptHandler                             2     0      2     174
                                              0 COMRAM     2     0      2
 ---------------------------------------------------------------------------------
 (2) _SPI1_Initialize                                      0     0      0       0
 ---------------------------------------------------------------------------------
 (2) _PMD_Initialize                                       0     0      0       0
 ---------------------------------------------------------------------------------
 (2) _PIN_MANAGER_Initialize                               0     0      0       0
 ---------------------------------------------------------------------------------
 (2) _OSCILLATOR_Initialize                                0     0      0       0
 ---------------------------------------------------------------------------------
 (2) _INTERRUPT_Initialize                                 0     0      0       0
 ---------------------------------------------------------------------------------
 (2) _ADCC_Initialize                                      0     0      0       0
 ---------------------------------------------------------------------------------
 (1) _SPI1_Open                                            2     2      0     110
                                              0 COMRAM     2     2      0
 ---------------------------------------------------------------------------------
 (1) _LOOPDELAY_Wait                                       0     0      0       0
 ---------------------------------------------------------------------------------
 (1) _LOOPDELAY_Init                                       2     0      2      98
                                              0 COMRAM     2     0      2
 ---------------------------------------------------------------------------------
 (1) _LED_WriteFull                                       10     4      6    6750
                                              6 COMRAM    10     4      6
                      _WS2812B_Write
 ---------------------------------------------------------------------------------
 (2) _WS2812B_Write                                        4     1      3     536
                                              2 COMRAM     4     1      3
                       _ws_send_byte
 ---------------------------------------------------------------------------------
 (3) _ws_send_byte                                         1     1      0     220
                                              1 COMRAM     1     1      0
                           _onePulse
                          _zeroPulse
 ---------------------------------------------------------------------------------
 (4) _zeroPulse                                            0     0      0      22
                  _SPI1_ExchangeByte
 ---------------------------------------------------------------------------------
 (4) _onePulse                                             0     0      0      22
                  _SPI1_ExchangeByte
 ---------------------------------------------------------------------------------
 (5) _SPI1_ExchangeByte                                    1     1      0      22
                                              0 COMRAM     1     1      0
 ---------------------------------------------------------------------------------
 (1) _DATAEE_WriteByte                                     4     1      3   13465
                                              0 COMRAM     4     1      3
 ---------------------------------------------------------------------------------
 (1) _DATAEE_ReadByte                                      2     0      2    2020
                                              0 COMRAM     2     0      2
 ---------------------------------------------------------------------------------
 (1) _ADCC_GetSingleConversion                             5     3      2      22
                                              0 COMRAM     5     3      2
 ---------------------------------------------------------------------------------
 (1) _ADCC_DischargeSampleCapacitor                        0     0      0       0
 ---------------------------------------------------------------------------------
 Estimated maximum stack depth 5
 ---------------------------------------------------------------------------------
 (Depth) Function   	        Calls       Base Space   Used Autos Params    Refs
 ---------------------------------------------------------------------------------
 (6) _INTERRUPT_InterruptManager                           0     0      0       0
                           _TMR2_ISR
 ---------------------------------------------------------------------------------
 (7) _TMR2_ISR                                             0     0      0       0
                      _TMR2_CallBack
 ---------------------------------------------------------------------------------
 (8) _TMR2_CallBack                                        0     0      0       0
                   Absolute function *
                 _LOOPDELAY_TimerISR *
       _TMR2_DefaultInterruptHandler *
 ---------------------------------------------------------------------------------
 (9) _TMR2_DefaultInterruptHandler                         0     0      0       0
 ---------------------------------------------------------------------------------
 (9) _LOOPDELAY_TimerISR                                   0     0      0       0
 ---------------------------------------------------------------------------------
 (9) Absolute function(Fake)                               0     0      0       0
 ---------------------------------------------------------------------------------
 Estimated maximum stack depth 9
 ---------------------------------------------------------------------------------

 Call Graph Graphs:

 _main (ROOT)
   _ADCC_DischargeSampleCapacitor
   _ADCC_GetSingleConversion
   _DATAEE_ReadByte
   _DATAEE_WriteByte
   _LED_WriteFull
     _WS2812B_Write
       _ws_send_byte
         _onePulse
           _SPI1_ExchangeByte
         _zeroPulse
           _SPI1_ExchangeByte
   _LOOPDELAY_Init
   _LOOPDELAY_Wait
   _SPI1_Open
   _SYSTEM_Initialize
     _ADCC_Initialize
     _INTERRUPT_Initialize
     _OSCILLATOR_Initialize
     _PIN_MANAGER_Initialize
     _PMD_Initialize
     _SPI1_Initialize
     _TMR2_Initialize
       _TMR2_SetInterruptHandler
   _TMR2_SetInterruptHandler
   _map
     _ADCC_GetSingleConversion (ARG)
     ___aldiv (ARG)
       ___lmul (ARG)
     ___lmul (ARG)

 _INTERRUPT_InterruptManager (ROOT)
   _TMR2_ISR
     _TMR2_CallBack
       Absolute function(Fake) *
       _LOOPDELAY_TimerISR *
       _TMR2_DefaultInterruptHandler *

 Address spaces:
Name               Size   Autos  Total    Cost      Usage
BIGRAMl            FFF      0       0      40        0.0%
EEDATA             400      0       0       0        0.0%
BITBANK20          100      0       0      35        0.0%
BANK20             100      0       0      36        0.0%
BITBANK19          100      0       0      33        0.0%
BANK19             100      0       0      34        0.0%
BITBANK18          100      0       0      31        0.0%
BANK18             100      0       0      32        0.0%
BITBANK17          100      0       0      29        0.0%
BANK17             100      0       0      30        0.0%
BITBANK16          100      0       0      26        0.0%
BANK16             100      0       0      27        0.0%
BITBANK15          100      0       0      24        0.0%
BANK15             100      0       0      25        0.0%
BITBANK14          100      0       0      22        0.0%
BANK14             100      0       0      23        0.0%
BITBANK13          100      0       0      20        0.0%
BANK13             100      0       0      21        0.0%
BITBANK12          100      0       0      18        0.0%
BANK12             100      0       0      19        0.0%
BITBANK11          100      0       0      16        0.0%
BANK11             100      0       0      17        0.0%
BITBANK10          100      0       0      14        0.0%
BANK10             100      0       0      15        0.0%
BITBANK9           100      0       0      12        0.0%
BANK9              100      0       0      13        0.0%
BITBANK8           100      0       0      10        0.0%
BANK8              100      0       0      11        0.0%
BITBANK7           100      0       0       8        0.0%
BANK7              100      0       0       9        0.0%
BITBANK6           100      0       0       6        0.0%
BANK6              100      0       0       7        0.0%
BIGRAMh             FE      0       0      39        0.0%
BITBANK21           FE      0       0      37        0.0%
BANK21              FE      0       0      38        0.0%
BITBANK5            A0      0       0       4        0.0%
BANK5               A0     34      34       5       32.5%
BITCOMRAM           5F      0       0       0        0.0%
COMRAM              5F     35      3B       1       62.1%
BITSFR_5             0      0       0     200        0.0%
SFR_5                0      0       0     200        0.0%
BITSFR_4             0      0       0     200        0.0%
SFR_4                0      0       0     200        0.0%
BITSFR_3             0      0       0     200        0.0%
SFR_3                0      0       0     200        0.0%
BITSFR_2             0      0       0     200        0.0%
SFR_2                0      0       0     200        0.0%
BITSFR_1             0      0       0     200        0.0%
SFR_1                0      0       0     200        0.0%
BITSFR               0      0       0     200        0.0%
SFR                  0      0       0     200        0.0%
STACK                0      0       0       2        0.0%
NULL                 0      0       0       0        0.0%
ABS                  0      0      6F      28        0.0%
DATA                 0      0      6F       3        0.0%
CODE                 0      0       0       0        0.0%


Microchip Technology PIC18 Macro Assembler V2.31 build 20201012212115 
Symbol Table                                                                                   Thu Jul 21 23:55:11 2022

                       _SPI1_ExchangeByte 3DAA          __end_of_TMR2_SetInterruptHandler 3EF8  
                                      l53 3C22                        ?_SPI1_ExchangeByte 0501  
                                     l300 3DB8                                       l150 3D4E  
                                     l302 3DC6                                       l303 3DCA  
                                     l135 3C7E                                       l402 3EEC  
                                     l147 3D2E                                       l260 3E9C  
                                     l159 3F18                                       l263 3E80  
                                     l416 3F24                                       l257 3E2A  
                                     l290 3ED2                                       l506 3EF6  
                                     l602 2386                                       l611 24F6  
                                     l460 3D7C                                       l621 292C  
                                     l605 2416                                       l294 3A04  
                                     l622 278C                                       l614 2566  
                                     l640 2C80                                       l624 2810  
                                     l608 2486                                       l552 1714  
                                     l553 1770                                       l642 2D04  
                                     l626 2894                                       l554 17CC  
                                     l555 1828                                       l396 3CB2  
                                     l724 3D1C                                       l660 31FA  
                                     l644 2D88                                       l628 2918  
                                     l741 3F00                                       l653 320E  
                                     l637 2D9C                                       l398 3CC0  
                                     l718 3AD8                                       l670 34FE  
                                     l654 306E                                       l638 2BFC  
                                     l399 3CD0                                       l823 392A  
                                     l583 1F04                                       l575 1D12  
                                     l672 3582                                       l656 30F2  
                                     l576 1D86                                       l593 21B6  
                                     l690 3EB8                                       l738 3E0C  
                                     l674 3606                                       l658 3176  
                                     l755 3BAC                                       l756 3BBC  
                                     l676 368A                                       l596 2266  
                                     l693 3B52                                       l669 369E  
                                     l599 22F6                                       l696 3F10  
                                     l699 3F08                                       _PR2 00031D  
                          WS2812B_Write@B 0504                            WS2812B_Write@G 0503  
                          WS2812B_Write@R 0506                            WS2812B_Write@W 0505  
                                     _map 3ADA                   __size_of_PMD_Initialize 001C  
                     ??_SPI1_ExchangeByte 0501                           _TMR2_Initialize 3D50  
                                     tosl 0004FD                                       wreg 0004E8  
                  __size_of_LED_WriteFull 004C                               main@blueAdj 0575  
                                    l3001 3B54                                      l3011 3820  
                                    l3003 3B64                                      l3101 3C8E  
                                    l3021 3854                                      l3013 3824  
                                    l3005 3B72                                      l3111 3CA8  
                                    l3103 3C92                                      l3031 3896  
                                    l3023 3864                                      l3015 3832  
                                    l3007 3B82                                      l3121 3EDE  
                                    l3113 3CAC                                      l3105 3C98  
                                    l3041 38E8                                      l3033 38A2  
                                    l3025 3868                                      l3017 3842  
                                    l3009 3B8C                                      l4001 32DC  
                                    l3201 1658                                      l3123 3EE8  
                                    l3115 3CB0                                      l3107 3C9E  
                                    l3051 391A                                      l3043 38EA  
                                    l3035 38B0                                      l3027 3878  
                                    l3019 3846                                      l4011 3324  
                                    l4003 32EA                                      l3211 166C  
                                    l3203 165C                                      l3061 3D2C  
                                    l3117 3CCA                                      l3109 3CA6  
                                    l3141 3CE4                                      l3133 3DEE  
                                    l3045 38F4                                      l3037 38BA  
                                    l3029 388E                                      l4101 3708  
                                    l4021 338E                                      l4013 3334  
                                    l4005 32FC                                      l3301 19A6  
                                    l3221 168C                                      l3213 1670  
                                    l3205 1660                                      l3063 3D3C  
                                    l3055 3D20                                      l3119 3ED4  
                                    l3143 3CF6                                      l3127 3EF8  
                                    l3135 3DEE                                      l3071 3E12  
                                    l3039 38D8                                      l3047 38FA  
                                    l4111 375A                                      l4103 3726  
                                    l4031 33E6                                      l4023 33B2  
                                    l4007 3300                                      l4015 3344  
                                    l3311 19D4                                      l3303 19B2  
                                    l3231 16AC                                      l3223 1694  
                                    l3215 1674                                      l3207 1664  
                                    l3057 3D26                                      l3145 3D02  
                                    l3137 3E04                                      l3081 3E26  
                                    l3073 3E16                                      l3049 390A  
                                    l3129 3ADA                                      l4113 376C  
                                    l4105 372C                                      l4041 342C  
                                    l4033 33F4                                      l4025 33C0  
                                    l4017 3376                                      l4009 331E  
                                    l3401 1DAA                                      l3321 1A98  
                                    l3313 19D8                                      l3305 19BC  
                                    l3241 16B8                                      l3233 16AE  
                                    l3225 169C                                      l3217 167C  
                                    l3209 1668                                      l3067 3F12  
                                    l3059 3D2A                                      l3139 3CD4  
                                    l3091 39CC                                      l3083 392E  
                                    l3075 3E1A                                      l4115 3770  
                                    l4107 373C                                      l4043 343C  
                                    l4035 3406                                      l4051 347C  
                                    l4027 33D2                                      l4019 338A  
                                    l3411 1DFA                                      l3403 1DAE  
                                    l3331 1B7A                                      l3323 1AF4  
                                    l3315 1A34                                      l3307 19C4  
                                    l3251 1844                                      l3243 16D4  
                                    l3235 16B0                                      l3227 16A4  
                                    l3219 1684                                      l3171 1620  
                                    l3163 1608           ??_ADCC_DischargeSampleCapacitor 0501  
                                    l3093 3A02                                      l3085 393E  
                                    l3077 3E1E                                      l3069 3E0E  
                                    l4117 378E                                      l4109 374C  
                                    l4061 3512                                      l4053 348E  
                                    l4045 344C                                      l4037 3416  
                                    l4029 33E2                                      l3501 209E  
                                    l3421 1E68                                      l3413 1E1C  
                                    l3405 1DD0                                      l3341 1BC2  
                                    l3333 1B82                                      l4125 3798  
                                    l3325 1AF8                                      l3317 1A38  
                                    l3309 19CC                                      l3261 188E  
                                    l3253 1854                                      l3245 1730  
                                    l3237 16B2                                      l3229 16A8  
                                    l3181 1630                                      l3173 1620  
                                    l3165 160C                                      l3087 39A4  
                                    l3079 3E22                                      l4071 35D0  
                                    l4063 354C                                      l4055 34C8  
                                    l4047 345C                                      l4039 3418  
                                    l3511 20EE                                      l3503 20AE  
                                    l3431 1EC8                                      l3423 1E7A  
                                    l3415 1E2E                                      l3407 1DE2  
                                    l3351 1C06                                      l3343 1BD2  
                                    l3335 1B90                                      l3327 1B54  
                                    l3319 1A94                                      l3271 18D6  
                                    l3263 18A0                                      l3255 1864  
                                    l3247 178C                                      l3239 16B4  
                                    l3191 1644                                      l3183 1634  
                                    l3175 1626                                      l3167 1612  
                                    l3097 3C80                                      l3089 39A8  
                                    l4081 3686                                      l4073 3602  
                                    l4065 357E                                      l4057 34FA  
                                    l4049 346C                                      l3601 2394  
                                    l3521 2132                                      l3513 20FE  
                                    l3505 20BE                                      l3441 1EFE  
                                    l3433 1ED8                                      l3425 1E8E  
                                    l3417 1E42                                      l3409 1DF6  
                                    l3353 1C16                                      l3361 1C4A  
                                    l3345 1BE2                                      l3337 1BA2  
                                    l3329 1B5C                                      l3281 192A  
                                    l3273 18E2                                      l3265 18A4  
                                    l3257 1880                                      l3249 17E8  
                                    l3193 1648                                      l3185 1638  
                                    l3177 1628                                      l3169 1614  
                                    l3099 3C88                                      l4163 37AE  
                                    l4091 36C4                                      l4083 369A  
                                    l4075 3616                                      l4067 3592  
                                    l4059 350E                                      l3603 2396  
                                    l3611 23DA                                      l3531 2178  
                                    l3523 2142                                      l3515 2102  
                                    l3507 20D0                                      l3451 1F32  
                                    l3443 1F00                                      l3435 1EE8  
                                    l3427 1E92                                      l3419 1E46  
                                    l3371 1C9A                                      l3363 1C58  
                                    l3355 1C26                                      l3339 1BB2  
                                    l3347 1BE6                                      l3291 1964  
                                    l3283 192C                                      l3275 18F6  
                                    l3267 18B8                                      l3259 1882  
                                    l3195 164C                                      l3187 163C  
                                    l3179 162C                                      l4093 36D4  
                                    l4085 36AC                                      l4077 361A  
                                    l4069 3596                                      l3701 26A4  
                                    l3621 2424                                      l3613 23E8  
                                    l3605 23B4                                      l3541 21C4  
                                    l3533 2182                                      l3517 2112  
                                    l3509 20DE                                      l3525 2152  
                                    l3461 1F76                                      l3453 1F42  
                                    l3445 1F02                                      l3437 1EF8  
                                    l3429 1EB6                                      l3381 1CDE  
                                    l3373 1CAA                                      l3365 1C6A  
                                    l3357 1C36                                      l3349 1BF4  
                                    l3293 1980                                      l3285 1938  
                                    l3277 18FA                                      l3269 18D4  
                                    l3197 1650                                      l3189 1640  
                                    l4087 36BC                                      l4095 36E4  
                                    l4079 3654                                      l3711 26EA  
                                    l3703 26A6                                      l3631 2458  
                                    l3623 2426                                      l3615 2402  
                                    l3607 23BA                                      l3543 21C6  
                                    l3551 220A                                      l3535 2190  
                                    l3527 2160                                      l3519 2122  
                                    l3471 1FC6                                      l3463 1F86  
                                    l3455 1F46                                      l3447 1F14  
                                    l3439 1EFC                                      l3391 1D34  
                                    l3383 1CEE                                      l3367 1C7A  
                                    l3375 1CAE                                      l3359 1C46  
                                    l3295 1982                                      l3287 194C  
                                    l3279 190E                                      l3199 1654  
                                    l2913 3DAC                                      l2921 3EEE  
                                    l4097 36F2                                      l4089 36C0  
                                    l3801 2ABE                                      l3721 2788  
                                    l3713 26FA                                      l3705 26BA  
                                    l3641 24AA                                      l3633 2472  
                                    l3625 242A                                      l3609 23CA  
                                    l3561 2274                                      l3553 2218  
                                    l3545 21E4                                      l3537 219A  
                                    l3529 216A                                      l3481 200A  
                                    l3473 1FD6                                      l3457 1F56  
                                    l3449 1F22                                      l3465 1F96  
                                    l3393 1D44                                      l3385 1CFE  
                                    l3377 1CBC                                      l3369 1C8A  
                                    l3297 198E                                      l3289 1950  
                                    l2915 3DB2                                      l2931 3A30  
                                    l2923 3A08                                      l4099 3704  
                                    l3811 2B04                                      l3803 2AD0  
                                    l3731 2820                                      l3723 279C  
                                    l3707 26CA                                      l3715 270A  
                                    l3651 2506                                      l3635 2494  
                                    l3643 24BA                                      l3627 243A  
                                    l3563 2276                                      l3571 22BA  
                                    l3555 2232                                      l3547 21EA  
                                    l3539 21A8                                      l3491 205A  
                                    l3483 201A                                      l3475 1FDA  
                                    l3467 1FA8                                      l3459 1F66  
                                    l3395 1D54                                      l3387 1D0E  
                                    l3379 1CCE                                      l3299 19A2  
                                    l2917 3F0A                                      l2941 3A56  
                                    l2933 3A38                                      l2925 3A16  
                                    l3901 2EB0                                      l3821 2B4A  
                                    l3813 2B14                                      l3805 2AE0  
                                    l3741 28A8                                      l3733 2824  
                                    l3725 27A0                                      l3717 271C  
                                    l3709 26DA                                      l3661 2552  
                                    l3653 250A                                      l3645 24C8  
                                    l3637 2496                                      l3629 244A  
                                    l3581 2304                                      l3573 22C8  
                                    l3565 2294                                      l3557 2242  
                                    l3549 21FA                                      l3493 206A  
                                    l3477 1FEA                                      l3469 1FB6  
                                    l3485 202A                                      l3397 1D6E  
                                    l3389 1D24                                      ?_map 051B  
                                    l2919 3F02                                      l2951 3A86  
                                    l2943 3A64                                      l2935 3A3C  
                                    l2927 3A1E                                      l3911 2F1A  
                                    l3903 2ECE                                      l3831 2BC6  
                                    l3823 2B5A                                      l3815 2B16  
                                    l3807 2AE4                                      l3751 294A  
                                    l3743 28E2                                      l3735 285E  
                                    l3727 27DA                                      l3719 2756  
                                    l3663 2574                                      l3671 259A  
                                    l3655 251A                                      l3647 24E2  
                                    l3639 249A                                      l3583 2306  
                                    l3591 234A                                      l3575 22E2  
                                    l3567 229A                                      l3559 2252  
                                    l3495 206E                                      l3487 203C  
                                    l3479 1FFA                                      l3399 1D96  
                                    l2961 3AB2                                      l2953 3A8A  
                                    l2945 3A6C                                      l2937 3A4A  
                                    l2929 3A22                                      l3921 2F5C  
                                    l3913 2F28                                      l3905 2EE0  
                                    l3841 2C7C                                      l3833 2BF8  
                                    l3825 2B6A                                      l3817 2B2A  
                                    l3809 2AF2                                      l3753 294E  
                                    l3761 2992                                      l3745 2914  
                                    l3737 2890                                      l3729 280C  
                                    l3681 2606                                      l3673 25A8  
                                    l3665 2576                                      l3649 2504  
                                    l3657 252A                                      l3593 2358  
                                    l3585 2324                                      l3569 22AA  
                                    l3497 207E                                      l3489 204A  
                                    l2963 3ABA                                      l2955 3A98  
                                    l2947 3A70                                      l2939 3A52  
                                    l2971 3BBE                                      l3931 2FA4  
                                    l3923 2F6E                                      l3915 2F3A  
                                    l3907 2EF4                                      l3851 2D14  
                                    l3843 2C90                                      l3835 2C0C  
                                    l3819 2B3A                                      l3827 2B7A  
                                    l3771 29DA                                      l3763 29A0  
                                    l3755 296C                                      l3747 2928  
                                    l3739 28A4                                      l3691 2660  
                                    l3683 261A                                      l3675 25C2  
                                    l3667 257A                                      l3659 2538  
                                    l3595 2372                                      l3587 232A  
                                    l3499 208E                                      l2965 3ABE  
                                    l2957 3AA0                                      l2949 3A7E  
                                    l2973 3C04                                      l2981 3E66  
                                    l3941 2FEE                                      l3933 2FB4  
                                    l3925 2F7E                                      l3917 2F4A  
                                    l3909 2EF8                                      l3861 2DAA  
                                    l3853 2D18                                      l3845 2C94  
                                    l3837 2C10                                      l3829 2B8C  
                                    l3781 2A1E                                      l3773 29EA  
                                    l3765 29B2                                      l3757 2972  
                                    l3749 293A                                      l3693 2670  
                                    l3685 261E                                      l3677 25D6  
                                    l3669 258A                                      l3589 233A  
                                    l2967 3ACC                                      l2959 3AA4  
                                    l2983 3E82                                      l2975 3C0E  
                                    l2991 3D6A                                      l3951 3082  
                                    l3943 2FFE                                      l3935 2FC4  
                                    l3927 2F80                                      l3919 2F4E  
                                    l3871 2DF2                                      l3863 2DBA  
                                    l3855 2D52                                      l3847 2CCE  
                                    l3839 2C4A                                      l3791 2A64  
                                    l3783 2A3C                                      l3767 29B6  
                                    l3775 29FA                                      l3759 2982  
                                    l3695 2674                                      l3687 2640  
                                    l3679 25F4                                      l2969 3AD4  
                                    l2977 3C24                                      l2993 3D76  
                                    l2985 3D50                                      l3961 3140  
                                    l3953 30BC                                      l3945 3038  
                                    l3937 2FD4                                      l3929 2F94  
                                    l3881 2E44                                      l3865 2DBE  
                                    l3873 2E02                                      l3857 2D84  
                                    l3849 2D00                                      l3793 2A76  
                                    l3777 2A08                                      l3769 29D4  
                                    l3697 2682                                      l3689 264E  
                                    l2979 3F22                                      l2995 3EBA  
                                    l2987 3D66                                      l3971 31F6  
                                    l3963 3172                                      l3955 30EE  
                                    l3947 306A                                      l3939 2FE4  
                                    l3891 2E8A                                      l3883 2E4A  
                                    l3875 2E10                                      l3867 2DDC  
                                    l3859 2D98                                      l3795 2A8A  
                                    l3779 2A1A                                      l3699 2694  
                                    l2997 3ED0                                      l2989 3D68  
                                    l3981 324E                                      l3973 320A  
                                    l3965 3186                                      l3957 3102  
                                    l3949 307E                                      l3893 2E8E  
                                    l3885 2E5A                                      l3877 2E22  
                                    l3869 2DE2                                      l3797 2A8E  
                                    l3789 2A46                                      l2999 3EA0  
                                    l3991 3294                                      l3983 3254  
                                    l3975 321C                                      l3967 318A  
                                    l3959 3106                                      l3879 2E26  
                                    l3887 2E6A                                      l3799 2AB0  
                                    l3993 3298                                      l3985 3264  
                                    l3977 322C                                      l3969 31C4  
                                    l3889 2E78                                      l3995 32B6  
                                    l3979 3230                                      l3987 3274  
                                    l3997 32BC                                      l3989 3282  
                                    l3999 32CC                                      u3000 192A  
                                    u3001 1926                                      u3010 194C  
                                    u3011 1948                                      u3100 1BE2  
                                    u3020 1964                                      u3101 1BDE  
                                    u3021 1960                                      _LATA 0004BE  
                                    u3110 1BF4                                      u3030 1980  
                                    _LATB 0004BF                                      u3111 1BF0  
                                    u3031 197C                                      _LATC 0004C0  
                                    u4000 2670                                      u3200 1C8A  
                                    u3120 1C06                                      u3040 19A2  
                                    u4001 266C                                      u3201 1C86  
                                    u3121 1C02                                      u3041 199E  
                                    u4010 2682                                      u3210 1C9A  
                                    u3130 1C16                                      u3050 1B90  
                                    u4011 267E                                      u3211 1C96  
                                    u3131 1C12                                      u3051 1B8C  
                                    u4100 2820                                      u4020 2694  
                                    u3300 1D34                                      u3220 1CAA  
                                    u3140 1C26                                      u3060 1BA2  
                                    u4101 281C                                      u4021 2690  
                                    u3301 1D30                                      u3221 1CA6  
                                    u3141 1C22                                      u3061 1B9E  
                                    u4110 285E                                      u4030 26A4  
                                    u3310 1D44                                      u3230 1CBC  
                                    u3150 1C36                                      u3070 1BB2  
                                    u4111 285A                                      u4031 26A0  
                                    u3311 1D40                                      u3231 1CB8  
                                    u3151 1C32                                      u3071 1BAE  
                                    u5000 3616                                      u4200 29B2  
                                    u4120 2890                                      u4040 271C  
                                    u3400 1E0C                                      u3320 1D54  
                                    u3240 1CCE                                      u3160 1C46  
                                    u3080 1BC2                                      u5001 3612  
                                    u4201 29AE                                      u4121 288C  
                                    u4041 2718                                      u3401 1E04  
                                    u3321 1D50                                      u3241 1CCA  
                                    u3161 1C42                                      u3081 1BBE  
                                    u5010 3654                                      u4210 2A08  
                                    u4130 28A4                                      u4050 2756  
                                    u3330 1D6E                                      u3250 1CDE  
                                    u3170 1C58                                      u3090 1BD2  
                                    _T2PR 00031D                                      u5011 3650  
                                    u4211 2A04                                      u4131 28A0  
                                    u4051 2752                                      u3331 1D6A  
                                    u3251 1CDA                                      u3171 1C54  
                                    u3091 1BCE                                      u2700 3AB2  
                                    u5020 3686                                      u4300 2AF2  
                                    u4220 2A1A                                      u4140 28E2  
                                    u4060 2788                                      u3500 1EC8  
                                    u3420 1E2E                                      u3340 1D96  
                                    u3260 1CEE                                      u3180 1C6A  
                                    u2701 3AAE                                      u5021 3682  
                                    u4301 2AEE                                      u4221 2A16  
                                    u4141 28DE                                      u4061 2784  
                                    u3501 1EC4                                      u3421 1E2A  
                                    u3341 1D92                                      u3261 1CEA  
                                    u3181 1C66                                      u2630 3DC6  
                                    u2710 3ACC                                      u5030 369A  
                                    u4310 2B04                                      u4230 2A76  
                                    u4150 2914                                      u4070 279C  
                                    u3510 1ED8                                      u3430 1E42  
                                    u3350 1DAA                                      u3270 1CFE  
                                    u3190 1C7A                                      u2631 3DC2  
                                    u2711 3AC8                                      u5031 3696  
                                    u4311 2B00                                      u4231 2A72  
                                    u4151 2910                                      u4071 2798  
                                    u3511 1ED4                                      u3431 1E3E  
                                    u3351 1DA6                                      u3271 1CFA  
                                    u3191 1C76                                      u2800 3D3C  
                                    u2640 3A16                                      u2720 3B72  
                                    u5040 36AC                                      u4400 2CCE  
                                    u4320 2B14                                      u4240 2A8A  
                                    u4160 2928                                      u4080 27DA  
                                    u3600 203C                                      u3520 1EE8  
                                    u3440 1E58                                      u3360 1DC0  
                                    u3280 1D0E                                      u2801 3D38  
                                    u2641 3A12                                      u2721 3B6E  
                                    u5041 36A8                                      u4401 2CCA  
                                    u4321 2B10                                      u4241 2A86  
                                    u4161 2924                                      u4081 27D6  
                                    u3601 2038                                      u3521 1EE4  
                                    u3441 1E50                                      u3361 1DB8  
                                    u3281 1D0A                                      u2650 3A30  
                                    u2810 393E                                      u2730 3BAC  
                                    u5050 36BC                                      u4410 2D00  
                                    u4330 2B8C                                      u4250 2AA0  
                                    u4170 293A                                      u4090 280C  
                                    u3610 204A                                      u3530 1EF8  
                                    u3418 1E0E                                      u3290 1D24  
                                    u2651 3A2C                                      u2811 393A  
                                    u2731 3BA8                                      u5051 36B8  
                                    u4411 2CFC                                      u4331 2B88  
                                    u4251 2A98                                      u4171 2936  
                                    u4091 2808                                      u3611 2046  
                                    u3531 1EF4                                      u3291 1D20  
                                    u5107 1884                                      u2820 3CC0  
                                    u2660 3A4A                                      u2740 3832  
                                    u5060 36F2                                      u4500 2E78  
                                    u4420 2D14                                      u4340 2BC6  
                                    u4180 294A                                      u3700 21C4  
                                    u3620 205A                                      u3540 1F14  
                                    u3460 1E7A                                      u3380 1DE2  
                                    u2900 178C                                      u2821 3CBC  
                                    u2661 3A46                                      u2741 382E  
                                    u5061 36EE                                      u4501 2E74  
                                    u4421 2D10                                      u4341 2BC2  
                                    u4181 2946                                      u3701 21C0  
                                    u3621 2056                                      u3541 1F10  
                                    u3461 1E76                                      u3381 1DDE  
                                    u5117 18D8                                      u2901 1788  
                                    u2670 3A64                                      u2750 3854  
                                    u5070 3704                                      u4510 2E8A  
                                    u4430 2D52                                      u4350 2BF8  
                                    u4270 2ABE                                      u4190 29A0  
                                    u3710 2218                                      u3630 20D0  
                                    u3550 1F22                                      u3470 1E8E  
                                    u3390 1DF6                                      u2910 17E8  
                                    u2671 3A60                                      u2751 3850  
                                    u5071 3700                                      u4511 2E86  
                                    u4431 2D4E                                      u4351 2BF4  
                                    u4271 2ABA                                      u4191 299C  
                                    u3711 2214                                      u3631 20CC  
                                    u3551 1F1E                                      u3471 1E8A  
                                    u3391 1DF2                                      u5127 192E  
                                    u2911 17E4                                      u2680 3A7E  
                                    u2840 3E04                                      u2760 388E  
                                    u5080 375A                                      u4600 2F6E  
                                    u4520 2EE0                                      u4440 2D84  
                                    u4360 2C0C                                      u4280 2AD0  
                                    u3800 23E8                                      u3720 2232  
                                    u3640 20DE                                      u3560 1F32  
                                    u3480 1EA4                                      u2920 1844  
                                    u2681 3A7A                                      u2841 3E00  
                                    u2761 388A                                      u5081 3756  
                                    u4601 2F6A                                      u4521 2EDC  
                                    u4441 2D80                                      u4361 2C08  
                                    u4281 2ACC                                      u3801 23E4  
                                    u3721 222E                                      u3641 20DA  
                                    u3561 1F2E                                      u3481 1E9C  
                                    u5137 1984                                      u2921 1840  
                                    u2690 3A98                                      u2850 3D1C  
                                    u2770 38B0                                      u5090 376C  
                                    u4610 2F7E                                      u4530 2EF4  
                                    u4450 2D98                                      u4370 2C4A  
                                    u4290 2AE0                                      u3810 2402  
                                    u3730 2274                                      u3650 20EE  
                                    u3570 1FA8                                      u3458 1E5A  
                                    u3378 1DC2                                      u2930 1864  
                                    u2835 3CC8                                      u2691 3A94  
                                    u2851 3D18                                      u2771 38AC  
                                    u5091 3768                                      u4611 2F7A  
                                    u4531 2EF0                                      u4451 2D94  
                                    u4371 2C46                                      u4291 2ADC  
                                    u3811 23FE                                      u3731 2270  
                                    u3651 20EA                                      u3571 1FA4  
                                    u5147 1B7C                                      u2931 1860  
                                    u2836 3CCA                                      u2780 38D8  
                                    u4700 3172                                      u4620 2FFE  
                                    u4540 2F0A                                      u4460 2DAA  
                                    u4380 2C7C                                      u4268 2AA2  
                                    u3900 2552                                      u3820 2424  
                                    u3740 22C8                                      u3660 2160  
                                    u3580 1FB6                                      u2940 1880  
                                    _PMD0 000063                                      u2781 38D4  
                                    u4701 316E                                      u4621 2FFA  
                                    u4541 2F02                                      u4461 2DA6  
                                    u4381 2C78                                      u3901 254E  
                                    u3821 2420                                      u3741 22C4  
                                    u3661 215C                                      u3581 1FB2  
                                    u2941 187C                                      _PMD1 000064  
                                    u2790 390A                                      u4710 3186  
                                    u4630 3038                                      u4470 2DBA  
                                    u4390 2C90                                      u3910 2574  
                                    u3830 2458                                      u3750 22E2  
                                    u3670 2178                                      u3590 1FC6  
                                    u2950 18A0                                      _PMD2 000065  
                                    u2791 3906                                      u4711 3182  
                                    u4631 3034                                      u4471 2DB6  
                                    u4391 2C8C                                      u3911 2570  
                                    u3831 2454                                      u3751 22DE  
                                    u3671 2174                                      u3591 1FC2  
                                    u2951 189C                                      _PMD3 000066  
                                    u4800 32FC                                      u4720 31C4  
                                    u4640 306A                                      u4560 2F28  
                                    u4480 2E10                                      u3920 25A8  
                                    u3840 2472                                      u3760 2304  
                                    u3680 2190                                      u2960 18B8  
                                    u2880 16D4                                      _PMD4 000067  
                                    u4801 32F8                                      u4721 31C0  
                                    u4641 3066                                      u4561 2F24  
                                    u4481 2E0C                                      u3921 25A4  
                                    u3841 246E                                      u3761 2300  
                                    u3681 218C                                      u2961 18B4  
                                    u2881 16D0                                      _PMD5 000068  
                                    u4810 3376                                      u4730 31F6  
                                    u4650 307E                                      u4570 2F3A  
                                    u4490 2E22                                      u3930 25C2  
                                    u3850 2494                                      u3770 2358  
                                    u3690 21A8                                      u3498 1EA6  
                                    u2970 18D4                                      u2890 1730  
                                    u4811 3372                                      u4731 31F2  
                                    u4651 307A                                      u4571 2F36  
                                    u4491 2E1E                                      u3931 25BE  
                                    u3851 2490                                      u3771 2354  
                                    u3691 21A4                                      u2971 18D0  
                                    u2891 172C                                      u4900 3416  
                                    u4820 338A                                      u4740 320A  
                                    u4660 30BC                                      u4580 2F4A  
                                    u3940 2606                                      u3860 24C8  
                                    u3780 2372                                      u2980 18F6  
                                    u4901 3412                                      u4821 3386  
                                    u4741 3206                                      u4661 30B8  
                                    u4581 2F46                                      u3941 2602  
                                    u3861 24C4                                      u3781 236E  
                                    u2981 18F2                                      u4910 348E  
                                    u4830 33A0                                      u4750 321C  
                                    u4670 30EE                                      u4590 2F5C  
                                    u4558 2F0C                                      u3950 261A  
                                    u3870 24E2                                      u3790 2394  
                                    u2990 190E                                      u4911 348A  
                                    u4831 3398                                      u4751 3218  
                                    u4671 30EA                                      u4591 2F58  
                                    u3951 2616                                      u3871 24DE  
                                    u3791 2390                                      u2991 190A  
                                    u4920 34C8                                      u4760 322C  
                                    u4680 3102                                      u3960 2630  
                                    u3880 2504                                      u4921 34C4  
                                    u4761 3228                                      u4681 30FE  
                                    u3961 2628                                      u3881 2500  
                                    u4930 34FA                                      u4850 33C0  
                                    u4770 3282                                      u4690 3140  
                                    u3890 2538                                      u4931 34F6  
                                    u4851 33BC                                      u4771 327E  
                                    u4691 313C                                      u3891 2534  
                                    u4940 350E                                      u4860 33D2  
                                    u4780 3294                                      u3980 264E  
                                    u4941 350A                                      u4861 33CE  
                                    u4781 3290                                      u3981 264A  
                                    u4950 354C                                      u4870 33E2  
                                    u4790 32EA                                      u3990 2660  
                                    u4951 3548                                      u4871 33DE  
                                    u4791 32E6                                      u3991 265C  
                                    u4960 357E                                      u4880 33F4  
                                    u4848 33A2                                      u4961 357A  
                                    u4881 33F0                                      u4970 3592  
                                    u4890 3406                                      u3978 2632  
                                    u4971 358E                                      u4891 3402  
                                    u4980 35D0                                      u4981 35CC  
                                    u4990 3602                                      u4991 35FE  
                                    _TMR2 00031C                                      _WPUA 000401  
                                    _WPUB 000409                                      _WPUC 000411  
                                    _main 1608                                      map@x 051B  
                                    prodh 0004F4                                      prodl 0004F3  
                                    start 001A                     main@timeout5sPressed1 0565  
                   main@timeout5sPressed2 0567                     main@timeout5sPressed3 0569  
                   main@timeout5sPressed4 056B                 __end_of_SPI1_ExchangeByte 3DCC  
                            ___param_bank 000000                                     ??_map 052F  
               __size_of_DATAEE_WriteByte 0052                            LED_WriteFull@i 050E  
          __size_of_OSCILLATOR_Initialize 001C             __end_of_OSCILLATOR_Initialize 3E9E  
                   __size_of_ws_send_byte 00D4                           __end_of___aldiv 392C  
                                   _ADCAP 0003F0                                     _ADACT 0003F9  
                                   ?_main 0501                                     _ADCLK 0003FA  
                                   _ADCNT 0003E6                                     _ADPCH 0003EC  
                                   _ADREF 0003F8                                     _ADRPT 0003E7  
                            main@greenAdj 0574          SPI1_Open@spi1UniqueConfiguration 0502  
                                   _T2CON 00031E                                     _T2HLT 00031F  
                                   _T2TMR 00031C                                     _T2RST 000321  
                                   i2l503 3DA8                                     i2l423 3DEC  
                                   i2l509 3F26                                     i2l732 3E48  
                                   i2l499 3F20                                     _OSCEN 0000B3  
                            main@redMode1 058B                              main@redMode2 057B  
                            main@redMode3 057E                              main@redMode4 0581  
                                   _TRISA 0004C6                                     _TRISB 0004C7  
                                   _TRISC 0004C8               LOOPDELAY_Init@newLoopTimeMS 0501  
                      __size_of_SPI1_Open 00DA                       ___lmul@multiplicand 0505  
                        __end_of_TMR2_ISR 3F22                           _DATAEE_ReadByte 3ED4  
                                   pclath 0004FA                                     tablat 0004F5  
                            main@whiteAdj 0576                                     status 0004D8  
                __size_of_SPI1_Initialize 001A                           __initialization 3E4A  
                           _LED_WriteFull 3CD2                              _ws_send_byte 3A06  
                           main@led1Blink 0587                             main@led2Blink 0588  
                           main@led3Blink 0589                             main@led4Blink 058A  
                            __end_of_main 3820                   __end_of_TMR2_Initialize 3D7E  
             ?_INTERRUPT_InterruptManager 0501                  _TMR2_SetInterruptHandler 3EEE  
                                  ??_main 052F                             main@blueMode1 058D  
                           main@blueMode2 057D                             main@blueMode3 0580  
                           main@blueMode4 0583                             __activetblptr 000003  
                                  _ADACCH 0003E4                                    _ADACCL 0003E3  
                                  _ADACCU 0003E5                                    _ADACQH 0003EF  
                                  _ADACQL 0003EE                                    _ADCON0 0003F3  
                                  _ADCON1 0003F4                                    _ADCON2 0003F5  
                                  _ADCON3 0003F6                                    _ADERRH 0003DE  
                                  _ADERRL 0003DD                                    _ADLTHH 0003DA  
                                  _ACTCON 0000AC                                    _ADLTHL 0003D9  
                                  _ADRESH 0003EB                                    _ADRESL 0003EA  
                                  _ADPREH 0003F2                                    _ADPREL 0003F1  
                                  _ADSTAT 0003F7                                    _ADUTHH 0003DC  
                                  _ADUTHL 0003DB                                    _ANSELA 000400  
                                  _ANSELB 000408                                    _ANSELC 000410  
                                  _RB4PPS 00020D                                    _RB6PPS 00020F  
                                  _ODCONA 000402                                    _ODCONB 00040A  
                                  _ODCONC 000412                                    i2l1507 3D7E  
                                  i2l1509 3D90                                    i2l1475 3E2C  
                                  i2l1477 3E44                                    i2l1903 3DCC  
                                  i2l1681 3F1C                                    i2l1905 3DDA  
                                  i2l1907 3DE8                                    i2l1679 3F1A  
                                  _INLVLA 000404                                    _INLVLB 00040C  
                                  _INLVLC 000414                                    _TABLAT 0004F5  
                                  _OSCFRQ 0000B1     __end_of_ADCC_DischargeSampleCapacitor 3F1A  
  __size_of_ADCC_DischargeSampleCapacitor 0008             _ADCC_DischargeSampleCapacitor 3F12  
              __size_of_SPI1_ExchangeByte 0022                            ?_LED_WriteFull 0507  
                       __end_of_SPI1_Open 3A06                                    ___lmul 3B54  
                               ??___aldiv 0515                __end_of_LOOPDELAY_TimerISR 3E4A  
                        __end_of_onePulse 3F12                   __end_of_DATAEE_ReadByte 3EEE  
                         _ADCC_Initialize 3C24                            _PMD_Initialize 3E66  
                           main@timeout5s 0560                              __mediumconst 0000  
                                  tblptrh 0004F7                                    tblptrl 0004F6  
                                  tblptru 0004F8         __size_of_ADCC_GetSingleConversion 0032  
               ?_ADCC_GetSingleConversion 0501  TMR2_SetInterruptHandler@InterruptHandler 0501  
                      LED_WriteFull@green 0507             __size_of_INTERRUPT_Initialize 0004  
                      LED_WriteFull@white 0509                         _SYSTEM_Initialize 3E0E  
                              __accesstop 0560                   __end_of__initialization 3E60  
                   __end_of_TMR2_CallBack 3DAA                        ?_SYSTEM_Initialize 0501  
                           ___rparam_used 000001                            __pcstackCOMRAM 0501  
                     ??_SYSTEM_Initialize 0503                    __size_of_WS2812B_Write 001C  
                               ?_TMR2_ISR 0501                          _DATAEE_WriteByte 3C80  
                       ??_SPI1_Initialize 0501                          ?_TMR2_Initialize 0501  
                  __end_of_PMD_Initialize 3E82                     SPI1_ExchangeByte@data 0501  
                      _spi1_configuration 1601                 __end_of_SYSTEM_Initialize 3E2C  
                        LED_WriteFull@red 050D                                __pnvCOMRAM 053A  
                         ??_LED_WriteFull 050D                                   IVTBASEH 00045E  
                                 IVTBASEL 00045D                                   IVTBASEU 00045F  
          ?_ADCC_DischargeSampleCapacitor 0501                                   ?___lmul 0501  
                              ??_TMR2_ISR 0501                   __end_of_ADCC_Initialize 3C80  
                                 _ADFLTRH 0003E2                                   _ADFLTRL 0003E1  
                          ___lmul@product 0509                                   _ADPREVH 0003E9  
                                 _ADPREVL 0003E8                                   _ADSTPTH 0003E0  
                                 _ADSTPTL 0003DF                           ?_PMD_Initialize 0501  
                          main@greenMode1 058C                            main@greenMode2 057C  
                          main@greenMode3 057F                            main@greenMode4 0582  
                   fp__LOOPDELAY_TimerISR 0000                          ?_DATAEE_ReadByte 0501  
                                 _OSCCON1 0000AD                                   _OSCCON3 0000AF  
                                 _TBLPTRH 0004F7                                   _TBLPTRL 0004F6  
                                 i2u10_40 3E44                                   i2u10_41 3E40  
                                 _SPI1CLK 00008C                                   _TBLPTRU 0004F8  
                                 i2u11_40 3D90                                   i2u11_41 3D8C  
                                 i2u12_48 3D96                                   i2u12_49 3DA8  
                                 i2u40_40 3DE8                                   i2u40_41 3DE4  
                                 _SPI1RXB 000080                                   _NVMADRH 000044  
                                 _NVMADRL 000043                                   _SPI1TXB 000081  
                                 _NVMADRU 000045                                   _OSCTUNE 0000B0  
                                 _NVMDATL 000046                                   i2u39_40 3DDA  
                                 i2u39_41 3DD6                                   _NVMLOCK 000042  
                                 _SLRCONA 000403                                   _SLRCONB 00040B  
                                 _SLRCONC 000413                             _WS2812B_Write 3E9E  
                      __size_of_zeroPulse 0008                      DATAEE_WriteByte@bAdd 0501  
                               ?_onePulse 0501                   __size_of_LOOPDELAY_Init 000A  
                                 __Hparam 0000                   __size_of_LOOPDELAY_Wait 0020  
                                 __Lparam 0000                ??_TMR2_SetInterruptHandler 0503  
                                 ___aldiv 3820                           __size_of___lmul 006A  
                            __psmallconst 1600                                   __pcinit 3E4A  
                                 __ramtop 1600                                   __ptext0 1608  
                                 __ptext1 3ADA                                   __ptext2 3B54  
                                 __ptext3 3820                                   __ptext4 3E0E  
                                 __ptext5 3D50                                   __ptext6 3EEE  
                                 __ptext7 3EBA                                   __ptext8 3E66  
                                 __ptext9 3BBE                     _OSCILLATOR_Initialize 3E82  
                               _T2CONbits 00031E                              __size_of_map 007A  
                        ___aldiv@dividend 050D                  ??_PIN_MANAGER_Initialize 0501  
                               _T2HLTbits 00031F                            ?_WS2812B_Write 0503  
              __size_of_SYSTEM_Initialize 001E                                   main@red 058F  
                    end_of_initialization 3E60                                _loopTimeMS 0536  
                               _T2RSTbits 000321                            main@timeout10s 0563  
                              ??_onePulse 0502                            main@whiteMode1 058E  
                          main@whiteMode2 0584                            main@whiteMode3 0585  
                          main@whiteMode4 0586                                 _SPI1TCNTL 000082  
                        ___aldiv@quotient 0517                          ?_ADCC_Initialize 0501  
                               _SPI1_Open 392C          __end_of_ADCC_GetSingleConversion 3D50  
                       __end_of_zeroPulse 3F0A                                 _PORTAbits 0004CE  
                               _PORTBbits 0004CF                                 _PORTCbits 0004D0  
                      main@led1StateBlink 056D                                 _TRISBbits 0004C7  
                      _LOOPDELAY_TimerISR 3E2C                        main@led2StateBlink 056E  
                __end_of_DATAEE_WriteByte 3CD2                                map@out_max 052B  
                              map@out_min 0527                       ?_LOOPDELAY_TimerISR 0501  
                         _SPI1_Initialize 3EBA                                main@redAdj 0573  
                      main@led3StateBlink 056F              __end_of_INTERRUPT_Initialize 3F26  
    __end_of_TMR2_DefaultInterruptHandler 3F28     __size_of_TMR2_DefaultInterruptHandler 0002  
            _TMR2_DefaultInterruptHandler 3F26                        main@led4StateBlink 0570  
                              ?_SPI1_Open 0501                            __end_of___lmul 3BBE  
                       __size_of_TMR2_ISR 0008                      ??_LOOPDELAY_TimerISR 0501  
                  ?_OSCILLATOR_Initialize 0501                           ??_WS2812B_Write 0506  
                     start_initialization 3E4A           __size_of_PIN_MANAGER_Initialize 0066  
                             __end_of_map 3B54                                ivt0x8_base 0008  
                     DATAEE_ReadByte@bAdd 0501                            _LOOPDELAY_Init 3EF8  
                          _LOOPDELAY_Wait 3DEE                          ??_PMD_Initialize 0501  
                                ??___lmul 0509           fp__TMR2_DefaultInterruptHandler 0000  
           ?_TMR2_DefaultInterruptHandler 0501                         LED_WriteFull@blue 0508  
                _ADCC_GetSingleConversion 3D1E                    __size_of_TMR2_CallBack 002C  
                             __pbssCOMRAM 0536                             __pcstackBANK5 0560  
                __size_of_TMR2_Initialize 002E                   __end_of_SPI1_Initialize 3ED4  
                  __end_of_LOOPDELAY_Init 3F02                    __end_of_LOOPDELAY_Wait 3E0E  
                   __end_of_LED_WriteFull 3D1E                    _PIN_MANAGER_Initialize 3BBE  
                           ?_ws_send_byte 0501                         __size_of_onePulse 0008  
                                ?___aldiv 050D           ADCC_GetSingleConversion@channel 0505  
                             ??_SPI1_Open 0501                                 _bufferRAM 001500  
            ??_INTERRUPT_InterruptManager 0501                               __smallconst 1600  
                                _T2CLKCON 000320                  __size_of_DATAEE_ReadByte 001A  
                    _INTERRUPT_Initialize 3F22                           ___aldiv@divisor 0511  
                         ___aldiv@counter 0515                           ?_LOOPDELAY_Init 0501  
                         ?_LOOPDELAY_Wait 0501                                  _LATAbits 0004BE  
                                _LATCbits 0004C0                             _TMR2_CallBack 3D7E  
                                _PIE3bits 0004AB                              _SPI1CON0bits 000084  
                          ??_ws_send_byte 0502       __size_of_INTERRUPT_InterruptManager 0022  
                                _PIR0bits 0004B3                                  _SPI1BAUD 000089  
                                _PIR3bits 0004B6                                  _SPI1CON0 000084  
                                _SPI1CON1 000085                                  _SPI1CON2 000086  
                                _TMR2_ISR 3F1A                                 map@in_max 0523  
                               map@in_min 051F                                _ADCON0bits 0003F3  
                              _ADCON1bits 0003F4                                _ADCON2bits 0003F5  
                              _ADCON3bits 0003F6                                 main@green 0590  
          ??_TMR2_DefaultInterruptHandler 0501         __size_of_TMR2_SetInterruptHandler 000A  
                               _zeroPulse 3F02                                 main@state 0593  
                               main@white 0592                 ?_TMR2_SetInterruptHandler 0501  
                   DATAEE_WriteByte@bData 0503                          ?_SPI1_Initialize 0501  
                             _INTCON0bits 0004D6                         ___lmul@multiplier 0501  
                   ?_INTERRUPT_Initialize 0501                         ?_DATAEE_WriteByte 0501  
                       ??_TMR2_Initialize 0503                            ?_TMR2_CallBack 0501  
                      ??_DATAEE_WriteByte 0504                                _ADSTATbits 0003F7  
                                __Hrparam 0000                                  __Lrparam 0000  
                        main@timeout100ms 0562                          main@timeout250ms 0571  
                        main@timeout500ms 0572                             ws_send_byte@K 0502  
                 ??_OSCILLATOR_Initialize 0501                          __size_of___aldiv 010C  
                __size_of_ADCC_Initialize 005C                                ?_zeroPulse 0501  
                                __pivt0x8 0008                                  __ptext10 3E82  
                                __ptext11 3F22                                  __ptext20 3F0A  
                                __ptext12 3C24                                  __ptext21 3DAA  
                                __ptext13 392C                                  __ptext30 3F26  
                                __ptext22 3C80                                  __ptext14 3DEE  
                                __ptext31 0000                                  __ptext23 3ED4  
                                __ptext15 3EF8                                  __ptext24 3D1E  
                                __ptext16 3CD2                                  __ptext25 3F12  
                                __ptext17 3E9E                                  __ptext26 3DCC  
                                __ptext18 3A06                                  __ptext27 3F1A  
                                __ptext19 3F02                                  __ptext28 3D7E  
                                __ptext29 3E2C               DATAEE_WriteByte@GIEBitValue 0504  
                           __size_of_main 2218                                  _onePulse 3F0A  
                       ??_DATAEE_ReadByte 0503                           main@taster1Flag 0577  
                         main@taster2Flag 0578                           main@taster3Flag 057A  
                         main@taster4Flag 0579                ??_ADCC_GetSingleConversion 0503  
      __end_of_INTERRUPT_InterruptManager 3DEE                _INTERRUPT_InterruptManager 3DCC  
                                main@blue 0591               __size_of_LOOPDELAY_TimerISR 001E  
                             _loopTimeCnt 0538                               _NVMCON0bits 000040  
                             _NVMCON1bits 000041                      __end_of_ws_send_byte 3ADA  
                   __end_of_WS2812B_Write 3EBA                    ??_INTERRUPT_Initialize 0501  
                                intlevel2 0000                           ??_TMR2_CallBack 0501  
                 ?_PIN_MANAGER_Initialize 0501                                _SPI1SCKPPS 00026A  
                              _SPI1SDIPPS 00026B                     LED_WriteFull@ledcount 050A  
                             ??_zeroPulse 0502                              ___aldiv@sign 0516  
                        ??_LOOPDELAY_Init 0503                          ??_LOOPDELAY_Wait 0501  
          __end_of_PIN_MANAGER_Initialize 3C24                         ??_ADCC_Initialize 0501  
                   _TMR2_InterruptHandler 053A                __end_of_spi1_configuration 1606  
