

Microchip MPLAB XC8 Assembler V2.31 build 20201012212115 
                                                                                               Thu Jul 21 23:50:04 2022

Microchip MPLAB XC8 C Compiler v2.31 (Free license) build 20201012212115 Og1 
     1                           	processor	18F16Q40
     2                           	fnconf	rparam,??,?,0
     3                           	pagewidth 120
     4                           	opt	flic
     5                           	psect	smallconst,global,reloc=2,class=SMALLCONST,delta=1,noexec
     6                           	psect	nvCOMRAM,global,class=COMRAM,space=1,delta=1,lowdata,noexec
     7                           	psect	cinit,global,reloc=2,class=CODE,delta=1
     8                           	psect	bssCOMRAM,global,class=COMRAM,space=1,delta=1,lowdata,noexec
     9                           	psect	cstackBANK5,global,class=BANK5,space=1,delta=1,lowdata,noexec
    10                           	psect	cstackCOMRAM,global,class=COMRAM,space=1,delta=1,lowdata,noexec
    11                           	psect	text0,global,reloc=2,class=CODE,delta=1
    12                           	psect	text1,global,reloc=2,class=CODE,delta=1
    13                           	psect	text2,global,reloc=2,class=CODE,delta=1,group=1
    14                           	psect	text3,global,reloc=2,class=CODE,delta=1,group=1
    15                           	psect	text4,global,reloc=2,class=CODE,delta=1
    16                           	psect	text5,global,reloc=2,class=CODE,delta=1
    17                           	psect	text6,global,reloc=2,class=CODE,delta=1
    18                           	psect	text7,global,reloc=2,class=CODE,delta=1
    19                           	psect	text8,global,reloc=2,class=CODE,delta=1
    20                           	psect	text9,global,reloc=2,class=CODE,delta=1
    21                           	psect	text10,global,reloc=2,class=CODE,delta=1
    22                           	psect	text11,global,reloc=2,class=CODE,delta=1
    23                           	psect	text12,global,reloc=2,class=CODE,delta=1
    24                           	psect	text13,global,reloc=2,class=CODE,delta=1
    25                           	psect	text14,global,reloc=2,class=CODE,delta=1
    26                           	psect	text15,global,reloc=2,class=CODE,delta=1
    27                           	psect	text16,global,reloc=2,class=CODE,delta=1
    28                           	psect	text17,global,reloc=2,class=CODE,delta=1
    29                           	psect	text18,global,reloc=2,class=CODE,delta=1
    30                           	psect	text19,global,reloc=2,class=CODE,delta=1
    31                           	psect	text20,global,reloc=2,class=CODE,delta=1
    32                           	psect	text21,global,reloc=2,class=CODE,delta=1
    33                           	psect	text22,global,reloc=2,class=CODE,delta=1
    34                           	psect	text23,global,reloc=2,class=CODE,delta=1
    35                           	psect	text24,global,reloc=2,class=CODE,delta=1
    36                           	psect	text25,global,reloc=2,class=CODE,delta=1
    37                           	psect	text26,global,reloc=2,class=CODE,delta=1
    38                           	psect	text27,global,reloc=2,class=CODE,delta=1
    39                           	psect	text28,global,reloc=2,class=CODE,delta=1
    40                           	psect	text29,global,reloc=2,class=CODE,delta=1
    41                           	psect	text30,global,reloc=2,class=CODE,delta=1
    42                           	psect	ivt0x8,global,reloc=2,class=CODE,delta=1,noexec,keep,optim=
    43                           	psect	intsave_regs,global,class=BIGRAM,space=1,delta=1,noexec
    44                           	psect	text31,global,reloc=2,class=CODE,delta=1
    45                           	psect	rparam,global,class=COMRAM,space=1,delta=1,noexec
    46                           	psect	idloc,global,abs,ovrld,class=IDLOC,space=5,delta=1,noexec
    47                           	psect	config,global,abs,ovrld,class=CONFIG,space=4,delta=1,noexec
    48                           	dabs	1,0x1500,2,_bufferRAM
    49  0000                     
    50                           ; Version 2.30
    51                           ; Generated 20/08/2020 GMT
    52                           ; 
    53                           ; Copyright © 2020, Microchip Technology Inc. and its subsidiaries ("Microchip")
    54                           ; All rights reserved.
    55                           ; 
    56                           ; This software is developed by Microchip Technology Inc. and its subsidiaries ("Microch
      +                          ip").
    57                           ; 
    58                           ; Redistribution and use in source and binary forms, with or without modification, are
    59                           ; permitted provided that the following conditions are met:
    60                           ; 
    61                           ;     1. Redistributions of source code must retain the above copyright notice, this lis
      +                          t of
    62                           ;        conditions and the following disclaimer.
    63                           ; 
    64                           ;     2. Redistributions in binary form must reproduce the above copyright notice, this 
      +                          list
    65                           ;        of conditions and the following disclaimer in the documentation and/or other
    66                           ;        materials provided with the distribution. Publication is not required when
    67                           ;        this file is used in an embedded application.
    68                           ; 
    69                           ;     3. Microchip's name may not be used to endorse or promote products derived from th
      +                          is
    70                           ;        software without specific prior written permission.
    71                           ; 
    72                           ; THIS SOFTWARE IS PROVIDED BY MICROCHIP "AS IS" AND ANY EXPRESS OR IMPLIED WARRANTIES,
    73                           ; INCLUDING, BUT NOT LIMITED TO, THE IMPLIED WARRANTIES OF MERCHANTABILITY AND FITNESS F
      +                          OR
    74                           ; PURPOSE ARE DISCLAIMED.  IN NO EVENT SHALL MICROCHIP BE LIABLE FOR ANY DIRECT, INDIREC
      +                          T,
    75                           ; INCIDENTAL, SPECIAL, EXEMPLARY, OR CONSEQUENTIAL DAMAGES (INCLUDING BUT NOT LIMITED TO
    76                           ; PROCUREMENT OF SUBSTITUTE GOODS OR SERVICES; LOSS OF USE, DATA OR PROFITS; OR BUSINESS
    77                           ; INTERRUPTION) HOWSOEVER CAUSED AND ON ANY THEORY OF LIABILITY, WHETHER IN CONTRACT, ST
      +                          RICT
    78                           ; LIABILITY, OR TORT (INCLUDING NEGLIGENCE OR OTHERWISE) ARISING IN ANY WAY OUT OF THE U
      +                          SE OF
    79                           ; THIS SOFTWARE, EVEN IF ADVISED OF THE POSSIBILITY OF SUCH DAMAGE.
    80                           ; 
    81                           ; 
    82                           ; Code-generator required, PIC18F16Q40 Definitions
    83                           ; 
    84                           ; SFR Addresses
    85  0000                     
    86                           	psect	smallconst
    87  001600                     __psmallconst:
    88                           	callstack 0
    89  001600  00                 	db	0
    90  001601                     _spi1_configuration:
    91                           	callstack 0
    92  001601  02                 	db	2
    93  001602  40                 	db	64
    94  001603  00                 	db	0
    95  001604  03                 	db	3
    96  001605  00                 	db	0
    97  001606                     __end_of_spi1_configuration:
    98                           	callstack 0
    99  001606  00                 	db	0	; dummy byte at the end
   100  0000                     
   101                           	psect	nvCOMRAM
   102  00053F                     __pnvCOMRAM:
   103                           	callstack 0
   104  00053F                     _TMR2_InterruptHandler:
   105                           	callstack 0
   106  00053F                     	ds	2
   107  0000                     _NVMDATL	set	70
   108  0000                     _NVMCON0bits	set	64
   109  0000                     _NVMLOCK	set	66
   110  0000                     _NVMCON1bits	set	65
   111  0000                     _NVMADRL	set	67
   112  0000                     _NVMADRH	set	68
   113  0000                     _NVMADRU	set	69
   114  0000                     _SPI1RXB	set	128
   115  0000                     _SPI1TXB	set	129
   116  0000                     _SPI1TCNTL	set	130
   117  0000                     _SPI1CON0bits	set	132
   118  0000                     _SPI1BAUD	set	137
   119  0000                     _SPI1CLK	set	140
   120  0000                     _SPI1CON2	set	134
   121  0000                     _SPI1CON1	set	133
   122  0000                     _SPI1CON0	set	132
   123  0000                     _PMD5	set	104
   124  0000                     _PMD4	set	103
   125  0000                     _PMD3	set	102
   126  0000                     _PMD2	set	101
   127  0000                     _PMD1	set	100
   128  0000                     _PMD0	set	99
   129  0000                     _ACTCON	set	172
   130  0000                     _OSCTUNE	set	176
   131  0000                     _OSCFRQ	set	177
   132  0000                     _OSCEN	set	179
   133  0000                     _OSCCON3	set	175
   134  0000                     _OSCCON1	set	173
   135  0000                     _SPI1SDIPPS	set	619
   136  0000                     _RB4PPS	set	525
   137  0000                     _RB6PPS	set	527
   138  0000                     _SPI1SCKPPS	set	618
   139  0000                     _PR2	set	797
   140  0000                     _TMR2	set	796
   141  0000                     _T2CONbits	set	798
   142  0000                     _T2RSTbits	set	801
   143  0000                     _T2HLTbits	set	799
   144  0000                     _T2CON	set	798
   145  0000                     _T2TMR	set	796
   146  0000                     _T2PR	set	797
   147  0000                     _T2RST	set	801
   148  0000                     _T2HLT	set	799
   149  0000                     _T2CLKCON	set	800
   150  0000                     _ADCON1bits	set	1012
   151  0000                     _ADERRL	set	989
   152  0000                     _ADERRH	set	990
   153  0000                     _ADPREVL	set	1000
   154  0000                     _ADPREVH	set	1001
   155  0000                     _ADFLTRL	set	993
   156  0000                     _ADFLTRH	set	994
   157  0000                     _ADSTATbits	set	1015
   158  0000                     _ADACCL	set	995
   159  0000                     _ADACCH	set	996
   160  0000                     _ADCON2bits	set	1013
   161  0000                     _ADCNT	set	998
   162  0000                     _ADCON3bits	set	1014
   163  0000                     _ADRESL	set	1002
   164  0000                     _ADRESH	set	1003
   165  0000                     _ADCON0bits	set	1011
   166  0000                     _ADCON0	set	1011
   167  0000                     _ADCLK	set	1018
   168  0000                     _ADACT	set	1017
   169  0000                     _ADREF	set	1016
   170  0000                     _ADSTAT	set	1015
   171  0000                     _ADCON3	set	1014
   172  0000                     _ADCON2	set	1013
   173  0000                     _ADCON1	set	1012
   174  0000                     _ADPREH	set	1010
   175  0000                     _ADPREL	set	1009
   176  0000                     _ADCAP	set	1008
   177  0000                     _ADACQH	set	1007
   178  0000                     _ADACQL	set	1006
   179  0000                     _ADPCH	set	1004
   180  0000                     _ADRPT	set	999
   181  0000                     _ADACCU	set	997
   182  0000                     _ADSTPTH	set	992
   183  0000                     _ADSTPTL	set	991
   184  0000                     _ADUTHH	set	988
   185  0000                     _ADUTHL	set	987
   186  0000                     _ADLTHH	set	986
   187  0000                     _ADLTHL	set	985
   188  0000                     _INLVLC	set	1044
   189  0000                     _INLVLB	set	1036
   190  0000                     _INLVLA	set	1028
   191  0000                     _SLRCONC	set	1043
   192  0000                     _SLRCONB	set	1035
   193  0000                     _SLRCONA	set	1027
   194  0000                     _ODCONC	set	1042
   195  0000                     _ODCONB	set	1034
   196  0000                     _ODCONA	set	1026
   197  0000                     _WPUC	set	1041
   198  0000                     _WPUA	set	1025
   199  0000                     _WPUB	set	1033
   200  0000                     _ANSELA	set	1024
   201  0000                     _ANSELB	set	1032
   202  0000                     _ANSELC	set	1040
   203  0000                     _PORTBbits	set	1231
   204  0000                     _PORTAbits	set	1230
   205  0000                     _PORTCbits	set	1232
   206  0000                     _LATAbits	set	1214
   207  0000                     _LATCbits	set	1216
   208  0000                     _PIE3bits	set	1195
   209  0000                     _PIR0bits	set	1203
   210  0000                     _INTCON0bits	set	1238
   211  0000                     _TABLAT	set	1269
   212  0000                     _TBLPTRL	set	1270
   213  0000                     _TBLPTRH	set	1271
   214  0000                     _TBLPTRU	set	1272
   215  0000                     _PIR3bits	set	1206
   216  0000                     _TRISBbits	set	1223
   217  0000                     _TRISC	set	1224
   218  0000                     _TRISB	set	1223
   219  0000                     _TRISA	set	1222
   220  0000                     _LATC	set	1216
   221  0000                     _LATB	set	1215
   222  0000                     _LATA	set	1214
   223                           
   224                           ; #config settings
   225                           
   226                           	psect	cinit
   227  003E7A                     __pcinit:
   228                           	callstack 0
   229  003E7A                     start_initialization:
   230                           	callstack 0
   231  003E7A                     __initialization:
   232                           	callstack 0
   233                           
   234                           ; Clear objects allocated to COMRAM (9 bytes)
   235  003E7A  EE01  F136         	lfsr	0,__pbssCOMRAM
   236  003E7E  0E09               	movlw	9
   237  003E80                     clear_0:
   238  003E80  6AEE               	clrf	postinc0,c
   239  003E82  06E8               	decf	wreg,f,c
   240  003E84  E1FD               	bnz	clear_0
   241                           
   242                           ;
   243                           ; Setup IVTBASE
   244                           ;
   245  003E86  0104               	movlb	4
   246  003E88  0E08               	movlw	(ivt0x8_base shr 0)& (0+255)
   247  003E8A  6F5D               	movwf	93,b
   248  003E8C  0E00               	movlw	(ivt0x8_base shr (0+8))& (0+255)
   249  003E8E  6F5E               	movwf	94,b
   250  003E90  0E00               	movlw	(ivt0x8_base shr (0+16))& (0+255)
   251  003E92  6F5F               	movwf	95,b
   252  003E94                     end_of_initialization:
   253                           	callstack 0
   254  003E94                     __end_of__initialization:
   255                           	callstack 0
   256  003E94  0100               	movlb	0
   257  003E96  EF04  F00B         	goto	_main	;jump to C main() function
   258                           
   259                           	psect	bssCOMRAM
   260  000536                     __pbssCOMRAM:
   261                           	callstack 0
   262  000536                     _arrayPlace:
   263                           	callstack 0
   264  000536                     	ds	4
   265  00053A                     _loopTimeMS:
   266                           	callstack 0
   267  00053A                     	ds	2
   268  00053C                     _loopTimeCnt:
   269                           	callstack 0
   270  00053C                     	ds	2
   271  00053E                     _ledOutput:
   272                           	callstack 0
   273  00053E                     	ds	1
   274                           
   275                           	psect	cstackBANK5
   276  000560                     __pcstackBANK5:
   277                           	callstack 0
   278  000560                     main@timeout5s:
   279                           	callstack 0
   280                           
   281                           ; 2 bytes @ 0x0
   282  000560                     	ds	2
   283  000562                     main@timeout100ms:
   284                           	callstack 0
   285                           
   286                           ; 1 bytes @ 0x2
   287  000562                     	ds	1
   288  000563                     main@timeout10s:
   289                           	callstack 0
   290                           
   291                           ; 2 bytes @ 0x3
   292  000563                     	ds	2
   293  000565                     main@timeout5sPressed1:
   294                           	callstack 0
   295                           
   296                           ; 2 bytes @ 0x5
   297  000565                     	ds	2
   298  000567                     main@timeout5sPressed2:
   299                           	callstack 0
   300                           
   301                           ; 2 bytes @ 0x7
   302  000567                     	ds	2
   303  000569                     main@timeout5sPressed3:
   304                           	callstack 0
   305                           
   306                           ; 2 bytes @ 0x9
   307  000569                     	ds	2
   308  00056B                     main@timeout5sPressed4:
   309                           	callstack 0
   310                           
   311                           ; 2 bytes @ 0xB
   312  00056B                     	ds	2
   313  00056D                     main@led1StateBlink:
   314                           	callstack 0
   315                           
   316                           ; 1 bytes @ 0xD
   317  00056D                     	ds	1
   318  00056E                     main@led2StateBlink:
   319                           	callstack 0
   320                           
   321                           ; 1 bytes @ 0xE
   322  00056E                     	ds	1
   323  00056F                     main@led3StateBlink:
   324                           	callstack 0
   325                           
   326                           ; 1 bytes @ 0xF
   327  00056F                     	ds	1
   328  000570                     main@led4StateBlink:
   329                           	callstack 0
   330                           
   331                           ; 1 bytes @ 0x10
   332  000570                     	ds	1
   333  000571                     main@timeout250ms:
   334                           	callstack 0
   335                           
   336                           ; 1 bytes @ 0x11
   337  000571                     	ds	1
   338  000572                     main@timeout500ms:
   339                           	callstack 0
   340                           
   341                           ; 1 bytes @ 0x12
   342  000572                     	ds	1
   343  000573                     main@redAdj:
   344                           	callstack 0
   345                           
   346                           ; 1 bytes @ 0x13
   347  000573                     	ds	1
   348  000574                     main@greenAdj:
   349                           	callstack 0
   350                           
   351                           ; 1 bytes @ 0x14
   352  000574                     	ds	1
   353  000575                     main@blueAdj:
   354                           	callstack 0
   355                           
   356                           ; 1 bytes @ 0x15
   357  000575                     	ds	1
   358  000576                     main@whiteAdj:
   359                           	callstack 0
   360                           
   361                           ; 1 bytes @ 0x16
   362  000576                     	ds	1
   363  000577                     main@taster1Flag:
   364                           	callstack 0
   365                           
   366                           ; 1 bytes @ 0x17
   367  000577                     	ds	1
   368  000578                     main@taster2Flag:
   369                           	callstack 0
   370                           
   371                           ; 1 bytes @ 0x18
   372  000578                     	ds	1
   373  000579                     main@taster4Flag:
   374                           	callstack 0
   375                           
   376                           ; 1 bytes @ 0x19
   377  000579                     	ds	1
   378  00057A                     main@taster3Flag:
   379                           	callstack 0
   380                           
   381                           ; 1 bytes @ 0x1A
   382  00057A                     	ds	1
   383  00057B                     main@redMode2:
   384                           	callstack 0
   385                           
   386                           ; 1 bytes @ 0x1B
   387  00057B                     	ds	1
   388  00057C                     main@greenMode2:
   389                           	callstack 0
   390                           
   391                           ; 1 bytes @ 0x1C
   392  00057C                     	ds	1
   393  00057D                     main@blueMode2:
   394                           	callstack 0
   395                           
   396                           ; 1 bytes @ 0x1D
   397  00057D                     	ds	1
   398  00057E                     main@redMode3:
   399                           	callstack 0
   400                           
   401                           ; 1 bytes @ 0x1E
   402  00057E                     	ds	1
   403  00057F                     main@greenMode3:
   404                           	callstack 0
   405                           
   406                           ; 1 bytes @ 0x1F
   407  00057F                     	ds	1
   408  000580                     main@blueMode3:
   409                           	callstack 0
   410                           
   411                           ; 1 bytes @ 0x20
   412  000580                     	ds	1
   413  000581                     main@redMode4:
   414                           	callstack 0
   415                           
   416                           ; 1 bytes @ 0x21
   417  000581                     	ds	1
   418  000582                     main@greenMode4:
   419                           	callstack 0
   420                           
   421                           ; 1 bytes @ 0x22
   422  000582                     	ds	1
   423  000583                     main@blueMode4:
   424                           	callstack 0
   425                           
   426                           ; 1 bytes @ 0x23
   427  000583                     	ds	1
   428  000584                     main@whiteMode2:
   429                           	callstack 0
   430                           
   431                           ; 1 bytes @ 0x24
   432  000584                     	ds	1
   433  000585                     main@whiteMode3:
   434                           	callstack 0
   435                           
   436                           ; 1 bytes @ 0x25
   437  000585                     	ds	1
   438  000586                     main@whiteMode4:
   439                           	callstack 0
   440                           
   441                           ; 1 bytes @ 0x26
   442  000586                     	ds	1
   443  000587                     main@led1Blink:
   444                           	callstack 0
   445                           
   446                           ; 1 bytes @ 0x27
   447  000587                     	ds	1
   448  000588                     main@led2Blink:
   449                           	callstack 0
   450                           
   451                           ; 1 bytes @ 0x28
   452  000588                     	ds	1
   453  000589                     main@led3Blink:
   454                           	callstack 0
   455                           
   456                           ; 1 bytes @ 0x29
   457  000589                     	ds	1
   458  00058A                     main@led4Blink:
   459                           	callstack 0
   460                           
   461                           ; 1 bytes @ 0x2A
   462  00058A                     	ds	1
   463  00058B                     main@redMode1:
   464                           	callstack 0
   465                           
   466                           ; 1 bytes @ 0x2B
   467  00058B                     	ds	1
   468  00058C                     main@greenMode1:
   469                           	callstack 0
   470                           
   471                           ; 1 bytes @ 0x2C
   472  00058C                     	ds	1
   473  00058D                     main@blueMode1:
   474                           	callstack 0
   475                           
   476                           ; 1 bytes @ 0x2D
   477  00058D                     	ds	1
   478  00058E                     main@whiteMode1:
   479                           	callstack 0
   480                           
   481                           ; 1 bytes @ 0x2E
   482  00058E                     	ds	1
   483  00058F                     main@red:
   484                           	callstack 0
   485                           
   486                           ; 1 bytes @ 0x2F
   487  00058F                     	ds	1
   488  000590                     main@green:
   489                           	callstack 0
   490                           
   491                           ; 1 bytes @ 0x30
   492  000590                     	ds	1
   493  000591                     main@blue:
   494                           	callstack 0
   495                           
   496                           ; 1 bytes @ 0x31
   497  000591                     	ds	1
   498  000592                     main@white:
   499                           	callstack 0
   500                           
   501                           ; 1 bytes @ 0x32
   502  000592                     	ds	1
   503  000593                     main@state:
   504                           	callstack 0
   505                           
   506                           ; 1 bytes @ 0x33
   507  000593                     	ds	1
   508                           
   509                           	psect	cstackCOMRAM
   510  000501                     __pcstackCOMRAM:
   511                           	callstack 0
   512  000501                     ??_SPI1_Open:
   513  000501                     ?_ADCC_GetSingleConversion:
   514                           	callstack 0
   515  000501                     ?___lmul:
   516                           	callstack 0
   517  000501                     ws_send_byte@K:
   518                           	callstack 0
   519  000501                     SPI1_ExchangeBlock@block:
   520                           	callstack 0
   521  000501                     DATAEE_WriteByte@bAdd:
   522                           	callstack 0
   523  000501                     DATAEE_ReadByte@bAdd:
   524                           	callstack 0
   525  000501                     TMR2_SetInterruptHandler@InterruptHandler:
   526                           	callstack 0
   527  000501                     LOOPDELAY_Init@newLoopTimeMS:
   528                           	callstack 0
   529  000501                     ___lmul@multiplier:
   530                           	callstack 0
   531                           
   532                           ; 4 bytes @ 0x0
   533  000501                     	ds	1
   534  000502                     SPI1_Open@spi1UniqueConfiguration:
   535                           	callstack 0
   536  000502                     WS2812B_Write@G:
   537                           	callstack 0
   538                           
   539                           ; 1 bytes @ 0x1
   540  000502                     	ds	1
   541  000503                     ??_ADCC_GetSingleConversion:
   542  000503                     DATAEE_WriteByte@bData:
   543                           	callstack 0
   544  000503                     WS2812B_Write@B:
   545                           	callstack 0
   546  000503                     SPI1_ExchangeBlock@blockSize:
   547                           	callstack 0
   548                           
   549                           ; 2 bytes @ 0x2
   550  000503                     	ds	1
   551  000504                     DATAEE_WriteByte@GIEBitValue:
   552                           	callstack 0
   553  000504                     WS2812B_Write@W:
   554                           	callstack 0
   555                           
   556                           ; 1 bytes @ 0x3
   557  000504                     	ds	1
   558  000505                     ADCC_GetSingleConversion@channel:
   559                           	callstack 0
   560  000505                     WS2812B_Write@R:
   561                           	callstack 0
   562  000505                     SPI1_ExchangeBlock@data:
   563                           	callstack 0
   564  000505                     ___lmul@multiplicand:
   565                           	callstack 0
   566                           
   567                           ; 4 bytes @ 0x4
   568  000505                     	ds	2
   569  000507                     LED_WriteFull@green:
   570                           	callstack 0
   571                           
   572                           ; 1 bytes @ 0x6
   573  000507                     	ds	1
   574  000508                     LED_WriteFull@blue:
   575                           	callstack 0
   576                           
   577                           ; 1 bytes @ 0x7
   578  000508                     	ds	1
   579  000509                     LED_WriteFull@white:
   580                           	callstack 0
   581  000509                     ___lmul@product:
   582                           	callstack 0
   583                           
   584                           ; 4 bytes @ 0x8
   585  000509                     	ds	1
   586  00050A                     LED_WriteFull@ledcount:
   587                           	callstack 0
   588                           
   589                           ; 3 bytes @ 0x9
   590  00050A                     	ds	3
   591  00050D                     ?___aldiv:
   592                           	callstack 0
   593  00050D                     LED_WriteFull@red:
   594                           	callstack 0
   595  00050D                     ___aldiv@dividend:
   596                           	callstack 0
   597                           
   598                           ; 4 bytes @ 0xC
   599  00050D                     	ds	1
   600  00050E                     LED_WriteFull@i:
   601                           	callstack 0
   602                           
   603                           ; 3 bytes @ 0xD
   604  00050E                     	ds	3
   605  000511                     LED_WriteFull@sizeArr:
   606                           	callstack 0
   607  000511                     ___aldiv@divisor:
   608                           	callstack 0
   609                           
   610                           ; 4 bytes @ 0x10
   611  000511                     	ds	4
   612  000515                     ___aldiv@counter:
   613                           	callstack 0
   614                           
   615                           ; 1 bytes @ 0x14
   616  000515                     	ds	1
   617  000516                     ___aldiv@sign:
   618                           	callstack 0
   619                           
   620                           ; 1 bytes @ 0x15
   621  000516                     	ds	1
   622  000517                     ___aldiv@quotient:
   623                           	callstack 0
   624                           
   625                           ; 4 bytes @ 0x16
   626  000517                     	ds	4
   627  00051B                     ?_map:
   628                           	callstack 0
   629  00051B                     map@x:
   630                           	callstack 0
   631                           
   632                           ; 4 bytes @ 0x1A
   633  00051B                     	ds	4
   634  00051F                     map@in_min:
   635                           	callstack 0
   636                           
   637                           ; 4 bytes @ 0x1E
   638  00051F                     	ds	4
   639  000523                     map@in_max:
   640                           	callstack 0
   641                           
   642                           ; 4 bytes @ 0x22
   643  000523                     	ds	4
   644  000527                     map@out_min:
   645                           	callstack 0
   646                           
   647                           ; 4 bytes @ 0x26
   648  000527                     	ds	4
   649  00052B                     map@out_max:
   650                           	callstack 0
   651                           
   652                           ; 4 bytes @ 0x2A
   653  00052B                     	ds	4
   654  00052F                     ??_main:
   655                           
   656                           ; 1 bytes @ 0x2E
   657  00052F                     	ds	7
   658                           
   659 ;;
   660 ;;Main: autosize = 0, tempsize = 7, incstack = 0, save=0
   661 ;;
   662 ;; *************** function _main *****************
   663 ;; Defined at:
   664 ;;		line 42 in file "main.c"
   665 ;; Parameters:    Size  Location     Type
   666 ;;		None
   667 ;; Auto vars:     Size  Location     Type
   668 ;;  timeout5sPre    2   11[BANK5 ] unsigned short 
   669 ;;  timeout5sPre    2    9[BANK5 ] unsigned short 
   670 ;;  timeout5sPre    2    7[BANK5 ] unsigned short 
   671 ;;  timeout5sPre    2    5[BANK5 ] unsigned short 
   672 ;;  timeout10s      2    3[BANK5 ] unsigned short 
   673 ;;  timeout5s       2    0[BANK5 ] unsigned short 
   674 ;;  state           1   51[BANK5 ] enum E13477
   675 ;;  white           1   50[BANK5 ] unsigned char 
   676 ;;  blue            1   49[BANK5 ] unsigned char 
   677 ;;  green           1   48[BANK5 ] unsigned char 
   678 ;;  red             1   47[BANK5 ] unsigned char 
   679 ;;  whiteMode1      1   46[BANK5 ] unsigned char 
   680 ;;  blueMode1       1   45[BANK5 ] unsigned char 
   681 ;;  greenMode1      1   44[BANK5 ] unsigned char 
   682 ;;  redMode1        1   43[BANK5 ] unsigned char 
   683 ;;  led4Blink       1   42[BANK5 ] _Bool 
   684 ;;  led3Blink       1   41[BANK5 ] _Bool 
   685 ;;  led2Blink       1   40[BANK5 ] _Bool 
   686 ;;  led1Blink       1   39[BANK5 ] _Bool 
   687 ;;  whiteMode4      1   38[BANK5 ] unsigned char 
   688 ;;  whiteMode3      1   37[BANK5 ] unsigned char 
   689 ;;  whiteMode2      1   36[BANK5 ] unsigned char 
   690 ;;  blueMode4       1   35[BANK5 ] unsigned char 
   691 ;;  greenMode4      1   34[BANK5 ] unsigned char 
   692 ;;  redMode4        1   33[BANK5 ] unsigned char 
   693 ;;  blueMode3       1   32[BANK5 ] unsigned char 
   694 ;;  greenMode3      1   31[BANK5 ] unsigned char 
   695 ;;  redMode3        1   30[BANK5 ] unsigned char 
   696 ;;  blueMode2       1   29[BANK5 ] unsigned char 
   697 ;;  greenMode2      1   28[BANK5 ] unsigned char 
   698 ;;  redMode2        1   27[BANK5 ] unsigned char 
   699 ;;  taster3Flag     1   26[BANK5 ] unsigned char 
   700 ;;  taster4Flag     1   25[BANK5 ] unsigned char 
   701 ;;  taster2Flag     1   24[BANK5 ] unsigned char 
   702 ;;  taster1Flag     1   23[BANK5 ] unsigned char 
   703 ;;  whiteAdj        1   22[BANK5 ] _Bool 
   704 ;;  blueAdj         1   21[BANK5 ] _Bool 
   705 ;;  greenAdj        1   20[BANK5 ] _Bool 
   706 ;;  redAdj          1   19[BANK5 ] _Bool 
   707 ;;  timeout500ms    1   18[BANK5 ] unsigned char 
   708 ;;  timeout250ms    1   17[BANK5 ] unsigned char 
   709 ;;  led4StateBli    1   16[BANK5 ] _Bool 
   710 ;;  led3StateBli    1   15[BANK5 ] _Bool 
   711 ;;  led2StateBli    1   14[BANK5 ] _Bool 
   712 ;;  led1StateBli    1   13[BANK5 ] _Bool 
   713 ;;  timeout100ms    1    2[BANK5 ] unsigned char 
   714 ;;  timeout1s       1    0        unsigned char 
   715 ;; Return value:  Size  Location     Type
   716 ;;                  1    wreg      void 
   717 ;; Registers used:
   718 ;;		wreg, fsr2l, fsr2h, status,2, status,0, tblptrl, tblptrh, tblptru, prodl, prodh, cstack
   719 ;; Tracked objects:
   720 ;;		On entry : 0/0
   721 ;;		On exit  : 0/0
   722 ;;		Unchanged: 0/0
   723 ;; Data sizes:     COMRAM   BANK5   BANK6   BANK7   BANK8   BANK9  BANK10  BANK11  BANK12  BANK13  BANK14  BANK15  BANK1
      +6  BANK17  BANK18  BANK19  BANK20  BANK21
   724 ;;      Params:         0       0       0       0       0       0       0       0       0       0       0       0       
      +0       0       0       0       0       0
   725 ;;      Locals:         0      52       0       0       0       0       0       0       0       0       0       0       
      +0       0       0       0       0       0
   726 ;;      Temps:          7       0       0       0       0       0       0       0       0       0       0       0       
      +0       0       0       0       0       0
   727 ;;      Totals:         7      52       0       0       0       0       0       0       0       0       0       0       
      +0       0       0       0       0       0
   728 ;;Total ram usage:       59 bytes
   729 ;; Hardware stack levels required when called:    8
   730 ;; This function calls:
   731 ;;		_ADCC_DischargeSampleCapacitor
   732 ;;		_ADCC_GetSingleConversion
   733 ;;		_DATAEE_ReadByte
   734 ;;		_DATAEE_WriteByte
   735 ;;		_LED_WriteFull
   736 ;;		_LOOPDELAY_Init
   737 ;;		_LOOPDELAY_Wait
   738 ;;		_SPI1_Open
   739 ;;		_SYSTEM_Initialize
   740 ;;		_TMR2_SetInterruptHandler
   741 ;;		_map
   742 ;; This function is called by:
   743 ;;		Startup code after reset
   744 ;; This function uses a non-reentrant model
   745 ;;
   746                           
   747                           	psect	text0
   748  001608                     __ptext0:
   749                           	callstack 0
   750  001608                     _main:
   751                           	callstack 120
   752  001608                     
   753                           ;main.c: 45:     SYSTEM_Initialize();
   754  001608  EC5D  F01F         	call	_SYSTEM_Initialize	;wreg free
   755  00160C                     
   756                           ;main.c: 46:     SPI1_Open(SPI1_DEFAULT);
   757  00160C  0E00               	movlw	0
   758  00160E  EC96  F01C         	call	_SPI1_Open
   759  001612                     
   760                           ;main.c: 47:     (INTCON0bits.GIE = 1);
   761  001612  8ED6               	bsf	214,7,c	;volatile
   762  001614                     
   763                           ;main.c: 49:     TMR2_SetInterruptHandler(LOOPDELAY_TimerISR);
   764  001614  0E14               	movlw	low _LOOPDELAY_TimerISR
   765  001616  6E01               	movwf	TMR2_SetInterruptHandler@InterruptHandler^(0+1280),c
   766  001618  0E3F               	movlw	high _LOOPDELAY_TimerISR
   767  00161A  6E02               	movwf	(TMR2_SetInterruptHandler@InterruptHandler+1)^(0+1280),c
   768  00161C  ECDD  F01F         	call	_TMR2_SetInterruptHandler	;wreg free
   769  001620                     
   770                           ;main.c: 52:     uint8_t redMode1, greenMode1, blueMode1, whiteMode1 = 20;
   771  001620  0E14               	movlw	20
   772  001622  0105               	movlb	5	; () banked
   773  001624  6F8E               	movwf	main@whiteMode1& (0+255),b
   774  001626                     
   775                           ; BSR set to: 5
   776                           ;main.c: 53:     uint8_t redMode2, greenMode2, blueMode2, whiteMode2 = 255;
   777  001626  6984               	setf	main@whiteMode2& (0+255),b
   778  001628                     
   779                           ; BSR set to: 5
   780                           ;main.c: 54:     uint8_t redMode3, greenMode3, blueMode3, whiteMode3 = 50;
   781  001628  0E32               	movlw	50
   782  00162A  6F85               	movwf	main@whiteMode3& (0+255),b
   783  00162C                     
   784                           ; BSR set to: 5
   785                           ;main.c: 55:     uint8_t redMode4, greenMode4, blueMode4, whiteMode4 = 0;
   786  00162C  0E00               	movlw	0
   787  00162E  6F86               	movwf	main@whiteMode4& (0+255),b
   788  001630                     
   789                           ; BSR set to: 5
   790                           ;main.c: 56:     uint8_t taster1Flag = 0;
   791  001630  0E00               	movlw	0
   792  001632  6F77               	movwf	main@taster1Flag& (0+255),b
   793  001634                     
   794                           ; BSR set to: 5
   795                           ;main.c: 57:     uint8_t taster2Flag = 0;
   796  001634  0E00               	movlw	0
   797  001636  6F78               	movwf	main@taster2Flag& (0+255),b
   798  001638                     
   799                           ; BSR set to: 5
   800                           ;main.c: 58:     uint8_t taster3Flag = 0;
   801  001638  0E00               	movlw	0
   802  00163A  6F7A               	movwf	main@taster3Flag& (0+255),b
   803  00163C                     
   804                           ; BSR set to: 5
   805                           ;main.c: 59:     uint8_t taster4Flag = 0;
   806  00163C  0E00               	movlw	0
   807  00163E  6F79               	movwf	main@taster4Flag& (0+255),b
   808  001640                     
   809                           ; BSR set to: 5
   810                           ;main.c: 62:     _Bool led1Blink = 0;
   811  001640  0E00               	movlw	0
   812  001642  6F87               	movwf	main@led1Blink& (0+255),b
   813  001644                     
   814                           ; BSR set to: 5
   815                           ;main.c: 63:     _Bool led2Blink = 0;
   816  001644  0E00               	movlw	0
   817  001646  6F88               	movwf	main@led2Blink& (0+255),b
   818  001648                     
   819                           ; BSR set to: 5
   820                           ;main.c: 64:     _Bool led3Blink = 0;
   821  001648  0E00               	movlw	0
   822  00164A  6F89               	movwf	main@led3Blink& (0+255),b
   823  00164C                     
   824                           ; BSR set to: 5
   825                           ;main.c: 65:     _Bool led4Blink = 0;
   826  00164C  0E00               	movlw	0
   827  00164E  6F8A               	movwf	main@led4Blink& (0+255),b
   828  001650                     
   829                           ; BSR set to: 5
   830                           ;main.c: 68:     _Bool led1StateBlink = 0;
   831  001650  0E00               	movlw	0
   832  001652  6F6D               	movwf	main@led1StateBlink& (0+255),b
   833  001654                     
   834                           ; BSR set to: 5
   835                           ;main.c: 69:     _Bool led2StateBlink = 0;
   836  001654  0E00               	movlw	0
   837  001656  6F6E               	movwf	main@led2StateBlink& (0+255),b
   838  001658                     
   839                           ; BSR set to: 5
   840                           ;main.c: 70:     _Bool led3StateBlink = 0;
   841  001658  0E00               	movlw	0
   842  00165A  6F6F               	movwf	main@led3StateBlink& (0+255),b
   843  00165C                     
   844                           ; BSR set to: 5
   845                           ;main.c: 71:     _Bool led4StateBlink = 0;
   846  00165C  0E00               	movlw	0
   847  00165E  6F70               	movwf	main@led4StateBlink& (0+255),b
   848  001660                     
   849                           ; BSR set to: 5
   850                           ;main.c: 73:     _Bool redAdj = 0;
   851  001660  0E00               	movlw	0
   852  001662  6F73               	movwf	main@redAdj& (0+255),b
   853  001664                     
   854                           ; BSR set to: 5
   855                           ;main.c: 74:     _Bool greenAdj = 0;
   856  001664  0E00               	movlw	0
   857  001666  6F74               	movwf	main@greenAdj& (0+255),b
   858  001668                     
   859                           ; BSR set to: 5
   860                           ;main.c: 75:     _Bool blueAdj = 0;
   861  001668  0E00               	movlw	0
   862  00166A  6F75               	movwf	main@blueAdj& (0+255),b
   863  00166C                     
   864                           ; BSR set to: 5
   865                           ;main.c: 76:     _Bool whiteAdj = 0;
   866  00166C  0E00               	movlw	0
   867  00166E  6F76               	movwf	main@whiteAdj& (0+255),b
   868  001670                     
   869                           ; BSR set to: 5
   870                           ;main.c: 78:     uint8_t timeout1s, timeout100ms = 0;
   871  001670  0E00               	movlw	0
   872  001672  6F62               	movwf	main@timeout100ms& (0+255),b
   873  001674                     
   874                           ; BSR set to: 5
   875                           ;main.c: 79:     uint16_t timeout5s = 0;
   876  001674  0E00               	movlw	0
   877  001676  6F61               	movwf	(main@timeout5s+1)& (0+255),b
   878  001678  0E00               	movlw	0
   879  00167A  6F60               	movwf	main@timeout5s& (0+255),b
   880  00167C                     
   881                           ; BSR set to: 5
   882                           ;main.c: 80:     uint16_t timeout5sPressed1 = 0;
   883  00167C  0E00               	movlw	0
   884  00167E  6F66               	movwf	(main@timeout5sPressed1+1)& (0+255),b
   885  001680  0E00               	movlw	0
   886  001682  6F65               	movwf	main@timeout5sPressed1& (0+255),b
   887  001684                     
   888                           ; BSR set to: 5
   889                           ;main.c: 81:     uint16_t timeout5sPressed2 = 0;
   890  001684  0E00               	movlw	0
   891  001686  6F68               	movwf	(main@timeout5sPressed2+1)& (0+255),b
   892  001688  0E00               	movlw	0
   893  00168A  6F67               	movwf	main@timeout5sPressed2& (0+255),b
   894  00168C                     
   895                           ; BSR set to: 5
   896                           ;main.c: 82:     uint16_t timeout5sPressed3 = 0;
   897  00168C  0E00               	movlw	0
   898  00168E  6F6A               	movwf	(main@timeout5sPressed3+1)& (0+255),b
   899  001690  0E00               	movlw	0
   900  001692  6F69               	movwf	main@timeout5sPressed3& (0+255),b
   901  001694                     
   902                           ; BSR set to: 5
   903                           ;main.c: 83:     uint16_t timeout5sPressed4 = 0;
   904  001694  0E00               	movlw	0
   905  001696  6F6C               	movwf	(main@timeout5sPressed4+1)& (0+255),b
   906  001698  0E00               	movlw	0
   907  00169A  6F6B               	movwf	main@timeout5sPressed4& (0+255),b
   908  00169C                     
   909                           ; BSR set to: 5
   910                           ;main.c: 84:     uint16_t timeout10s = 0;
   911  00169C  0E00               	movlw	0
   912  00169E  6F64               	movwf	(main@timeout10s+1)& (0+255),b
   913  0016A0  0E00               	movlw	0
   914  0016A2  6F63               	movwf	main@timeout10s& (0+255),b
   915  0016A4                     
   916                           ; BSR set to: 5
   917                           ;main.c: 85:     uint8_t timeout500ms = 0;
   918  0016A4  0E00               	movlw	0
   919  0016A6  6F72               	movwf	main@timeout500ms& (0+255),b
   920  0016A8                     
   921                           ; BSR set to: 5
   922                           ;main.c: 86:     uint8_t timeout250ms = 0;
   923  0016A8  0E00               	movlw	0
   924  0016AA  6F71               	movwf	main@timeout250ms& (0+255),b
   925  0016AC                     
   926                           ; BSR set to: 5
   927                           ;main.c: 88:     LATCbits.LATC7 = 0;
   928  0016AC  9EC0               	bcf	192,7,c	;volatile
   929  0016AE                     
   930                           ; BSR set to: 5
   931                           ;main.c: 89:     LATCbits.LATC5 = 0;
   932  0016AE  9AC0               	bcf	192,5,c	;volatile
   933  0016B0                     
   934                           ; BSR set to: 5
   935                           ;main.c: 90:     LATAbits.LATA5 = 0;
   936  0016B0  9ABE               	bcf	190,5,c	;volatile
   937  0016B2                     
   938                           ; BSR set to: 5
   939                           ;main.c: 91:     LATCbits.LATC3 = 0;
   940  0016B2  96C0               	bcf	192,3,c	;volatile
   941  0016B4                     
   942                           ; BSR set to: 5
   943                           ;main.c: 100:     state_t state = MANUAL;
   944  0016B4  0E00               	movlw	0
   945  0016B6  6F93               	movwf	main@state& (0+255),b
   946  0016B8                     
   947                           ; BSR set to: 5
   948                           ;main.c: 104:     if(DATAEE_ReadByte(3) == 69)
   949  0016B8  0E00               	movlw	0
   950  0016BA  6E02               	movwf	(DATAEE_ReadByte@bAdd+1)^(0+1280),c
   951  0016BC  0E03               	movlw	3
   952  0016BE  6E01               	movwf	DATAEE_ReadByte@bAdd^(0+1280),c
   953  0016C0  ECD0  F01F         	call	_DATAEE_ReadByte	;wreg free
   954  0016C4  0A45               	xorlw	69
   955  0016C6  A4D8               	btfss	status,2,c
   956  0016C8  EF68  F00B         	goto	u2891
   957  0016CC  EF6A  F00B         	goto	u2890
   958  0016D0                     u2891:
   959  0016D0  EF8A  F00B         	goto	l556
   960  0016D4                     u2890:
   961  0016D4                     
   962                           ;main.c: 105:     {;main.c: 106:         redMode1 = DATAEE_ReadByte(11);
   963  0016D4  0E00               	movlw	0
   964  0016D6  6E02               	movwf	(DATAEE_ReadByte@bAdd+1)^(0+1280),c
   965  0016D8  0E0B               	movlw	11
   966  0016DA  6E01               	movwf	DATAEE_ReadByte@bAdd^(0+1280),c
   967  0016DC  ECD0  F01F         	call	_DATAEE_ReadByte	;wreg free
   968  0016E0  0105               	movlb	5	; () banked
   969  0016E2  6F8B               	movwf	main@redMode1& (0+255),b
   970                           
   971                           ;main.c: 107:         greenMode1 = DATAEE_ReadByte(12);
   972  0016E4  0E00               	movlw	0
   973  0016E6  6E02               	movwf	(DATAEE_ReadByte@bAdd+1)^(0+1280),c
   974  0016E8  0E0C               	movlw	12
   975  0016EA  6E01               	movwf	DATAEE_ReadByte@bAdd^(0+1280),c
   976  0016EC  ECD0  F01F         	call	_DATAEE_ReadByte	;wreg free
   977  0016F0  0105               	movlb	5	; () banked
   978  0016F2  6F8C               	movwf	main@greenMode1& (0+255),b
   979                           
   980                           ;main.c: 108:         blueMode1 = DATAEE_ReadByte(15);
   981  0016F4  0E00               	movlw	0
   982  0016F6  6E02               	movwf	(DATAEE_ReadByte@bAdd+1)^(0+1280),c
   983  0016F8  0E0F               	movlw	15
   984  0016FA  6E01               	movwf	DATAEE_ReadByte@bAdd^(0+1280),c
   985  0016FC  ECD0  F01F         	call	_DATAEE_ReadByte	;wreg free
   986  001700  0105               	movlb	5	; () banked
   987  001702  6F8D               	movwf	main@blueMode1& (0+255),b
   988                           
   989                           ;main.c: 109:         whiteMode1 = DATAEE_ReadByte(17);
   990  001704  0E00               	movlw	0
   991  001706  6E02               	movwf	(DATAEE_ReadByte@bAdd+1)^(0+1280),c
   992  001708  0E11               	movlw	17
   993  00170A  6E01               	movwf	DATAEE_ReadByte@bAdd^(0+1280),c
   994  00170C  ECD0  F01F         	call	_DATAEE_ReadByte	;wreg free
   995  001710  0105               	movlb	5	; () banked
   996  001712  6F8E               	movwf	main@whiteMode1& (0+255),b
   997  001714                     l556:
   998                           
   999                           ;main.c: 112:     if(DATAEE_ReadByte(4) == 69)
  1000  001714  0E00               	movlw	0
  1001  001716  6E02               	movwf	(DATAEE_ReadByte@bAdd+1)^(0+1280),c
  1002  001718  0E04               	movlw	4
  1003  00171A  6E01               	movwf	DATAEE_ReadByte@bAdd^(0+1280),c
  1004  00171C  ECD0  F01F         	call	_DATAEE_ReadByte	;wreg free
  1005  001720  0A45               	xorlw	69
  1006  001722  A4D8               	btfss	status,2,c
  1007  001724  EF96  F00B         	goto	u2901
  1008  001728  EF98  F00B         	goto	u2900
  1009  00172C                     u2901:
  1010  00172C  EFB8  F00B         	goto	l557
  1011  001730                     u2900:
  1012  001730                     
  1013                           ;main.c: 113:     {;main.c: 114:         redMode2 = DATAEE_ReadByte(18);
  1014  001730  0E00               	movlw	0
  1015  001732  6E02               	movwf	(DATAEE_ReadByte@bAdd+1)^(0+1280),c
  1016  001734  0E12               	movlw	18
  1017  001736  6E01               	movwf	DATAEE_ReadByte@bAdd^(0+1280),c
  1018  001738  ECD0  F01F         	call	_DATAEE_ReadByte	;wreg free
  1019  00173C  0105               	movlb	5	; () banked
  1020  00173E  6F7B               	movwf	main@redMode2& (0+255),b
  1021                           
  1022                           ;main.c: 115:         greenMode2 = DATAEE_ReadByte(19);
  1023  001740  0E00               	movlw	0
  1024  001742  6E02               	movwf	(DATAEE_ReadByte@bAdd+1)^(0+1280),c
  1025  001744  0E13               	movlw	19
  1026  001746  6E01               	movwf	DATAEE_ReadByte@bAdd^(0+1280),c
  1027  001748  ECD0  F01F         	call	_DATAEE_ReadByte	;wreg free
  1028  00174C  0105               	movlb	5	; () banked
  1029  00174E  6F7C               	movwf	main@greenMode2& (0+255),b
  1030                           
  1031                           ;main.c: 116:         blueMode2 = DATAEE_ReadByte(20);
  1032  001750  0E00               	movlw	0
  1033  001752  6E02               	movwf	(DATAEE_ReadByte@bAdd+1)^(0+1280),c
  1034  001754  0E14               	movlw	20
  1035  001756  6E01               	movwf	DATAEE_ReadByte@bAdd^(0+1280),c
  1036  001758  ECD0  F01F         	call	_DATAEE_ReadByte	;wreg free
  1037  00175C  0105               	movlb	5	; () banked
  1038  00175E  6F7D               	movwf	main@blueMode2& (0+255),b
  1039                           
  1040                           ;main.c: 117:         whiteMode2 = DATAEE_ReadByte(21);
  1041  001760  0E00               	movlw	0
  1042  001762  6E02               	movwf	(DATAEE_ReadByte@bAdd+1)^(0+1280),c
  1043  001764  0E15               	movlw	21
  1044  001766  6E01               	movwf	DATAEE_ReadByte@bAdd^(0+1280),c
  1045  001768  ECD0  F01F         	call	_DATAEE_ReadByte	;wreg free
  1046  00176C  0105               	movlb	5	; () banked
  1047  00176E  6F84               	movwf	main@whiteMode2& (0+255),b
  1048  001770                     l557:
  1049                           
  1050                           ;main.c: 120:     if(DATAEE_ReadByte(6) == 69)
  1051  001770  0E00               	movlw	0
  1052  001772  6E02               	movwf	(DATAEE_ReadByte@bAdd+1)^(0+1280),c
  1053  001774  0E06               	movlw	6
  1054  001776  6E01               	movwf	DATAEE_ReadByte@bAdd^(0+1280),c
  1055  001778  ECD0  F01F         	call	_DATAEE_ReadByte	;wreg free
  1056  00177C  0A45               	xorlw	69
  1057  00177E  A4D8               	btfss	status,2,c
  1058  001780  EFC4  F00B         	goto	u2911
  1059  001784  EFC6  F00B         	goto	u2910
  1060  001788                     u2911:
  1061  001788  EFE6  F00B         	goto	l558
  1062  00178C                     u2910:
  1063  00178C                     
  1064                           ;main.c: 121:     {;main.c: 122:         redMode3 = DATAEE_ReadByte(22);
  1065  00178C  0E00               	movlw	0
  1066  00178E  6E02               	movwf	(DATAEE_ReadByte@bAdd+1)^(0+1280),c
  1067  001790  0E16               	movlw	22
  1068  001792  6E01               	movwf	DATAEE_ReadByte@bAdd^(0+1280),c
  1069  001794  ECD0  F01F         	call	_DATAEE_ReadByte	;wreg free
  1070  001798  0105               	movlb	5	; () banked
  1071  00179A  6F7E               	movwf	main@redMode3& (0+255),b
  1072                           
  1073                           ;main.c: 123:         greenMode3 = DATAEE_ReadByte(24);
  1074  00179C  0E00               	movlw	0
  1075  00179E  6E02               	movwf	(DATAEE_ReadByte@bAdd+1)^(0+1280),c
  1076  0017A0  0E18               	movlw	24
  1077  0017A2  6E01               	movwf	DATAEE_ReadByte@bAdd^(0+1280),c
  1078  0017A4  ECD0  F01F         	call	_DATAEE_ReadByte	;wreg free
  1079  0017A8  0105               	movlb	5	; () banked
  1080  0017AA  6F7F               	movwf	main@greenMode3& (0+255),b
  1081                           
  1082                           ;main.c: 124:         blueMode3 = DATAEE_ReadByte(25);
  1083  0017AC  0E00               	movlw	0
  1084  0017AE  6E02               	movwf	(DATAEE_ReadByte@bAdd+1)^(0+1280),c
  1085  0017B0  0E19               	movlw	25
  1086  0017B2  6E01               	movwf	DATAEE_ReadByte@bAdd^(0+1280),c
  1087  0017B4  ECD0  F01F         	call	_DATAEE_ReadByte	;wreg free
  1088  0017B8  0105               	movlb	5	; () banked
  1089  0017BA  6F80               	movwf	main@blueMode3& (0+255),b
  1090                           
  1091                           ;main.c: 125:         whiteMode3 = DATAEE_ReadByte(27);
  1092  0017BC  0E00               	movlw	0
  1093  0017BE  6E02               	movwf	(DATAEE_ReadByte@bAdd+1)^(0+1280),c
  1094  0017C0  0E1B               	movlw	27
  1095  0017C2  6E01               	movwf	DATAEE_ReadByte@bAdd^(0+1280),c
  1096  0017C4  ECD0  F01F         	call	_DATAEE_ReadByte	;wreg free
  1097  0017C8  0105               	movlb	5	; () banked
  1098  0017CA  6F85               	movwf	main@whiteMode3& (0+255),b
  1099  0017CC                     l558:
  1100                           
  1101                           ;main.c: 128:     if(DATAEE_ReadByte(8) == 69)
  1102  0017CC  0E00               	movlw	0
  1103  0017CE  6E02               	movwf	(DATAEE_ReadByte@bAdd+1)^(0+1280),c
  1104  0017D0  0E08               	movlw	8
  1105  0017D2  6E01               	movwf	DATAEE_ReadByte@bAdd^(0+1280),c
  1106  0017D4  ECD0  F01F         	call	_DATAEE_ReadByte	;wreg free
  1107  0017D8  0A45               	xorlw	69
  1108  0017DA  A4D8               	btfss	status,2,c
  1109  0017DC  EFF2  F00B         	goto	u2921
  1110  0017E0  EFF4  F00B         	goto	u2920
  1111  0017E4                     u2921:
  1112  0017E4  EF14  F00C         	goto	l559
  1113  0017E8                     u2920:
  1114  0017E8                     
  1115                           ;main.c: 129:     {;main.c: 130:         redMode4 = DATAEE_ReadByte(30);
  1116  0017E8  0E00               	movlw	0
  1117  0017EA  6E02               	movwf	(DATAEE_ReadByte@bAdd+1)^(0+1280),c
  1118  0017EC  0E1E               	movlw	30
  1119  0017EE  6E01               	movwf	DATAEE_ReadByte@bAdd^(0+1280),c
  1120  0017F0  ECD0  F01F         	call	_DATAEE_ReadByte	;wreg free
  1121  0017F4  0105               	movlb	5	; () banked
  1122  0017F6  6F81               	movwf	main@redMode4& (0+255),b
  1123                           
  1124                           ;main.c: 131:         greenMode4 = DATAEE_ReadByte(31);
  1125  0017F8  0E00               	movlw	0
  1126  0017FA  6E02               	movwf	(DATAEE_ReadByte@bAdd+1)^(0+1280),c
  1127  0017FC  0E1F               	movlw	31
  1128  0017FE  6E01               	movwf	DATAEE_ReadByte@bAdd^(0+1280),c
  1129  001800  ECD0  F01F         	call	_DATAEE_ReadByte	;wreg free
  1130  001804  0105               	movlb	5	; () banked
  1131  001806  6F82               	movwf	main@greenMode4& (0+255),b
  1132                           
  1133                           ;main.c: 132:         blueMode4 = DATAEE_ReadByte(32);
  1134  001808  0E00               	movlw	0
  1135  00180A  6E02               	movwf	(DATAEE_ReadByte@bAdd+1)^(0+1280),c
  1136  00180C  0E20               	movlw	32
  1137  00180E  6E01               	movwf	DATAEE_ReadByte@bAdd^(0+1280),c
  1138  001810  ECD0  F01F         	call	_DATAEE_ReadByte	;wreg free
  1139  001814  0105               	movlb	5	; () banked
  1140  001816  6F83               	movwf	main@blueMode4& (0+255),b
  1141                           
  1142                           ;main.c: 133:         whiteMode4 = DATAEE_ReadByte(34);
  1143  001818  0E00               	movlw	0
  1144  00181A  6E02               	movwf	(DATAEE_ReadByte@bAdd+1)^(0+1280),c
  1145  00181C  0E22               	movlw	34
  1146  00181E  6E01               	movwf	DATAEE_ReadByte@bAdd^(0+1280),c
  1147  001820  ECD0  F01F         	call	_DATAEE_ReadByte	;wreg free
  1148  001824  0105               	movlb	5	; () banked
  1149  001826  6F86               	movwf	main@whiteMode4& (0+255),b
  1150  001828                     l559:
  1151                           
  1152                           ;main.c: 138:     if(DATAEE_ReadByte(2) == 69)
  1153  001828  0E00               	movlw	0
  1154  00182A  6E02               	movwf	(DATAEE_ReadByte@bAdd+1)^(0+1280),c
  1155  00182C  0E02               	movlw	2
  1156  00182E  6E01               	movwf	DATAEE_ReadByte@bAdd^(0+1280),c
  1157  001830  ECD0  F01F         	call	_DATAEE_ReadByte	;wreg free
  1158  001834  0A45               	xorlw	69
  1159  001836  A4D8               	btfss	status,2,c
  1160  001838  EF20  F00C         	goto	u2931
  1161  00183C  EF22  F00C         	goto	u2930
  1162  001840                     u2931:
  1163  001840  EFD3  F00C         	goto	l3332
  1164  001844                     u2930:
  1165  001844                     
  1166                           ;main.c: 139:     {;main.c: 140:         state = DATAEE_ReadByte(36);
  1167  001844  0E00               	movlw	0
  1168  001846  6E02               	movwf	(DATAEE_ReadByte@bAdd+1)^(0+1280),c
  1169  001848  0E24               	movlw	36
  1170  00184A  6E01               	movwf	DATAEE_ReadByte@bAdd^(0+1280),c
  1171  00184C  ECD0  F01F         	call	_DATAEE_ReadByte	;wreg free
  1172  001850  0105               	movlb	5	; () banked
  1173  001852  6F93               	movwf	main@state& (0+255),b
  1174  001854                     
  1175                           ; BSR set to: 5
  1176                           ;main.c: 142:         if(state == 1 && (DATAEE_ReadByte(3) == 69))
  1177  001854  0593               	decf	main@state& (0+255),w,b
  1178  001856  A4D8               	btfss	status,2,c
  1179  001858  EF30  F00C         	goto	u2941
  1180  00185C  EF32  F00C         	goto	u2940
  1181  001860                     u2941:
  1182  001860  EF47  F00C         	goto	l3292
  1183  001864                     u2940:
  1184  001864                     
  1185                           ; BSR set to: 5
  1186  001864  0E00               	movlw	0
  1187  001866  6E02               	movwf	(DATAEE_ReadByte@bAdd+1)^(0+1280),c
  1188  001868  0E03               	movlw	3
  1189  00186A  6E01               	movwf	DATAEE_ReadByte@bAdd^(0+1280),c
  1190  00186C  ECD0  F01F         	call	_DATAEE_ReadByte	;wreg free
  1191  001870  0A45               	xorlw	69
  1192  001872  A4D8               	btfss	status,2,c
  1193  001874  EF3E  F00C         	goto	u2951
  1194  001878  EF40  F00C         	goto	u2950
  1195  00187C                     u2951:
  1196  00187C  EF47  F00C         	goto	l3292
  1197  001880                     u2950:
  1198  001880                     
  1199                           ;main.c: 143:         {;main.c: 144:             LATCbits.LATC7 = 1;
  1200  001880  8EC0               	bsf	192,7,c	;volatile
  1201  001882                     
  1202                           ;main.c: 145:             _delay((unsigned long)((50)*(64000000/4000000.0)));
  1203  001882  0EA0               	movlw	160
  1204  001884                     u5117:
  1205  001884  D000               	nop2	
  1206  001886  2EE8               	decfsz	wreg,f,c
  1207  001888  D7FD               	bra	u5117
  1208                           
  1209                           ;main.c: 146:         }
  1210  00188A  EF52  F00C         	goto	l3296
  1211  00188E                     l3292:
  1212  00188E  0105               	movlb	5	; () banked
  1213  001890  0593               	decf	main@state& (0+255),w,b
  1214  001892  A4D8               	btfss	status,2,c
  1215  001894  EF4E  F00C         	goto	u2961
  1216  001898  EF50  F00C         	goto	u2960
  1217  00189C                     u2961:
  1218  00189C  EF52  F00C         	goto	l3296
  1219  0018A0                     u2960:
  1220  0018A0                     
  1221                           ; BSR set to: 5
  1222                           ;main.c: 148:         {;main.c: 149:             state = MANUAL;
  1223  0018A0  0E00               	movlw	0
  1224  0018A2  6F93               	movwf	main@state& (0+255),b
  1225  0018A4                     l3296:
  1226                           
  1227                           ;main.c: 152:         if(state == 2 && (DATAEE_ReadByte(4) == 69))
  1228  0018A4  0E02               	movlw	2
  1229  0018A6  0105               	movlb	5	; () banked
  1230  0018A8  1993               	xorwf	main@state& (0+255),w,b
  1231  0018AA  A4D8               	btfss	status,2,c
  1232  0018AC  EF5A  F00C         	goto	u2971
  1233  0018B0  EF5C  F00C         	goto	u2970
  1234  0018B4                     u2971:
  1235  0018B4  EF71  F00C         	goto	l3304
  1236  0018B8                     u2970:
  1237  0018B8                     
  1238                           ; BSR set to: 5
  1239  0018B8  0E00               	movlw	0
  1240  0018BA  6E02               	movwf	(DATAEE_ReadByte@bAdd+1)^(0+1280),c
  1241  0018BC  0E04               	movlw	4
  1242  0018BE  6E01               	movwf	DATAEE_ReadByte@bAdd^(0+1280),c
  1243  0018C0  ECD0  F01F         	call	_DATAEE_ReadByte	;wreg free
  1244  0018C4  0A45               	xorlw	69
  1245  0018C6  A4D8               	btfss	status,2,c
  1246  0018C8  EF68  F00C         	goto	u2981
  1247  0018CC  EF6A  F00C         	goto	u2980
  1248  0018D0                     u2981:
  1249  0018D0  EF71  F00C         	goto	l3304
  1250  0018D4                     u2980:
  1251  0018D4                     
  1252                           ;main.c: 153:         {;main.c: 154:             LATCbits.LATC5 = 1;
  1253  0018D4  8AC0               	bsf	192,5,c	;volatile
  1254  0018D6                     
  1255                           ;main.c: 155:             _delay((unsigned long)((50)*(64000000/4000000.0)));
  1256  0018D6  0EA0               	movlw	160
  1257  0018D8                     u5127:
  1258  0018D8  D000               	nop2	
  1259  0018DA  2EE8               	decfsz	wreg,f,c
  1260  0018DC  D7FD               	bra	u5127
  1261                           
  1262                           ;main.c: 156:         }
  1263  0018DE  EF7D  F00C         	goto	l3308
  1264  0018E2                     l3304:
  1265  0018E2  0E02               	movlw	2
  1266  0018E4  0105               	movlb	5	; () banked
  1267  0018E6  1993               	xorwf	main@state& (0+255),w,b
  1268  0018E8  A4D8               	btfss	status,2,c
  1269  0018EA  EF79  F00C         	goto	u2991
  1270  0018EE  EF7B  F00C         	goto	u2990
  1271  0018F2                     u2991:
  1272  0018F2  EF7D  F00C         	goto	l3308
  1273  0018F6                     u2990:
  1274  0018F6                     
  1275                           ; BSR set to: 5
  1276                           ;main.c: 158:         {;main.c: 159:             state = MANUAL;
  1277  0018F6  0E00               	movlw	0
  1278  0018F8  6F93               	movwf	main@state& (0+255),b
  1279  0018FA                     l3308:
  1280                           
  1281                           ;main.c: 162:         if(state == 3 && (DATAEE_ReadByte(6) == 69))
  1282  0018FA  0E03               	movlw	3
  1283  0018FC  0105               	movlb	5	; () banked
  1284  0018FE  1993               	xorwf	main@state& (0+255),w,b
  1285  001900  A4D8               	btfss	status,2,c
  1286  001902  EF85  F00C         	goto	u3001
  1287  001906  EF87  F00C         	goto	u3000
  1288  00190A                     u3001:
  1289  00190A  EF9C  F00C         	goto	l3316
  1290  00190E                     u3000:
  1291  00190E                     
  1292                           ; BSR set to: 5
  1293  00190E  0E00               	movlw	0
  1294  001910  6E02               	movwf	(DATAEE_ReadByte@bAdd+1)^(0+1280),c
  1295  001912  0E06               	movlw	6
  1296  001914  6E01               	movwf	DATAEE_ReadByte@bAdd^(0+1280),c
  1297  001916  ECD0  F01F         	call	_DATAEE_ReadByte	;wreg free
  1298  00191A  0A45               	xorlw	69
  1299  00191C  A4D8               	btfss	status,2,c
  1300  00191E  EF93  F00C         	goto	u3011
  1301  001922  EF95  F00C         	goto	u3010
  1302  001926                     u3011:
  1303  001926  EF9C  F00C         	goto	l3316
  1304  00192A                     u3010:
  1305  00192A                     
  1306                           ;main.c: 163:         {;main.c: 164:             LATAbits.LATA5 = 1;
  1307  00192A  8ABE               	bsf	190,5,c	;volatile
  1308  00192C                     
  1309                           ;main.c: 165:             _delay((unsigned long)((50)*(64000000/4000000.0)));
  1310  00192C  0EA0               	movlw	160
  1311  00192E                     u5137:
  1312  00192E  D000               	nop2	
  1313  001930  2EE8               	decfsz	wreg,f,c
  1314  001932  D7FD               	bra	u5137
  1315                           
  1316                           ;main.c: 166:         }
  1317  001934  EFA8  F00C         	goto	l3320
  1318  001938                     l3316:
  1319  001938  0E03               	movlw	3
  1320  00193A  0105               	movlb	5	; () banked
  1321  00193C  1993               	xorwf	main@state& (0+255),w,b
  1322  00193E  A4D8               	btfss	status,2,c
  1323  001940  EFA4  F00C         	goto	u3021
  1324  001944  EFA6  F00C         	goto	u3020
  1325  001948                     u3021:
  1326  001948  EFA8  F00C         	goto	l3320
  1327  00194C                     u3020:
  1328  00194C                     
  1329                           ; BSR set to: 5
  1330                           ;main.c: 168:         {;main.c: 169:             state = MANUAL;
  1331  00194C  0E00               	movlw	0
  1332  00194E  6F93               	movwf	main@state& (0+255),b
  1333  001950                     l3320:
  1334                           
  1335                           ;main.c: 172:         if(state == 4 && (DATAEE_ReadByte(8) == 69))
  1336  001950  0E04               	movlw	4
  1337  001952  0105               	movlb	5	; () banked
  1338  001954  1993               	xorwf	main@state& (0+255),w,b
  1339  001956  A4D8               	btfss	status,2,c
  1340  001958  EFB0  F00C         	goto	u3031
  1341  00195C  EFB2  F00C         	goto	u3030
  1342  001960                     u3031:
  1343  001960  EFC7  F00C         	goto	l3328
  1344  001964                     u3030:
  1345  001964                     
  1346                           ; BSR set to: 5
  1347  001964  0E00               	movlw	0
  1348  001966  6E02               	movwf	(DATAEE_ReadByte@bAdd+1)^(0+1280),c
  1349  001968  0E08               	movlw	8
  1350  00196A  6E01               	movwf	DATAEE_ReadByte@bAdd^(0+1280),c
  1351  00196C  ECD0  F01F         	call	_DATAEE_ReadByte	;wreg free
  1352  001970  0A45               	xorlw	69
  1353  001972  A4D8               	btfss	status,2,c
  1354  001974  EFBE  F00C         	goto	u3041
  1355  001978  EFC0  F00C         	goto	u3040
  1356  00197C                     u3041:
  1357  00197C  EFC7  F00C         	goto	l3328
  1358  001980                     u3040:
  1359  001980                     
  1360                           ;main.c: 173:         {;main.c: 174:             LATCbits.LATC3 = 1;
  1361  001980  86C0               	bsf	192,3,c	;volatile
  1362  001982                     
  1363                           ;main.c: 175:             _delay((unsigned long)((50)*(64000000/4000000.0)));
  1364  001982  0EA0               	movlw	160
  1365  001984                     u5147:
  1366  001984  D000               	nop2	
  1367  001986  2EE8               	decfsz	wreg,f,c
  1368  001988  D7FD               	bra	u5147
  1369                           
  1370                           ;main.c: 176:         }
  1371  00198A  EFD3  F00C         	goto	l3332
  1372  00198E                     l3328:
  1373  00198E  0E04               	movlw	4
  1374  001990  0105               	movlb	5	; () banked
  1375  001992  1993               	xorwf	main@state& (0+255),w,b
  1376  001994  A4D8               	btfss	status,2,c
  1377  001996  EFCF  F00C         	goto	u3051
  1378  00199A  EFD1  F00C         	goto	u3050
  1379  00199E                     u3051:
  1380  00199E  EFD3  F00C         	goto	l3332
  1381  0019A2                     u3050:
  1382  0019A2                     
  1383                           ; BSR set to: 5
  1384                           ;main.c: 178:         {;main.c: 179:             state = MANUAL;
  1385  0019A2  0E00               	movlw	0
  1386  0019A4  6F93               	movwf	main@state& (0+255),b
  1387  0019A6                     l3332:
  1388                           
  1389                           ;main.c: 185:     LOOPDELAY_Init(20);
  1390  0019A6  0E00               	movlw	0
  1391  0019A8  6E02               	movwf	(LOOPDELAY_Init@newLoopTimeMS+1)^(0+1280),c
  1392  0019AA  0E14               	movlw	20
  1393  0019AC  6E01               	movwf	LOOPDELAY_Init@newLoopTimeMS^(0+1280),c
  1394  0019AE  ECE2  F01F         	call	_LOOPDELAY_Init	;wreg free
  1395  0019B2                     l3334:
  1396                           
  1397                           ;main.c: 188:     {;main.c: 189:         taster1Flag = PORTCbits.RC6;
  1398  0019B2  0E00               	movlw	0
  1399  0019B4  BCD0               	btfsc	208,6,c	;volatile
  1400  0019B6  0E01               	movlw	1
  1401  0019B8  0105               	movlb	5	; () banked
  1402  0019BA  6F77               	movwf	main@taster1Flag& (0+255),b
  1403  0019BC                     
  1404                           ; BSR set to: 5
  1405                           ;main.c: 190:         taster2Flag = PORTAbits.RA4;
  1406  0019BC  0E00               	movlw	0
  1407  0019BE  B8CE               	btfsc	206,4,c	;volatile
  1408  0019C0  0E01               	movlw	1
  1409  0019C2  6F78               	movwf	main@taster2Flag& (0+255),b
  1410  0019C4                     
  1411                           ; BSR set to: 5
  1412                           ;main.c: 191:         taster3Flag = PORTCbits.RC4;
  1413  0019C4  0E00               	movlw	0
  1414  0019C6  B8D0               	btfsc	208,4,c	;volatile
  1415  0019C8  0E01               	movlw	1
  1416  0019CA  6F7A               	movwf	main@taster3Flag& (0+255),b
  1417  0019CC                     
  1418                           ; BSR set to: 5
  1419                           ;main.c: 192:         taster4Flag = PORTBbits.RB7;
  1420  0019CC  0E00               	movlw	0
  1421  0019CE  BECF               	btfsc	207,7,c	;volatile
  1422  0019D0  0E01               	movlw	1
  1423  0019D2  6F79               	movwf	main@taster4Flag& (0+255),b
  1424  0019D4                     
  1425                           ; BSR set to: 5
  1426                           ;main.c: 194:         ADCC_DischargeSampleCapacitor();
  1427  0019D4  ECE7  F01F         	call	_ADCC_DischargeSampleCapacitor	;wreg free
  1428  0019D8                     
  1429                           ;main.c: 195:         red = map(ADCC_GetSingleConversion(POT1),0,4095,0,255);
  1430  0019D8  0E02               	movlw	2
  1431  0019DA  ECE6  F01E         	call	_ADCC_GetSingleConversion
  1432  0019DE  C501  F51B         	movff	?_ADCC_GetSingleConversion,map@x
  1433  0019E2  C502  F51C         	movff	?_ADCC_GetSingleConversion+1,map@x+1
  1434  0019E6  6A1D               	clrf	(map@x+2)^(0+1280),c
  1435  0019E8  6A1E               	clrf	(map@x+3)^(0+1280),c
  1436  0019EA  0E00               	movlw	0
  1437  0019EC  6E1F               	movwf	map@in_min^(0+1280),c
  1438  0019EE  0E00               	movlw	0
  1439  0019F0  6E20               	movwf	(map@in_min+1)^(0+1280),c
  1440  0019F2  0E00               	movlw	0
  1441  0019F4  6E21               	movwf	(map@in_min+2)^(0+1280),c
  1442  0019F6  0E00               	movlw	0
  1443  0019F8  6E22               	movwf	(map@in_min+3)^(0+1280),c
  1444  0019FA  0EFF               	movlw	255
  1445  0019FC  6E23               	movwf	map@in_max^(0+1280),c
  1446  0019FE  0E0F               	movlw	15
  1447  001A00  6E24               	movwf	(map@in_max+1)^(0+1280),c
  1448  001A02  0E00               	movlw	0
  1449  001A04  6E25               	movwf	(map@in_max+2)^(0+1280),c
  1450  001A06  0E00               	movlw	0
  1451  001A08  6E26               	movwf	(map@in_max+3)^(0+1280),c
  1452  001A0A  0E00               	movlw	0
  1453  001A0C  6E27               	movwf	map@out_min^(0+1280),c
  1454  001A0E  0E00               	movlw	0
  1455  001A10  6E28               	movwf	(map@out_min+1)^(0+1280),c
  1456  001A12  0E00               	movlw	0
  1457  001A14  6E29               	movwf	(map@out_min+2)^(0+1280),c
  1458  001A16  0E00               	movlw	0
  1459  001A18  6E2A               	movwf	(map@out_min+3)^(0+1280),c
  1460  001A1A  0EFF               	movlw	255
  1461  001A1C  6E2B               	movwf	map@out_max^(0+1280),c
  1462  001A1E  0E00               	movlw	0
  1463  001A20  6E2C               	movwf	(map@out_max+1)^(0+1280),c
  1464  001A22  0E00               	movlw	0
  1465  001A24  6E2D               	movwf	(map@out_max+2)^(0+1280),c
  1466  001A26  0E00               	movlw	0
  1467  001A28  6E2E               	movwf	(map@out_max+3)^(0+1280),c
  1468  001A2A  ECBA  F01D         	call	_map	;wreg free
  1469  001A2E  501B               	movf	?_map^(0+1280),w,c
  1470  001A30  0105               	movlb	5	; () banked
  1471  001A32  6F8F               	movwf	main@red& (0+255),b
  1472  001A34                     
  1473                           ; BSR set to: 5
  1474                           ;main.c: 196:         ADCC_DischargeSampleCapacitor();
  1475  001A34  ECE7  F01F         	call	_ADCC_DischargeSampleCapacitor	;wreg free
  1476  001A38                     
  1477                           ;main.c: 197:         green = map(ADCC_GetSingleConversion(POT2),0,4095,0,255);
  1478  001A38  0E10               	movlw	16
  1479  001A3A  ECE6  F01E         	call	_ADCC_GetSingleConversion
  1480  001A3E  C501  F51B         	movff	?_ADCC_GetSingleConversion,map@x
  1481  001A42  C502  F51C         	movff	?_ADCC_GetSingleConversion+1,map@x+1
  1482  001A46  6A1D               	clrf	(map@x+2)^(0+1280),c
  1483  001A48  6A1E               	clrf	(map@x+3)^(0+1280),c
  1484  001A4A  0E00               	movlw	0
  1485  001A4C  6E1F               	movwf	map@in_min^(0+1280),c
  1486  001A4E  0E00               	movlw	0
  1487  001A50  6E20               	movwf	(map@in_min+1)^(0+1280),c
  1488  001A52  0E00               	movlw	0
  1489  001A54  6E21               	movwf	(map@in_min+2)^(0+1280),c
  1490  001A56  0E00               	movlw	0
  1491  001A58  6E22               	movwf	(map@in_min+3)^(0+1280),c
  1492  001A5A  0EFF               	movlw	255
  1493  001A5C  6E23               	movwf	map@in_max^(0+1280),c
  1494  001A5E  0E0F               	movlw	15
  1495  001A60  6E24               	movwf	(map@in_max+1)^(0+1280),c
  1496  001A62  0E00               	movlw	0
  1497  001A64  6E25               	movwf	(map@in_max+2)^(0+1280),c
  1498  001A66  0E00               	movlw	0
  1499  001A68  6E26               	movwf	(map@in_max+3)^(0+1280),c
  1500  001A6A  0E00               	movlw	0
  1501  001A6C  6E27               	movwf	map@out_min^(0+1280),c
  1502  001A6E  0E00               	movlw	0
  1503  001A70  6E28               	movwf	(map@out_min+1)^(0+1280),c
  1504  001A72  0E00               	movlw	0
  1505  001A74  6E29               	movwf	(map@out_min+2)^(0+1280),c
  1506  001A76  0E00               	movlw	0
  1507  001A78  6E2A               	movwf	(map@out_min+3)^(0+1280),c
  1508  001A7A  0EFF               	movlw	255
  1509  001A7C  6E2B               	movwf	map@out_max^(0+1280),c
  1510  001A7E  0E00               	movlw	0
  1511  001A80  6E2C               	movwf	(map@out_max+1)^(0+1280),c
  1512  001A82  0E00               	movlw	0
  1513  001A84  6E2D               	movwf	(map@out_max+2)^(0+1280),c
  1514  001A86  0E00               	movlw	0
  1515  001A88  6E2E               	movwf	(map@out_max+3)^(0+1280),c
  1516  001A8A  ECBA  F01D         	call	_map	;wreg free
  1517  001A8E  501B               	movf	?_map^(0+1280),w,c
  1518  001A90  0105               	movlb	5	; () banked
  1519  001A92  6F90               	movwf	main@green& (0+255),b
  1520  001A94                     
  1521                           ; BSR set to: 5
  1522                           ;main.c: 198:         ADCC_DischargeSampleCapacitor();
  1523  001A94  ECE7  F01F         	call	_ADCC_DischargeSampleCapacitor	;wreg free
  1524  001A98                     
  1525                           ;main.c: 199:         blue = map(ADCC_GetSingleConversion(POT3),0,4095,0,255);
  1526  001A98  0E11               	movlw	17
  1527  001A9A  ECE6  F01E         	call	_ADCC_GetSingleConversion
  1528  001A9E  C501  F51B         	movff	?_ADCC_GetSingleConversion,map@x
  1529  001AA2  C502  F51C         	movff	?_ADCC_GetSingleConversion+1,map@x+1
  1530  001AA6  6A1D               	clrf	(map@x+2)^(0+1280),c
  1531  001AA8  6A1E               	clrf	(map@x+3)^(0+1280),c
  1532  001AAA  0E00               	movlw	0
  1533  001AAC  6E1F               	movwf	map@in_min^(0+1280),c
  1534  001AAE  0E00               	movlw	0
  1535  001AB0  6E20               	movwf	(map@in_min+1)^(0+1280),c
  1536  001AB2  0E00               	movlw	0
  1537  001AB4  6E21               	movwf	(map@in_min+2)^(0+1280),c
  1538  001AB6  0E00               	movlw	0
  1539  001AB8  6E22               	movwf	(map@in_min+3)^(0+1280),c
  1540  001ABA  0EFF               	movlw	255
  1541  001ABC  6E23               	movwf	map@in_max^(0+1280),c
  1542  001ABE  0E0F               	movlw	15
  1543  001AC0  6E24               	movwf	(map@in_max+1)^(0+1280),c
  1544  001AC2  0E00               	movlw	0
  1545  001AC4  6E25               	movwf	(map@in_max+2)^(0+1280),c
  1546  001AC6  0E00               	movlw	0
  1547  001AC8  6E26               	movwf	(map@in_max+3)^(0+1280),c
  1548  001ACA  0E00               	movlw	0
  1549  001ACC  6E27               	movwf	map@out_min^(0+1280),c
  1550  001ACE  0E00               	movlw	0
  1551  001AD0  6E28               	movwf	(map@out_min+1)^(0+1280),c
  1552  001AD2  0E00               	movlw	0
  1553  001AD4  6E29               	movwf	(map@out_min+2)^(0+1280),c
  1554  001AD6  0E00               	movlw	0
  1555  001AD8  6E2A               	movwf	(map@out_min+3)^(0+1280),c
  1556  001ADA  0EFF               	movlw	255
  1557  001ADC  6E2B               	movwf	map@out_max^(0+1280),c
  1558  001ADE  0E00               	movlw	0
  1559  001AE0  6E2C               	movwf	(map@out_max+1)^(0+1280),c
  1560  001AE2  0E00               	movlw	0
  1561  001AE4  6E2D               	movwf	(map@out_max+2)^(0+1280),c
  1562  001AE6  0E00               	movlw	0
  1563  001AE8  6E2E               	movwf	(map@out_max+3)^(0+1280),c
  1564  001AEA  ECBA  F01D         	call	_map	;wreg free
  1565  001AEE  501B               	movf	?_map^(0+1280),w,c
  1566  001AF0  0105               	movlb	5	; () banked
  1567  001AF2  6F91               	movwf	main@blue& (0+255),b
  1568  001AF4                     
  1569                           ; BSR set to: 5
  1570                           ;main.c: 200:         ADCC_DischargeSampleCapacitor();
  1571  001AF4  ECE7  F01F         	call	_ADCC_DischargeSampleCapacitor	;wreg free
  1572  001AF8                     
  1573                           ;main.c: 201:         white = map(ADCC_GetSingleConversion(POT4),0,4095,0,255);
  1574  001AF8  0E12               	movlw	18
  1575  001AFA  ECE6  F01E         	call	_ADCC_GetSingleConversion
  1576  001AFE  C501  F51B         	movff	?_ADCC_GetSingleConversion,map@x
  1577  001B02  C502  F51C         	movff	?_ADCC_GetSingleConversion+1,map@x+1
  1578  001B06  6A1D               	clrf	(map@x+2)^(0+1280),c
  1579  001B08  6A1E               	clrf	(map@x+3)^(0+1280),c
  1580  001B0A  0E00               	movlw	0
  1581  001B0C  6E1F               	movwf	map@in_min^(0+1280),c
  1582  001B0E  0E00               	movlw	0
  1583  001B10  6E20               	movwf	(map@in_min+1)^(0+1280),c
  1584  001B12  0E00               	movlw	0
  1585  001B14  6E21               	movwf	(map@in_min+2)^(0+1280),c
  1586  001B16  0E00               	movlw	0
  1587  001B18  6E22               	movwf	(map@in_min+3)^(0+1280),c
  1588  001B1A  0EFF               	movlw	255
  1589  001B1C  6E23               	movwf	map@in_max^(0+1280),c
  1590  001B1E  0E0F               	movlw	15
  1591  001B20  6E24               	movwf	(map@in_max+1)^(0+1280),c
  1592  001B22  0E00               	movlw	0
  1593  001B24  6E25               	movwf	(map@in_max+2)^(0+1280),c
  1594  001B26  0E00               	movlw	0
  1595  001B28  6E26               	movwf	(map@in_max+3)^(0+1280),c
  1596  001B2A  0E00               	movlw	0
  1597  001B2C  6E27               	movwf	map@out_min^(0+1280),c
  1598  001B2E  0E00               	movlw	0
  1599  001B30  6E28               	movwf	(map@out_min+1)^(0+1280),c
  1600  001B32  0E00               	movlw	0
  1601  001B34  6E29               	movwf	(map@out_min+2)^(0+1280),c
  1602  001B36  0E00               	movlw	0
  1603  001B38  6E2A               	movwf	(map@out_min+3)^(0+1280),c
  1604  001B3A  0EFF               	movlw	255
  1605  001B3C  6E2B               	movwf	map@out_max^(0+1280),c
  1606  001B3E  0E00               	movlw	0
  1607  001B40  6E2C               	movwf	(map@out_max+1)^(0+1280),c
  1608  001B42  0E00               	movlw	0
  1609  001B44  6E2D               	movwf	(map@out_max+2)^(0+1280),c
  1610  001B46  0E00               	movlw	0
  1611  001B48  6E2E               	movwf	(map@out_max+3)^(0+1280),c
  1612  001B4A  ECBA  F01D         	call	_map	;wreg free
  1613  001B4E  501B               	movf	?_map^(0+1280),w,c
  1614  001B50  0105               	movlb	5	; () banked
  1615  001B52  6F92               	movwf	main@white& (0+255),b
  1616  001B54                     
  1617                           ; BSR set to: 5
  1618                           ;main.c: 203:         LOOPDELAY_Wait();
  1619  001B54  EC4D  F01F         	call	_LOOPDELAY_Wait	;wreg free
  1620                           
  1621                           ;main.c: 205:         switch(state)
  1622  001B58  EFCC  F01B         	goto	l4156
  1623  001B5C                     l3360:
  1624                           
  1625                           ; BSR set to: 5
  1626                           ;main.c: 209:                 LED_WriteFull(red, green, blue, white, 300);
  1627  001B5C  C590  F507         	movff	main@green,LED_WriteFull@green
  1628  001B60  C591  F508         	movff	main@blue,LED_WriteFull@blue
  1629  001B64  C592  F509         	movff	main@white,LED_WriteFull@white
  1630  001B68  0E2C               	movlw	44
  1631  001B6A  6E0A               	movwf	LED_WriteFull@ledcount^(0+1280),c
  1632  001B6C  0E01               	movlw	1
  1633  001B6E  6E0B               	movwf	(LED_WriteFull@ledcount+1)^(0+1280),c
  1634  001B70  0E00               	movlw	0
  1635  001B72  6E0C               	movwf	(LED_WriteFull@ledcount+2)^(0+1280),c
  1636  001B74  518F               	movf	main@red& (0+255),w,b
  1637  001B76  EC6D  F01D         	call	_LED_WriteFull
  1638  001B7A                     
  1639                           ;main.c: 211:                 _delay((unsigned long)((50)*(64000000/4000000.0)));
  1640  001B7A  0EA0               	movlw	160
  1641  001B7C                     u5157:
  1642  001B7C  D000               	nop2	
  1643  001B7E  2EE8               	decfsz	wreg,f,c
  1644  001B80  D7FD               	bra	u5157
  1645  001B82                     
  1646                           ;main.c: 215:                 if(!PORTCbits.RC6 && taster1Flag && !led1Blink && !led2Bli
      +                          nk && !led3Blink && !led4Blink)
  1647  001B82  BCD0               	btfsc	208,6,c	;volatile
  1648  001B84  EFC6  F00D         	goto	u3061
  1649  001B88  EFC8  F00D         	goto	u3060
  1650  001B8C                     u3061:
  1651  001B8C  EFF3  F00D         	goto	l3378
  1652  001B90                     u3060:
  1653  001B90  0105               	movlb	5	; () banked
  1654  001B92  5177               	movf	main@taster1Flag& (0+255),w,b
  1655  001B94  B4D8               	btfsc	status,2,c
  1656  001B96  EFCF  F00D         	goto	u3071
  1657  001B9A  EFD1  F00D         	goto	u3070
  1658  001B9E                     u3071:
  1659  001B9E  EFF3  F00D         	goto	l3378
  1660  001BA2                     u3070:
  1661  001BA2                     
  1662                           ; BSR set to: 5
  1663  001BA2  5187               	movf	main@led1Blink& (0+255),w,b
  1664  001BA4  A4D8               	btfss	status,2,c
  1665  001BA6  EFD7  F00D         	goto	u3081
  1666  001BAA  EFD9  F00D         	goto	u3080
  1667  001BAE                     u3081:
  1668  001BAE  EFF3  F00D         	goto	l3378
  1669  001BB2                     u3080:
  1670  001BB2                     
  1671                           ; BSR set to: 5
  1672  001BB2  5188               	movf	main@led2Blink& (0+255),w,b
  1673  001BB4  A4D8               	btfss	status,2,c
  1674  001BB6  EFDF  F00D         	goto	u3091
  1675  001BBA  EFE1  F00D         	goto	u3090
  1676  001BBE                     u3091:
  1677  001BBE  EFF3  F00D         	goto	l3378
  1678  001BC2                     u3090:
  1679  001BC2                     
  1680                           ; BSR set to: 5
  1681  001BC2  5189               	movf	main@led3Blink& (0+255),w,b
  1682  001BC4  A4D8               	btfss	status,2,c
  1683  001BC6  EFE7  F00D         	goto	u3101
  1684  001BCA  EFE9  F00D         	goto	u3100
  1685  001BCE                     u3101:
  1686  001BCE  EFF3  F00D         	goto	l3378
  1687  001BD2                     u3100:
  1688  001BD2                     
  1689                           ; BSR set to: 5
  1690  001BD2  518A               	movf	main@led4Blink& (0+255),w,b
  1691  001BD4  A4D8               	btfss	status,2,c
  1692  001BD6  EFEF  F00D         	goto	u3111
  1693  001BDA  EFF1  F00D         	goto	u3110
  1694  001BDE                     u3111:
  1695  001BDE  EFF3  F00D         	goto	l3378
  1696  001BE2                     u3110:
  1697  001BE2                     
  1698                           ; BSR set to: 5
  1699                           ;main.c: 216:                 {;main.c: 217:                     state = T1Dummy;
  1700  001BE2  0E05               	movlw	5
  1701  001BE4  6F93               	movwf	main@state& (0+255),b
  1702  001BE6                     l3378:
  1703                           
  1704                           ;main.c: 220:                 if(!PORTAbits.RA4 && taster2Flag && !led1Blink && !led2Bli
      +                          nk && !led3Blink && !led4Blink)
  1705  001BE6  B8CE               	btfsc	206,4,c	;volatile
  1706  001BE8  EFF8  F00D         	goto	u3121
  1707  001BEC  EFFA  F00D         	goto	u3120
  1708  001BF0                     u3121:
  1709  001BF0  EF25  F00E         	goto	l3392
  1710  001BF4                     u3120:
  1711  001BF4  0105               	movlb	5	; () banked
  1712  001BF6  5178               	movf	main@taster2Flag& (0+255),w,b
  1713  001BF8  B4D8               	btfsc	status,2,c
  1714  001BFA  EF01  F00E         	goto	u3131
  1715  001BFE  EF03  F00E         	goto	u3130
  1716  001C02                     u3131:
  1717  001C02  EF25  F00E         	goto	l3392
  1718  001C06                     u3130:
  1719  001C06                     
  1720                           ; BSR set to: 5
  1721  001C06  5187               	movf	main@led1Blink& (0+255),w,b
  1722  001C08  A4D8               	btfss	status,2,c
  1723  001C0A  EF09  F00E         	goto	u3141
  1724  001C0E  EF0B  F00E         	goto	u3140
  1725  001C12                     u3141:
  1726  001C12  EF25  F00E         	goto	l3392
  1727  001C16                     u3140:
  1728  001C16                     
  1729                           ; BSR set to: 5
  1730  001C16  5188               	movf	main@led2Blink& (0+255),w,b
  1731  001C18  A4D8               	btfss	status,2,c
  1732  001C1A  EF11  F00E         	goto	u3151
  1733  001C1E  EF13  F00E         	goto	u3150
  1734  001C22                     u3151:
  1735  001C22  EF25  F00E         	goto	l3392
  1736  001C26                     u3150:
  1737  001C26                     
  1738                           ; BSR set to: 5
  1739  001C26  5189               	movf	main@led3Blink& (0+255),w,b
  1740  001C28  A4D8               	btfss	status,2,c
  1741  001C2A  EF19  F00E         	goto	u3161
  1742  001C2E  EF1B  F00E         	goto	u3160
  1743  001C32                     u3161:
  1744  001C32  EF25  F00E         	goto	l3392
  1745  001C36                     u3160:
  1746  001C36                     
  1747                           ; BSR set to: 5
  1748  001C36  518A               	movf	main@led4Blink& (0+255),w,b
  1749  001C38  A4D8               	btfss	status,2,c
  1750  001C3A  EF21  F00E         	goto	u3171
  1751  001C3E  EF23  F00E         	goto	u3170
  1752  001C42                     u3171:
  1753  001C42  EF25  F00E         	goto	l3392
  1754  001C46                     u3170:
  1755  001C46                     
  1756                           ; BSR set to: 5
  1757                           ;main.c: 221:                 {;main.c: 222:                     state = T2Dummy;
  1758  001C46  0E06               	movlw	6
  1759  001C48  6F93               	movwf	main@state& (0+255),b
  1760  001C4A                     l3392:
  1761                           
  1762                           ;main.c: 225:                 if(!PORTCbits.RC4 && taster3Flag && !led1Blink && !led2Bli
      +                          nk && !led3Blink && !led4Blink)
  1763  001C4A  B8D0               	btfsc	208,4,c	;volatile
  1764  001C4C  EF2A  F00E         	goto	u3181
  1765  001C50  EF2C  F00E         	goto	u3180
  1766  001C54                     u3181:
  1767  001C54  EF57  F00E         	goto	l3406
  1768  001C58                     u3180:
  1769  001C58  0105               	movlb	5	; () banked
  1770  001C5A  517A               	movf	main@taster3Flag& (0+255),w,b
  1771  001C5C  B4D8               	btfsc	status,2,c
  1772  001C5E  EF33  F00E         	goto	u3191
  1773  001C62  EF35  F00E         	goto	u3190
  1774  001C66                     u3191:
  1775  001C66  EF57  F00E         	goto	l3406
  1776  001C6A                     u3190:
  1777  001C6A                     
  1778                           ; BSR set to: 5
  1779  001C6A  5187               	movf	main@led1Blink& (0+255),w,b
  1780  001C6C  A4D8               	btfss	status,2,c
  1781  001C6E  EF3B  F00E         	goto	u3201
  1782  001C72  EF3D  F00E         	goto	u3200
  1783  001C76                     u3201:
  1784  001C76  EF57  F00E         	goto	l3406
  1785  001C7A                     u3200:
  1786  001C7A                     
  1787                           ; BSR set to: 5
  1788  001C7A  5188               	movf	main@led2Blink& (0+255),w,b
  1789  001C7C  A4D8               	btfss	status,2,c
  1790  001C7E  EF43  F00E         	goto	u3211
  1791  001C82  EF45  F00E         	goto	u3210
  1792  001C86                     u3211:
  1793  001C86  EF57  F00E         	goto	l3406
  1794  001C8A                     u3210:
  1795  001C8A                     
  1796                           ; BSR set to: 5
  1797  001C8A  5189               	movf	main@led3Blink& (0+255),w,b
  1798  001C8C  A4D8               	btfss	status,2,c
  1799  001C8E  EF4B  F00E         	goto	u3221
  1800  001C92  EF4D  F00E         	goto	u3220
  1801  001C96                     u3221:
  1802  001C96  EF57  F00E         	goto	l3406
  1803  001C9A                     u3220:
  1804  001C9A                     
  1805                           ; BSR set to: 5
  1806  001C9A  518A               	movf	main@led4Blink& (0+255),w,b
  1807  001C9C  A4D8               	btfss	status,2,c
  1808  001C9E  EF53  F00E         	goto	u3231
  1809  001CA2  EF55  F00E         	goto	u3230
  1810  001CA6                     u3231:
  1811  001CA6  EF57  F00E         	goto	l3406
  1812  001CAA                     u3230:
  1813  001CAA                     
  1814                           ; BSR set to: 5
  1815                           ;main.c: 226:                 {;main.c: 227:                     state = T3Dummy;
  1816  001CAA  0E07               	movlw	7
  1817  001CAC  6F93               	movwf	main@state& (0+255),b
  1818  001CAE                     l3406:
  1819                           
  1820                           ;main.c: 229:                 if(!PORTBbits.RB7 && taster4Flag && !led1Blink && !led2Bli
      +                          nk && !led3Blink && !led4Blink)
  1821  001CAE  BECF               	btfsc	207,7,c	;volatile
  1822  001CB0  EF5C  F00E         	goto	u3241
  1823  001CB4  EF5E  F00E         	goto	u3240
  1824  001CB8                     u3241:
  1825  001CB8  EF89  F00E         	goto	l579
  1826  001CBC                     u3240:
  1827  001CBC  0105               	movlb	5	; () banked
  1828  001CBE  5179               	movf	main@taster4Flag& (0+255),w,b
  1829  001CC0  B4D8               	btfsc	status,2,c
  1830  001CC2  EF65  F00E         	goto	u3251
  1831  001CC6  EF67  F00E         	goto	u3250
  1832  001CCA                     u3251:
  1833  001CCA  EF89  F00E         	goto	l579
  1834  001CCE                     u3250:
  1835  001CCE                     
  1836                           ; BSR set to: 5
  1837  001CCE  5187               	movf	main@led1Blink& (0+255),w,b
  1838  001CD0  A4D8               	btfss	status,2,c
  1839  001CD2  EF6D  F00E         	goto	u3261
  1840  001CD6  EF6F  F00E         	goto	u3260
  1841  001CDA                     u3261:
  1842  001CDA  EF89  F00E         	goto	l579
  1843  001CDE                     u3260:
  1844  001CDE                     
  1845                           ; BSR set to: 5
  1846  001CDE  5188               	movf	main@led2Blink& (0+255),w,b
  1847  001CE0  A4D8               	btfss	status,2,c
  1848  001CE2  EF75  F00E         	goto	u3271
  1849  001CE6  EF77  F00E         	goto	u3270
  1850  001CEA                     u3271:
  1851  001CEA  EF89  F00E         	goto	l579
  1852  001CEE                     u3270:
  1853  001CEE                     
  1854                           ; BSR set to: 5
  1855  001CEE  5189               	movf	main@led3Blink& (0+255),w,b
  1856  001CF0  A4D8               	btfss	status,2,c
  1857  001CF2  EF7D  F00E         	goto	u3281
  1858  001CF6  EF7F  F00E         	goto	u3280
  1859  001CFA                     u3281:
  1860  001CFA  EF89  F00E         	goto	l579
  1861  001CFE                     u3280:
  1862  001CFE                     
  1863                           ; BSR set to: 5
  1864  001CFE  518A               	movf	main@led4Blink& (0+255),w,b
  1865  001D00  A4D8               	btfss	status,2,c
  1866  001D02  EF85  F00E         	goto	u3291
  1867  001D06  EF87  F00E         	goto	u3290
  1868  001D0A                     u3291:
  1869  001D0A  EF89  F00E         	goto	l579
  1870  001D0E                     u3290:
  1871  001D0E                     
  1872                           ; BSR set to: 5
  1873                           ;main.c: 230:                 {;main.c: 231:                     state = T4Dummy ;
  1874  001D0E  0E08               	movlw	8
  1875  001D10  6F93               	movwf	main@state& (0+255),b
  1876  001D12                     l579:
  1877                           
  1878                           ;main.c: 235:                 if((led1Blink || led2Blink || led3Blink || led4Blink) && (
      +                          ++timeout10s == 500))
  1879  001D12  0105               	movlb	5	; () banked
  1880  001D14  5187               	movf	main@led1Blink& (0+255),w,b
  1881  001D16  A4D8               	btfss	status,2,c
  1882  001D18  EF90  F00E         	goto	u3301
  1883  001D1C  EF92  F00E         	goto	u3300
  1884  001D20                     u3301:
  1885  001D20  EFAA  F00E         	goto	l3426
  1886  001D24                     u3300:
  1887  001D24                     
  1888                           ; BSR set to: 5
  1889  001D24  5188               	movf	main@led2Blink& (0+255),w,b
  1890  001D26  A4D8               	btfss	status,2,c
  1891  001D28  EF98  F00E         	goto	u3311
  1892  001D2C  EF9A  F00E         	goto	u3310
  1893  001D30                     u3311:
  1894  001D30  EFAA  F00E         	goto	l3426
  1895  001D34                     u3310:
  1896  001D34                     
  1897                           ; BSR set to: 5
  1898  001D34  5189               	movf	main@led3Blink& (0+255),w,b
  1899  001D36  A4D8               	btfss	status,2,c
  1900  001D38  EFA0  F00E         	goto	u3321
  1901  001D3C  EFA2  F00E         	goto	u3320
  1902  001D40                     u3321:
  1903  001D40  EFAA  F00E         	goto	l3426
  1904  001D44                     u3320:
  1905  001D44                     
  1906                           ; BSR set to: 5
  1907  001D44  518A               	movf	main@led4Blink& (0+255),w,b
  1908  001D46  B4D8               	btfsc	status,2,c
  1909  001D48  EFA8  F00E         	goto	u3331
  1910  001D4C  EFAA  F00E         	goto	u3330
  1911  001D50                     u3331:
  1912  001D50  EFC3  F00E         	goto	l580
  1913  001D54                     u3330:
  1914  001D54                     l3426:
  1915                           
  1916                           ; BSR set to: 5
  1917  001D54  4B63               	infsnz	main@timeout10s& (0+255),f,b
  1918  001D56  2B64               	incf	(main@timeout10s+1)& (0+255),f,b
  1919  001D58  0EF4               	movlw	244
  1920  001D5A  1963               	xorwf	main@timeout10s& (0+255),w,b
  1921  001D5C  E106               	bnz	u3341
  1922  001D5E  0564               	decf	(main@timeout10s+1)& (0+255),w,b
  1923  001D60  A4D8               	btfss	status,2,c
  1924  001D62  EFB5  F00E         	goto	u3341
  1925  001D66  EFB7  F00E         	goto	u3340
  1926  001D6A                     u3341:
  1927  001D6A  EFC3  F00E         	goto	l580
  1928  001D6E                     u3340:
  1929  001D6E                     
  1930                           ; BSR set to: 5
  1931                           ;main.c: 236:                 {;main.c: 237:                     timeout10s = 0;
  1932  001D6E  0E00               	movlw	0
  1933  001D70  6F64               	movwf	(main@timeout10s+1)& (0+255),b
  1934  001D72  0E00               	movlw	0
  1935  001D74  6F63               	movwf	main@timeout10s& (0+255),b
  1936                           
  1937                           ;main.c: 239:                     led1Blink = 0;
  1938  001D76  0E00               	movlw	0
  1939  001D78  6F87               	movwf	main@led1Blink& (0+255),b
  1940                           
  1941                           ;main.c: 240:                     led2Blink = 0;
  1942  001D7A  0E00               	movlw	0
  1943  001D7C  6F88               	movwf	main@led2Blink& (0+255),b
  1944                           
  1945                           ;main.c: 241:                     led3Blink = 0;
  1946  001D7E  0E00               	movlw	0
  1947  001D80  6F89               	movwf	main@led3Blink& (0+255),b
  1948                           
  1949                           ;main.c: 242:                     led4Blink = 0;
  1950  001D82  0E00               	movlw	0
  1951  001D84  6F8A               	movwf	main@led4Blink& (0+255),b
  1952  001D86                     l580:
  1953                           
  1954                           ; BSR set to: 5
  1955                           ;main.c: 245:                 if(led1Blink && ++timeout500ms == 50)
  1956  001D86  5187               	movf	main@led1Blink& (0+255),w,b
  1957  001D88  B4D8               	btfsc	status,2,c
  1958  001D8A  EFC9  F00E         	goto	u3351
  1959  001D8E  EFCB  F00E         	goto	u3350
  1960  001D92                     u3351:
  1961  001D92  EFE8  F00E         	goto	l3436
  1962  001D96                     u3350:
  1963  001D96                     
  1964                           ; BSR set to: 5
  1965  001D96  2B72               	incf	main@timeout500ms& (0+255),f,b
  1966  001D98  0E32               	movlw	50
  1967  001D9A  1972               	xorwf	main@timeout500ms& (0+255),w,b
  1968  001D9C  A4D8               	btfss	status,2,c
  1969  001D9E  EFD3  F00E         	goto	u3361
  1970  001DA2  EFD5  F00E         	goto	u3360
  1971  001DA6                     u3361:
  1972  001DA6  EFE8  F00E         	goto	l3436
  1973  001DAA                     u3360:
  1974  001DAA                     
  1975                           ; BSR set to: 5
  1976                           ;main.c: 246:                 {;main.c: 247:                     timeout500ms = 0;
  1977  001DAA  0E00               	movlw	0
  1978  001DAC  6F72               	movwf	main@timeout500ms& (0+255),b
  1979  001DAE                     
  1980                           ; BSR set to: 5
  1981                           ;main.c: 248:                     LATCbits.LATC7 = !LATCbits.LATC7;
  1982  001DAE  AEC0               	btfss	192,7,c	;volatile
  1983  001DB0  EFDC  F00E         	goto	u3371
  1984  001DB4  EFE0  F00E         	goto	u3370
  1985  001DB8                     u3371:
  1986  001DB8  6A2F               	clrf	??_main^(0+1280),c
  1987  001DBA  2A2F               	incf	??_main^(0+1280),f,c
  1988  001DBC  EFE1  F00E         	goto	u3388
  1989  001DC0                     u3370:
  1990  001DC0  6A2F               	clrf	??_main^(0+1280),c
  1991  001DC2                     u3388:
  1992  001DC2  322F               	rrcf	??_main^(0+1280),f,c
  1993  001DC4  322F               	rrcf	??_main^(0+1280),f,c
  1994  001DC6  50C0               	movf	192,w,c	;volatile
  1995  001DC8  182F               	xorwf	??_main^(0+1280),w,c
  1996  001DCA  0B7F               	andlw	-129
  1997  001DCC  182F               	xorwf	??_main^(0+1280),w,c
  1998  001DCE  6EC0               	movwf	192,c	;volatile
  1999  001DD0                     l3436:
  2000                           
  2001                           ;main.c: 251:                 if(led2Blink && ++timeout500ms == 50)
  2002  001DD0  0105               	movlb	5	; () banked
  2003  001DD2  5188               	movf	main@led2Blink& (0+255),w,b
  2004  001DD4  B4D8               	btfsc	status,2,c
  2005  001DD6  EFEF  F00E         	goto	u3391
  2006  001DDA  EFF1  F00E         	goto	u3390
  2007  001DDE                     u3391:
  2008  001DDE  EF0E  F00F         	goto	l3444
  2009  001DE2                     u3390:
  2010  001DE2                     
  2011                           ; BSR set to: 5
  2012  001DE2  2B72               	incf	main@timeout500ms& (0+255),f,b
  2013  001DE4  0E32               	movlw	50
  2014  001DE6  1972               	xorwf	main@timeout500ms& (0+255),w,b
  2015  001DE8  A4D8               	btfss	status,2,c
  2016  001DEA  EFF9  F00E         	goto	u3401
  2017  001DEE  EFFB  F00E         	goto	u3400
  2018  001DF2                     u3401:
  2019  001DF2  EF0E  F00F         	goto	l3444
  2020  001DF6                     u3400:
  2021  001DF6                     
  2022                           ; BSR set to: 5
  2023                           ;main.c: 252:                 {;main.c: 253:                     timeout500ms = 0;
  2024  001DF6  0E00               	movlw	0
  2025  001DF8  6F72               	movwf	main@timeout500ms& (0+255),b
  2026  001DFA                     
  2027                           ; BSR set to: 5
  2028                           ;main.c: 254:                     LATCbits.LATC5 = !LATCbits.LATC5;
  2029  001DFA  AAC0               	btfss	192,5,c	;volatile
  2030  001DFC  EF02  F00F         	goto	u3411
  2031  001E00  EF06  F00F         	goto	u3410
  2032  001E04                     u3411:
  2033  001E04  6A2F               	clrf	??_main^(0+1280),c
  2034  001E06  2A2F               	incf	??_main^(0+1280),f,c
  2035  001E08  EF07  F00F         	goto	u3428
  2036  001E0C                     u3410:
  2037  001E0C  6A2F               	clrf	??_main^(0+1280),c
  2038  001E0E                     u3428:
  2039  001E0E  3A2F               	swapf	??_main^(0+1280),f,c
  2040  001E10  462F               	rlncf	??_main^(0+1280),f,c
  2041  001E12  50C0               	movf	192,w,c	;volatile
  2042  001E14  182F               	xorwf	??_main^(0+1280),w,c
  2043  001E16  0BDF               	andlw	-33
  2044  001E18  182F               	xorwf	??_main^(0+1280),w,c
  2045  001E1A  6EC0               	movwf	192,c	;volatile
  2046  001E1C                     l3444:
  2047                           
  2048                           ;main.c: 257:                 if(led3Blink && ++timeout500ms == 50)
  2049  001E1C  0105               	movlb	5	; () banked
  2050  001E1E  5189               	movf	main@led3Blink& (0+255),w,b
  2051  001E20  B4D8               	btfsc	status,2,c
  2052  001E22  EF15  F00F         	goto	u3431
  2053  001E26  EF17  F00F         	goto	u3430
  2054  001E2A                     u3431:
  2055  001E2A  EF34  F00F         	goto	l3452
  2056  001E2E                     u3430:
  2057  001E2E                     
  2058                           ; BSR set to: 5
  2059  001E2E  2B72               	incf	main@timeout500ms& (0+255),f,b
  2060  001E30  0E32               	movlw	50
  2061  001E32  1972               	xorwf	main@timeout500ms& (0+255),w,b
  2062  001E34  A4D8               	btfss	status,2,c
  2063  001E36  EF1F  F00F         	goto	u3441
  2064  001E3A  EF21  F00F         	goto	u3440
  2065  001E3E                     u3441:
  2066  001E3E  EF34  F00F         	goto	l3452
  2067  001E42                     u3440:
  2068  001E42                     
  2069                           ; BSR set to: 5
  2070                           ;main.c: 258:                 {;main.c: 259:                     timeout500ms = 0;
  2071  001E42  0E00               	movlw	0
  2072  001E44  6F72               	movwf	main@timeout500ms& (0+255),b
  2073  001E46                     
  2074                           ; BSR set to: 5
  2075                           ;main.c: 260:                     LATAbits.LATA5 = !LATAbits.LATA5;
  2076  001E46  AABE               	btfss	190,5,c	;volatile
  2077  001E48  EF28  F00F         	goto	u3451
  2078  001E4C  EF2C  F00F         	goto	u3450
  2079  001E50                     u3451:
  2080  001E50  6A2F               	clrf	??_main^(0+1280),c
  2081  001E52  2A2F               	incf	??_main^(0+1280),f,c
  2082  001E54  EF2D  F00F         	goto	u3468
  2083  001E58                     u3450:
  2084  001E58  6A2F               	clrf	??_main^(0+1280),c
  2085  001E5A                     u3468:
  2086  001E5A  3A2F               	swapf	??_main^(0+1280),f,c
  2087  001E5C  462F               	rlncf	??_main^(0+1280),f,c
  2088  001E5E  50BE               	movf	190,w,c	;volatile
  2089  001E60  182F               	xorwf	??_main^(0+1280),w,c
  2090  001E62  0BDF               	andlw	-33
  2091  001E64  182F               	xorwf	??_main^(0+1280),w,c
  2092  001E66  6EBE               	movwf	190,c	;volatile
  2093  001E68                     l3452:
  2094                           
  2095                           ;main.c: 263:                 if(led4Blink && ++timeout500ms == 50)
  2096  001E68  0105               	movlb	5	; () banked
  2097  001E6A  518A               	movf	main@led4Blink& (0+255),w,b
  2098  001E6C  B4D8               	btfsc	status,2,c
  2099  001E6E  EF3B  F00F         	goto	u3471
  2100  001E72  EF3D  F00F         	goto	u3470
  2101  001E76                     u3471:
  2102  001E76  EF5B  F00F         	goto	l3460
  2103  001E7A                     u3470:
  2104  001E7A                     
  2105                           ; BSR set to: 5
  2106  001E7A  2B72               	incf	main@timeout500ms& (0+255),f,b
  2107  001E7C  0E32               	movlw	50
  2108  001E7E  1972               	xorwf	main@timeout500ms& (0+255),w,b
  2109  001E80  A4D8               	btfss	status,2,c
  2110  001E82  EF45  F00F         	goto	u3481
  2111  001E86  EF47  F00F         	goto	u3480
  2112  001E8A                     u3481:
  2113  001E8A  EF5B  F00F         	goto	l3460
  2114  001E8E                     u3480:
  2115  001E8E                     
  2116                           ; BSR set to: 5
  2117                           ;main.c: 264:                 {;main.c: 265:                     timeout500ms = 0;
  2118  001E8E  0E00               	movlw	0
  2119  001E90  6F72               	movwf	main@timeout500ms& (0+255),b
  2120  001E92                     
  2121                           ; BSR set to: 5
  2122                           ;main.c: 266:                     LATCbits.LATC3 = !LATCbits.LATC3;
  2123  001E92  A6C0               	btfss	192,3,c	;volatile
  2124  001E94  EF4E  F00F         	goto	u3491
  2125  001E98  EF52  F00F         	goto	u3490
  2126  001E9C                     u3491:
  2127  001E9C  6A2F               	clrf	??_main^(0+1280),c
  2128  001E9E  2A2F               	incf	??_main^(0+1280),f,c
  2129  001EA0  EF53  F00F         	goto	u3508
  2130  001EA4                     u3490:
  2131  001EA4  6A2F               	clrf	??_main^(0+1280),c
  2132  001EA6                     u3508:
  2133  001EA6  462F               	rlncf	??_main^(0+1280),f,c
  2134  001EA8  462F               	rlncf	??_main^(0+1280),f,c
  2135  001EAA  462F               	rlncf	??_main^(0+1280),f,c
  2136  001EAC  50C0               	movf	192,w,c	;volatile
  2137  001EAE  182F               	xorwf	??_main^(0+1280),w,c
  2138  001EB0  0BF7               	andlw	-9
  2139  001EB2  182F               	xorwf	??_main^(0+1280),w,c
  2140  001EB4  6EC0               	movwf	192,c	;volatile
  2141  001EB6                     l3460:
  2142                           
  2143                           ;main.c: 269:                 if(!(led1Blink || led2Blink || led3Blink || led4Blink))
  2144  001EB6  0105               	movlb	5	; () banked
  2145  001EB8  5187               	movf	main@led1Blink& (0+255),w,b
  2146  001EBA  A4D8               	btfss	status,2,c
  2147  001EBC  EF62  F00F         	goto	u3511
  2148  001EC0  EF64  F00F         	goto	u3510
  2149  001EC4                     u3511:
  2150  001EC4  EF82  F00F         	goto	l587
  2151  001EC8                     u3510:
  2152  001EC8                     
  2153                           ; BSR set to: 5
  2154  001EC8  5188               	movf	main@led2Blink& (0+255),w,b
  2155  001ECA  A4D8               	btfss	status,2,c
  2156  001ECC  EF6A  F00F         	goto	u3521
  2157  001ED0  EF6C  F00F         	goto	u3520
  2158  001ED4                     u3521:
  2159  001ED4  EF82  F00F         	goto	l587
  2160  001ED8                     u3520:
  2161  001ED8                     
  2162                           ; BSR set to: 5
  2163  001ED8  5189               	movf	main@led3Blink& (0+255),w,b
  2164  001EDA  A4D8               	btfss	status,2,c
  2165  001EDC  EF72  F00F         	goto	u3531
  2166  001EE0  EF74  F00F         	goto	u3530
  2167  001EE4                     u3531:
  2168  001EE4  EF82  F00F         	goto	l587
  2169  001EE8                     u3530:
  2170  001EE8                     
  2171                           ; BSR set to: 5
  2172  001EE8  518A               	movf	main@led4Blink& (0+255),w,b
  2173  001EEA  A4D8               	btfss	status,2,c
  2174  001EEC  EF7A  F00F         	goto	u3541
  2175  001EF0  EF7C  F00F         	goto	u3540
  2176  001EF4                     u3541:
  2177  001EF4  EF82  F00F         	goto	l587
  2178  001EF8                     u3540:
  2179  001EF8                     
  2180                           ; BSR set to: 5
  2181                           ;main.c: 270:                 {;main.c: 271:                     timeout500ms = 0;
  2182  001EF8  0E00               	movlw	0
  2183  001EFA  6F72               	movwf	main@timeout500ms& (0+255),b
  2184  001EFC                     
  2185                           ; BSR set to: 5
  2186                           ;main.c: 273:                     LATCbits.LATC7 = 0;
  2187  001EFC  9EC0               	bcf	192,7,c	;volatile
  2188  001EFE                     
  2189                           ; BSR set to: 5
  2190                           ;main.c: 274:                     LATCbits.LATC5 = 0;
  2191  001EFE  9AC0               	bcf	192,5,c	;volatile
  2192  001F00                     
  2193                           ; BSR set to: 5
  2194                           ;main.c: 275:                     LATAbits.LATA5 = 0;
  2195  001F00  9ABE               	bcf	190,5,c	;volatile
  2196  001F02                     
  2197                           ; BSR set to: 5
  2198                           ;main.c: 276:                     LATCbits.LATC3 = 0;
  2199  001F02  96C0               	bcf	192,3,c	;volatile
  2200  001F04                     l587:
  2201                           
  2202                           ; BSR set to: 5
  2203                           ;main.c: 281:                 if(led1Blink && !PORTCbits.RC6 && taster1Flag)
  2204  001F04  5187               	movf	main@led1Blink& (0+255),w,b
  2205  001F06  B4D8               	btfsc	status,2,c
  2206  001F08  EF88  F00F         	goto	u3551
  2207  001F0C  EF8A  F00F         	goto	u3550
  2208  001F10                     u3551:
  2209  001F10  EFCB  F00F         	goto	l3496
  2210  001F14                     u3550:
  2211  001F14                     
  2212                           ; BSR set to: 5
  2213  001F14  BCD0               	btfsc	208,6,c	;volatile
  2214  001F16  EF8F  F00F         	goto	u3561
  2215  001F1A  EF91  F00F         	goto	u3560
  2216  001F1E                     u3561:
  2217  001F1E  EFCB  F00F         	goto	l3496
  2218  001F22                     u3560:
  2219  001F22                     
  2220                           ; BSR set to: 5
  2221  001F22  5177               	movf	main@taster1Flag& (0+255),w,b
  2222  001F24  B4D8               	btfsc	status,2,c
  2223  001F26  EF97  F00F         	goto	u3571
  2224  001F2A  EF99  F00F         	goto	u3570
  2225  001F2E                     u3571:
  2226  001F2E  EFCB  F00F         	goto	l3496
  2227  001F32                     u3570:
  2228  001F32                     
  2229                           ; BSR set to: 5
  2230                           ;main.c: 282:                 {;main.c: 283:                     redMode1 = red;
  2231  001F32  C58F  F58B         	movff	main@red,main@redMode1
  2232                           
  2233                           ;main.c: 284:                     greenMode1 = green;
  2234  001F36  C590  F58C         	movff	main@green,main@greenMode1
  2235                           
  2236                           ;main.c: 285:                     blueMode1 = blue;
  2237  001F3A  C591  F58D         	movff	main@blue,main@blueMode1
  2238                           
  2239                           ;main.c: 286:                     whiteMode1 = white;
  2240  001F3E  C592  F58E         	movff	main@white,main@whiteMode1
  2241  001F42                     
  2242                           ; BSR set to: 5
  2243                           ;main.c: 287:                     led1Blink = 0;
  2244  001F42  0E00               	movlw	0
  2245  001F44  6F87               	movwf	main@led1Blink& (0+255),b
  2246  001F46                     
  2247                           ; BSR set to: 5
  2248                           ;main.c: 288:                     DATAEE_WriteByte(15, blueMode1);
  2249  001F46  0E00               	movlw	0
  2250  001F48  6E02               	movwf	(DATAEE_WriteByte@bAdd+1)^(0+1280),c
  2251  001F4A  0E0F               	movlw	15
  2252  001F4C  6E01               	movwf	DATAEE_WriteByte@bAdd^(0+1280),c
  2253  001F4E  C58D  F503         	movff	main@blueMode1,DATAEE_WriteByte@bData
  2254  001F52  ECBD  F01E         	call	_DATAEE_WriteByte	;wreg free
  2255  001F56                     
  2256                           ;main.c: 289:                     DATAEE_WriteByte(12, greenMode1);
  2257  001F56  0E00               	movlw	0
  2258  001F58  6E02               	movwf	(DATAEE_WriteByte@bAdd+1)^(0+1280),c
  2259  001F5A  0E0C               	movlw	12
  2260  001F5C  6E01               	movwf	DATAEE_WriteByte@bAdd^(0+1280),c
  2261  001F5E  C58C  F503         	movff	main@greenMode1,DATAEE_WriteByte@bData
  2262  001F62  ECBD  F01E         	call	_DATAEE_WriteByte	;wreg free
  2263  001F66                     
  2264                           ;main.c: 290:                     DATAEE_WriteByte(11, redMode1);
  2265  001F66  0E00               	movlw	0
  2266  001F68  6E02               	movwf	(DATAEE_WriteByte@bAdd+1)^(0+1280),c
  2267  001F6A  0E0B               	movlw	11
  2268  001F6C  6E01               	movwf	DATAEE_WriteByte@bAdd^(0+1280),c
  2269  001F6E  C58B  F503         	movff	main@redMode1,DATAEE_WriteByte@bData
  2270  001F72  ECBD  F01E         	call	_DATAEE_WriteByte	;wreg free
  2271  001F76                     
  2272                           ;main.c: 291:                     DATAEE_WriteByte(17, whiteMode1);
  2273  001F76  0E00               	movlw	0
  2274  001F78  6E02               	movwf	(DATAEE_WriteByte@bAdd+1)^(0+1280),c
  2275  001F7A  0E11               	movlw	17
  2276  001F7C  6E01               	movwf	DATAEE_WriteByte@bAdd^(0+1280),c
  2277  001F7E  C58E  F503         	movff	main@whiteMode1,DATAEE_WriteByte@bData
  2278  001F82  ECBD  F01E         	call	_DATAEE_WriteByte	;wreg free
  2279  001F86                     
  2280                           ;main.c: 292:                     DATAEE_WriteByte(3, 69);
  2281  001F86  0E00               	movlw	0
  2282  001F88  6E02               	movwf	(DATAEE_WriteByte@bAdd+1)^(0+1280),c
  2283  001F8A  0E03               	movlw	3
  2284  001F8C  6E01               	movwf	DATAEE_WriteByte@bAdd^(0+1280),c
  2285  001F8E  0E45               	movlw	69
  2286  001F90  6E03               	movwf	DATAEE_WriteByte@bData^(0+1280),c
  2287  001F92  ECBD  F01E         	call	_DATAEE_WriteByte	;wreg free
  2288  001F96                     l3496:
  2289                           
  2290                           ;main.c: 295:                 if(led2Blink && !PORTAbits.RA4 && taster2Flag)
  2291  001F96  0105               	movlb	5	; () banked
  2292  001F98  5188               	movf	main@led2Blink& (0+255),w,b
  2293  001F9A  B4D8               	btfsc	status,2,c
  2294  001F9C  EFD2  F00F         	goto	u3581
  2295  001FA0  EFD4  F00F         	goto	u3580
  2296  001FA4                     u3581:
  2297  001FA4  EF15  F010         	goto	l3516
  2298  001FA8                     u3580:
  2299  001FA8                     
  2300                           ; BSR set to: 5
  2301  001FA8  B8CE               	btfsc	206,4,c	;volatile
  2302  001FAA  EFD9  F00F         	goto	u3591
  2303  001FAE  EFDB  F00F         	goto	u3590
  2304  001FB2                     u3591:
  2305  001FB2  EF15  F010         	goto	l3516
  2306  001FB6                     u3590:
  2307  001FB6                     
  2308                           ; BSR set to: 5
  2309  001FB6  5178               	movf	main@taster2Flag& (0+255),w,b
  2310  001FB8  B4D8               	btfsc	status,2,c
  2311  001FBA  EFE1  F00F         	goto	u3601
  2312  001FBE  EFE3  F00F         	goto	u3600
  2313  001FC2                     u3601:
  2314  001FC2  EF15  F010         	goto	l3516
  2315  001FC6                     u3600:
  2316  001FC6                     
  2317                           ; BSR set to: 5
  2318                           ;main.c: 296:                 {;main.c: 297:                     redMode2 = red;
  2319  001FC6  C58F  F57B         	movff	main@red,main@redMode2
  2320                           
  2321                           ;main.c: 298:                     greenMode2 = green;
  2322  001FCA  C590  F57C         	movff	main@green,main@greenMode2
  2323                           
  2324                           ;main.c: 299:                     blueMode2 = blue;
  2325  001FCE  C591  F57D         	movff	main@blue,main@blueMode2
  2326                           
  2327                           ;main.c: 300:                     whiteMode2 = white;
  2328  001FD2  C592  F584         	movff	main@white,main@whiteMode2
  2329  001FD6                     
  2330                           ; BSR set to: 5
  2331                           ;main.c: 301:                     led2Blink = 0;
  2332  001FD6  0E00               	movlw	0
  2333  001FD8  6F88               	movwf	main@led2Blink& (0+255),b
  2334  001FDA                     
  2335                           ; BSR set to: 5
  2336                           ;main.c: 302:                     DATAEE_WriteByte(20, blueMode2);
  2337  001FDA  0E00               	movlw	0
  2338  001FDC  6E02               	movwf	(DATAEE_WriteByte@bAdd+1)^(0+1280),c
  2339  001FDE  0E14               	movlw	20
  2340  001FE0  6E01               	movwf	DATAEE_WriteByte@bAdd^(0+1280),c
  2341  001FE2  C57D  F503         	movff	main@blueMode2,DATAEE_WriteByte@bData
  2342  001FE6  ECBD  F01E         	call	_DATAEE_WriteByte	;wreg free
  2343  001FEA                     
  2344                           ;main.c: 303:                     DATAEE_WriteByte(19, greenMode2);
  2345  001FEA  0E00               	movlw	0
  2346  001FEC  6E02               	movwf	(DATAEE_WriteByte@bAdd+1)^(0+1280),c
  2347  001FEE  0E13               	movlw	19
  2348  001FF0  6E01               	movwf	DATAEE_WriteByte@bAdd^(0+1280),c
  2349  001FF2  C57C  F503         	movff	main@greenMode2,DATAEE_WriteByte@bData
  2350  001FF6  ECBD  F01E         	call	_DATAEE_WriteByte	;wreg free
  2351  001FFA                     
  2352                           ;main.c: 304:                     DATAEE_WriteByte(18, redMode2);
  2353  001FFA  0E00               	movlw	0
  2354  001FFC  6E02               	movwf	(DATAEE_WriteByte@bAdd+1)^(0+1280),c
  2355  001FFE  0E12               	movlw	18
  2356  002000  6E01               	movwf	DATAEE_WriteByte@bAdd^(0+1280),c
  2357  002002  C57B  F503         	movff	main@redMode2,DATAEE_WriteByte@bData
  2358  002006  ECBD  F01E         	call	_DATAEE_WriteByte	;wreg free
  2359  00200A                     
  2360                           ;main.c: 305:                     DATAEE_WriteByte(21, whiteMode2);
  2361  00200A  0E00               	movlw	0
  2362  00200C  6E02               	movwf	(DATAEE_WriteByte@bAdd+1)^(0+1280),c
  2363  00200E  0E15               	movlw	21
  2364  002010  6E01               	movwf	DATAEE_WriteByte@bAdd^(0+1280),c
  2365  002012  C584  F503         	movff	main@whiteMode2,DATAEE_WriteByte@bData
  2366  002016  ECBD  F01E         	call	_DATAEE_WriteByte	;wreg free
  2367  00201A                     
  2368                           ;main.c: 306:                     DATAEE_WriteByte(4, 69);
  2369  00201A  0E00               	movlw	0
  2370  00201C  6E02               	movwf	(DATAEE_WriteByte@bAdd+1)^(0+1280),c
  2371  00201E  0E04               	movlw	4
  2372  002020  6E01               	movwf	DATAEE_WriteByte@bAdd^(0+1280),c
  2373  002022  0E45               	movlw	69
  2374  002024  6E03               	movwf	DATAEE_WriteByte@bData^(0+1280),c
  2375  002026  ECBD  F01E         	call	_DATAEE_WriteByte	;wreg free
  2376  00202A                     l3516:
  2377                           
  2378                           ;main.c: 309:                 if(led3Blink && !PORTCbits.RC4 && taster3Flag)
  2379  00202A  0105               	movlb	5	; () banked
  2380  00202C  5189               	movf	main@led3Blink& (0+255),w,b
  2381  00202E  B4D8               	btfsc	status,2,c
  2382  002030  EF1C  F010         	goto	u3611
  2383  002034  EF1E  F010         	goto	u3610
  2384  002038                     u3611:
  2385  002038  EF5F  F010         	goto	l3536
  2386  00203C                     u3610:
  2387  00203C                     
  2388                           ; BSR set to: 5
  2389  00203C  B8D0               	btfsc	208,4,c	;volatile
  2390  00203E  EF23  F010         	goto	u3621
  2391  002042  EF25  F010         	goto	u3620
  2392  002046                     u3621:
  2393  002046  EF5F  F010         	goto	l3536
  2394  00204A                     u3620:
  2395  00204A                     
  2396                           ; BSR set to: 5
  2397  00204A  517A               	movf	main@taster3Flag& (0+255),w,b
  2398  00204C  B4D8               	btfsc	status,2,c
  2399  00204E  EF2B  F010         	goto	u3631
  2400  002052  EF2D  F010         	goto	u3630
  2401  002056                     u3631:
  2402  002056  EF5F  F010         	goto	l3536
  2403  00205A                     u3630:
  2404  00205A                     
  2405                           ; BSR set to: 5
  2406                           ;main.c: 310:                 {;main.c: 311:                     redMode3 = red;
  2407  00205A  C58F  F57E         	movff	main@red,main@redMode3
  2408                           
  2409                           ;main.c: 312:                     greenMode3 = green;
  2410  00205E  C590  F57F         	movff	main@green,main@greenMode3
  2411                           
  2412                           ;main.c: 313:                     blueMode3 = blue;
  2413  002062  C591  F580         	movff	main@blue,main@blueMode3
  2414                           
  2415                           ;main.c: 314:                     whiteMode3 = white;
  2416  002066  C592  F585         	movff	main@white,main@whiteMode3
  2417  00206A                     
  2418                           ; BSR set to: 5
  2419                           ;main.c: 315:                     led3Blink = 0;
  2420  00206A  0E00               	movlw	0
  2421  00206C  6F89               	movwf	main@led3Blink& (0+255),b
  2422  00206E                     
  2423                           ; BSR set to: 5
  2424                           ;main.c: 316:                     DATAEE_WriteByte(25, blueMode3);
  2425  00206E  0E00               	movlw	0
  2426  002070  6E02               	movwf	(DATAEE_WriteByte@bAdd+1)^(0+1280),c
  2427  002072  0E19               	movlw	25
  2428  002074  6E01               	movwf	DATAEE_WriteByte@bAdd^(0+1280),c
  2429  002076  C580  F503         	movff	main@blueMode3,DATAEE_WriteByte@bData
  2430  00207A  ECBD  F01E         	call	_DATAEE_WriteByte	;wreg free
  2431  00207E                     
  2432                           ;main.c: 317:                     DATAEE_WriteByte(24, greenMode3);
  2433  00207E  0E00               	movlw	0
  2434  002080  6E02               	movwf	(DATAEE_WriteByte@bAdd+1)^(0+1280),c
  2435  002082  0E18               	movlw	24
  2436  002084  6E01               	movwf	DATAEE_WriteByte@bAdd^(0+1280),c
  2437  002086  C57F  F503         	movff	main@greenMode3,DATAEE_WriteByte@bData
  2438  00208A  ECBD  F01E         	call	_DATAEE_WriteByte	;wreg free
  2439  00208E                     
  2440                           ;main.c: 318:                     DATAEE_WriteByte(22, redMode3);
  2441  00208E  0E00               	movlw	0
  2442  002090  6E02               	movwf	(DATAEE_WriteByte@bAdd+1)^(0+1280),c
  2443  002092  0E16               	movlw	22
  2444  002094  6E01               	movwf	DATAEE_WriteByte@bAdd^(0+1280),c
  2445  002096  C57E  F503         	movff	main@redMode3,DATAEE_WriteByte@bData
  2446  00209A  ECBD  F01E         	call	_DATAEE_WriteByte	;wreg free
  2447  00209E                     
  2448                           ;main.c: 319:                     DATAEE_WriteByte(27, whiteMode3);
  2449  00209E  0E00               	movlw	0
  2450  0020A0  6E02               	movwf	(DATAEE_WriteByte@bAdd+1)^(0+1280),c
  2451  0020A2  0E1B               	movlw	27
  2452  0020A4  6E01               	movwf	DATAEE_WriteByte@bAdd^(0+1280),c
  2453  0020A6  C585  F503         	movff	main@whiteMode3,DATAEE_WriteByte@bData
  2454  0020AA  ECBD  F01E         	call	_DATAEE_WriteByte	;wreg free
  2455  0020AE                     
  2456                           ;main.c: 320:                     DATAEE_WriteByte(6, 69);
  2457  0020AE  0E00               	movlw	0
  2458  0020B0  6E02               	movwf	(DATAEE_WriteByte@bAdd+1)^(0+1280),c
  2459  0020B2  0E06               	movlw	6
  2460  0020B4  6E01               	movwf	DATAEE_WriteByte@bAdd^(0+1280),c
  2461  0020B6  0E45               	movlw	69
  2462  0020B8  6E03               	movwf	DATAEE_WriteByte@bData^(0+1280),c
  2463  0020BA  ECBD  F01E         	call	_DATAEE_WriteByte	;wreg free
  2464  0020BE                     l3536:
  2465                           
  2466                           ;main.c: 323:                 if(led4Blink && !PORTBbits.RB7 && taster4Flag)
  2467  0020BE  0105               	movlb	5	; () banked
  2468  0020C0  518A               	movf	main@led4Blink& (0+255),w,b
  2469  0020C2  B4D8               	btfsc	status,2,c
  2470  0020C4  EF66  F010         	goto	u3641
  2471  0020C8  EF68  F010         	goto	u3640
  2472  0020CC                     u3641:
  2473  0020CC  EFA9  F010         	goto	l3556
  2474  0020D0                     u3640:
  2475  0020D0                     
  2476                           ; BSR set to: 5
  2477  0020D0  BECF               	btfsc	207,7,c	;volatile
  2478  0020D2  EF6D  F010         	goto	u3651
  2479  0020D6  EF6F  F010         	goto	u3650
  2480  0020DA                     u3651:
  2481  0020DA  EFA9  F010         	goto	l3556
  2482  0020DE                     u3650:
  2483  0020DE                     
  2484                           ; BSR set to: 5
  2485  0020DE  5179               	movf	main@taster4Flag& (0+255),w,b
  2486  0020E0  B4D8               	btfsc	status,2,c
  2487  0020E2  EF75  F010         	goto	u3661
  2488  0020E6  EF77  F010         	goto	u3660
  2489  0020EA                     u3661:
  2490  0020EA  EFA9  F010         	goto	l3556
  2491  0020EE                     u3660:
  2492  0020EE                     
  2493                           ; BSR set to: 5
  2494                           ;main.c: 324:                 {;main.c: 325:                     redMode4 = red;
  2495  0020EE  C58F  F581         	movff	main@red,main@redMode4
  2496                           
  2497                           ;main.c: 326:                     greenMode4 = green;
  2498  0020F2  C590  F582         	movff	main@green,main@greenMode4
  2499                           
  2500                           ;main.c: 327:                     blueMode4 = blue;
  2501  0020F6  C591  F583         	movff	main@blue,main@blueMode4
  2502                           
  2503                           ;main.c: 328:                     whiteMode4 = white;
  2504  0020FA  C592  F586         	movff	main@white,main@whiteMode4
  2505  0020FE                     
  2506                           ; BSR set to: 5
  2507                           ;main.c: 329:                     led4Blink = 0;
  2508  0020FE  0E00               	movlw	0
  2509  002100  6F8A               	movwf	main@led4Blink& (0+255),b
  2510  002102                     
  2511                           ; BSR set to: 5
  2512                           ;main.c: 330:                     DATAEE_WriteByte(32, blueMode4);
  2513  002102  0E00               	movlw	0
  2514  002104  6E02               	movwf	(DATAEE_WriteByte@bAdd+1)^(0+1280),c
  2515  002106  0E20               	movlw	32
  2516  002108  6E01               	movwf	DATAEE_WriteByte@bAdd^(0+1280),c
  2517  00210A  C583  F503         	movff	main@blueMode4,DATAEE_WriteByte@bData
  2518  00210E  ECBD  F01E         	call	_DATAEE_WriteByte	;wreg free
  2519  002112                     
  2520                           ;main.c: 331:                     DATAEE_WriteByte(31, greenMode4);
  2521  002112  0E00               	movlw	0
  2522  002114  6E02               	movwf	(DATAEE_WriteByte@bAdd+1)^(0+1280),c
  2523  002116  0E1F               	movlw	31
  2524  002118  6E01               	movwf	DATAEE_WriteByte@bAdd^(0+1280),c
  2525  00211A  C582  F503         	movff	main@greenMode4,DATAEE_WriteByte@bData
  2526  00211E  ECBD  F01E         	call	_DATAEE_WriteByte	;wreg free
  2527  002122                     
  2528                           ;main.c: 332:                     DATAEE_WriteByte(30, redMode4);
  2529  002122  0E00               	movlw	0
  2530  002124  6E02               	movwf	(DATAEE_WriteByte@bAdd+1)^(0+1280),c
  2531  002126  0E1E               	movlw	30
  2532  002128  6E01               	movwf	DATAEE_WriteByte@bAdd^(0+1280),c
  2533  00212A  C581  F503         	movff	main@redMode4,DATAEE_WriteByte@bData
  2534  00212E  ECBD  F01E         	call	_DATAEE_WriteByte	;wreg free
  2535  002132                     
  2536                           ;main.c: 333:                     DATAEE_WriteByte(34, whiteMode4);
  2537  002132  0E00               	movlw	0
  2538  002134  6E02               	movwf	(DATAEE_WriteByte@bAdd+1)^(0+1280),c
  2539  002136  0E22               	movlw	34
  2540  002138  6E01               	movwf	DATAEE_WriteByte@bAdd^(0+1280),c
  2541  00213A  C586  F503         	movff	main@whiteMode4,DATAEE_WriteByte@bData
  2542  00213E  ECBD  F01E         	call	_DATAEE_WriteByte	;wreg free
  2543  002142                     
  2544                           ;main.c: 334:                     DATAEE_WriteByte(8, 69);
  2545  002142  0E00               	movlw	0
  2546  002144  6E02               	movwf	(DATAEE_WriteByte@bAdd+1)^(0+1280),c
  2547  002146  0E08               	movlw	8
  2548  002148  6E01               	movwf	DATAEE_WriteByte@bAdd^(0+1280),c
  2549  00214A  0E45               	movlw	69
  2550  00214C  6E03               	movwf	DATAEE_WriteByte@bData^(0+1280),c
  2551  00214E  ECBD  F01E         	call	_DATAEE_WriteByte	;wreg free
  2552  002152                     l3556:
  2553                           
  2554                           ;main.c: 339:                 if(PORTCbits.RC6)
  2555  002152  ACD0               	btfss	208,6,c	;volatile
  2556  002154  EFAE  F010         	goto	u3671
  2557  002158  EFB0  F010         	goto	u3670
  2558  00215C                     u3671:
  2559  00215C  EFB5  F010         	goto	l3560
  2560  002160                     u3670:
  2561  002160                     
  2562                           ;main.c: 340:                 {;main.c: 341:                     timeout5sPressed1 = 0;
  2563  002160  0E00               	movlw	0
  2564  002162  0105               	movlb	5	; () banked
  2565  002164  6F66               	movwf	(main@timeout5sPressed1+1)& (0+255),b
  2566  002166  0E00               	movlw	0
  2567  002168  6F65               	movwf	main@timeout5sPressed1& (0+255),b
  2568  00216A                     l3560:
  2569                           
  2570                           ;main.c: 344:                 if(PORTAbits.RA4)
  2571  00216A  A8CE               	btfss	206,4,c	;volatile
  2572  00216C  EFBA  F010         	goto	u3681
  2573  002170  EFBC  F010         	goto	u3680
  2574  002174                     u3681:
  2575  002174  EFC1  F010         	goto	l3564
  2576  002178                     u3680:
  2577  002178                     
  2578                           ;main.c: 345:                 {;main.c: 346:                     timeout5sPressed2 = 0;
  2579  002178  0E00               	movlw	0
  2580  00217A  0105               	movlb	5	; () banked
  2581  00217C  6F68               	movwf	(main@timeout5sPressed2+1)& (0+255),b
  2582  00217E  0E00               	movlw	0
  2583  002180  6F67               	movwf	main@timeout5sPressed2& (0+255),b
  2584  002182                     l3564:
  2585                           
  2586                           ;main.c: 349:                 if(PORTCbits.RC4)
  2587  002182  A8D0               	btfss	208,4,c	;volatile
  2588  002184  EFC6  F010         	goto	u3691
  2589  002188  EFC8  F010         	goto	u3690
  2590  00218C                     u3691:
  2591  00218C  EFCD  F010         	goto	l3568
  2592  002190                     u3690:
  2593  002190                     
  2594                           ;main.c: 350:                 {;main.c: 351:                     timeout5sPressed3 = 0;
  2595  002190  0E00               	movlw	0
  2596  002192  0105               	movlb	5	; () banked
  2597  002194  6F6A               	movwf	(main@timeout5sPressed3+1)& (0+255),b
  2598  002196  0E00               	movlw	0
  2599  002198  6F69               	movwf	main@timeout5sPressed3& (0+255),b
  2600  00219A                     l3568:
  2601                           
  2602                           ;main.c: 354:                 if(PORTBbits.RB7)
  2603  00219A  AECF               	btfss	207,7,c	;volatile
  2604  00219C  EFD2  F010         	goto	u3701
  2605  0021A0  EFD4  F010         	goto	u3700
  2606  0021A4                     u3701:
  2607  0021A4  EFD9  F00C         	goto	l3334
  2608  0021A8                     u3700:
  2609  0021A8                     
  2610                           ;main.c: 355:                 {;main.c: 356:                     timeout5sPressed4 = 0;
  2611  0021A8  0E00               	movlw	0
  2612  0021AA  0105               	movlb	5	; () banked
  2613  0021AC  6F6C               	movwf	(main@timeout5sPressed4+1)& (0+255),b
  2614  0021AE  0E00               	movlw	0
  2615  0021B0  6F6B               	movwf	main@timeout5sPressed4& (0+255),b
  2616  0021B2  EFD9  F00C         	goto	l3334
  2617  0021B6                     l597:
  2618                           
  2619                           ; BSR set to: 5
  2620                           ;main.c: 364:                 if(PORTCbits.RC6)
  2621  0021B6  ACD0               	btfss	208,6,c	;volatile
  2622  0021B8  EFE0  F010         	goto	u3711
  2623  0021BC  EFE2  F010         	goto	u3710
  2624  0021C0                     u3711:
  2625  0021C0  EF05  F011         	goto	l3582
  2626  0021C4                     u3710:
  2627  0021C4                     
  2628                           ; BSR set to: 5
  2629                           ;main.c: 365:                 {;main.c: 366:                     LATCbits.LATC7 = 1;
  2630  0021C4  8EC0               	bsf	192,7,c	;volatile
  2631  0021C6                     
  2632                           ; BSR set to: 5
  2633                           ;main.c: 367:                     LED_WriteFull(redMode1, greenMode1, blueMode1, whiteMo
      +                          de1, 300);
  2634  0021C6  C58C  F507         	movff	main@greenMode1,LED_WriteFull@green
  2635  0021CA  C58D  F508         	movff	main@blueMode1,LED_WriteFull@blue
  2636  0021CE  C58E  F509         	movff	main@whiteMode1,LED_WriteFull@white
  2637  0021D2  0E2C               	movlw	44
  2638  0021D4  6E0A               	movwf	LED_WriteFull@ledcount^(0+1280),c
  2639  0021D6  0E01               	movlw	1
  2640  0021D8  6E0B               	movwf	(LED_WriteFull@ledcount+1)^(0+1280),c
  2641  0021DA  0E00               	movlw	0
  2642  0021DC  6E0C               	movwf	(LED_WriteFull@ledcount+2)^(0+1280),c
  2643  0021DE  518B               	movf	main@redMode1& (0+255),w,b
  2644  0021E0  EC6D  F01D         	call	_LED_WriteFull
  2645  0021E4                     
  2646                           ;main.c: 368:                     state = T1;
  2647  0021E4  0E01               	movlw	1
  2648  0021E6  0105               	movlb	5	; () banked
  2649  0021E8  6F93               	movwf	main@state& (0+255),b
  2650  0021EA                     
  2651                           ; BSR set to: 5
  2652                           ;main.c: 369:                     DATAEE_WriteByte(36, state);
  2653  0021EA  0E00               	movlw	0
  2654  0021EC  6E02               	movwf	(DATAEE_WriteByte@bAdd+1)^(0+1280),c
  2655  0021EE  0E24               	movlw	36
  2656  0021F0  6E01               	movwf	DATAEE_WriteByte@bAdd^(0+1280),c
  2657  0021F2  C593  F503         	movff	main@state,DATAEE_WriteByte@bData
  2658  0021F6  ECBD  F01E         	call	_DATAEE_WriteByte	;wreg free
  2659  0021FA                     
  2660                           ;main.c: 370:                     DATAEE_WriteByte(2, 69);
  2661  0021FA  0E00               	movlw	0
  2662  0021FC  6E02               	movwf	(DATAEE_WriteByte@bAdd+1)^(0+1280),c
  2663  0021FE  0E02               	movlw	2
  2664  002200  6E01               	movwf	DATAEE_WriteByte@bAdd^(0+1280),c
  2665  002202  0E45               	movlw	69
  2666  002204  6E03               	movwf	DATAEE_WriteByte@bData^(0+1280),c
  2667  002206  ECBD  F01E         	call	_DATAEE_WriteByte	;wreg free
  2668  00220A                     l3582:
  2669                           
  2670                           ;main.c: 373:                 if(!PORTCbits.RC6 && (++timeout5sPressed1 == 250))
  2671  00220A  BCD0               	btfsc	208,6,c	;volatile
  2672  00220C  EF0A  F011         	goto	u3721
  2673  002210  EF0C  F011         	goto	u3720
  2674  002214                     u3721:
  2675  002214  EFD9  F00C         	goto	l3334
  2676  002218                     u3720:
  2677  002218  0105               	movlb	5	; () banked
  2678  00221A  4B65               	infsnz	main@timeout5sPressed1& (0+255),f,b
  2679  00221C  2B66               	incf	(main@timeout5sPressed1+1)& (0+255),f,b
  2680  00221E  0EFA               	movlw	250
  2681  002220  1965               	xorwf	main@timeout5sPressed1& (0+255),w,b
  2682  002222  1166               	iorwf	(main@timeout5sPressed1+1)& (0+255),w,b
  2683  002224  A4D8               	btfss	status,2,c
  2684  002226  EF17  F011         	goto	u3731
  2685  00222A  EF19  F011         	goto	u3730
  2686  00222E                     u3731:
  2687  00222E  EFD9  F00C         	goto	l3334
  2688  002232                     u3730:
  2689  002232                     
  2690                           ; BSR set to: 5
  2691                           ;main.c: 374:                 {;main.c: 375:                     timeout5sPressed1 = 0;
  2692  002232  0E00               	movlw	0
  2693  002234  6F66               	movwf	(main@timeout5sPressed1+1)& (0+255),b
  2694  002236  0E00               	movlw	0
  2695  002238  6F65               	movwf	main@timeout5sPressed1& (0+255),b
  2696                           
  2697                           ;main.c: 376:                     led1Blink = 1;
  2698  00223A  0E01               	movlw	1
  2699  00223C  6F87               	movwf	main@led1Blink& (0+255),b
  2700                           
  2701                           ;main.c: 377:                     state = MANUAL;
  2702  00223E  0E00               	movlw	0
  2703  002240  6F93               	movwf	main@state& (0+255),b
  2704  002242                     l3588:
  2705                           
  2706                           ; BSR set to: 5
  2707                           ;main.c: 378:                     DATAEE_WriteByte(36, state);
  2708  002242  0E00               	movlw	0
  2709  002244  6E02               	movwf	(DATAEE_WriteByte@bAdd+1)^(0+1280),c
  2710  002246  0E24               	movlw	36
  2711  002248  6E01               	movwf	DATAEE_WriteByte@bAdd^(0+1280),c
  2712  00224A  C593  F503         	movff	main@state,DATAEE_WriteByte@bData
  2713  00224E  ECBD  F01E         	call	_DATAEE_WriteByte	;wreg free
  2714  002252                     
  2715                           ;main.c: 379:                     DATAEE_WriteByte(2, 69);
  2716  002252  0E00               	movlw	0
  2717  002254  6E02               	movwf	(DATAEE_WriteByte@bAdd+1)^(0+1280),c
  2718  002256  0E02               	movlw	2
  2719  002258  6E01               	movwf	DATAEE_WriteByte@bAdd^(0+1280),c
  2720  00225A  0E45               	movlw	69
  2721  00225C  6E03               	movwf	DATAEE_WriteByte@bData^(0+1280),c
  2722  00225E  ECBD  F01E         	call	_DATAEE_WriteByte	;wreg free
  2723  002262  EFD9  F00C         	goto	l3334
  2724  002266                     l600:
  2725                           
  2726                           ; BSR set to: 5
  2727                           ;main.c: 387:                 if(PORTAbits.RA4)
  2728  002266  A8CE               	btfss	206,4,c	;volatile
  2729  002268  EF38  F011         	goto	u3741
  2730  00226C  EF3A  F011         	goto	u3740
  2731  002270                     u3741:
  2732  002270  EF5D  F011         	goto	l3602
  2733  002274                     u3740:
  2734  002274                     
  2735                           ; BSR set to: 5
  2736                           ;main.c: 388:                 {;main.c: 389:                     LATCbits.LATC5 = 1;
  2737  002274  8AC0               	bsf	192,5,c	;volatile
  2738  002276                     
  2739                           ; BSR set to: 5
  2740                           ;main.c: 390:                     LED_WriteFull(redMode2, greenMode2, blueMode2, whiteMo
      +                          de2, 300);
  2741  002276  C57C  F507         	movff	main@greenMode2,LED_WriteFull@green
  2742  00227A  C57D  F508         	movff	main@blueMode2,LED_WriteFull@blue
  2743  00227E  C584  F509         	movff	main@whiteMode2,LED_WriteFull@white
  2744  002282  0E2C               	movlw	44
  2745  002284  6E0A               	movwf	LED_WriteFull@ledcount^(0+1280),c
  2746  002286  0E01               	movlw	1
  2747  002288  6E0B               	movwf	(LED_WriteFull@ledcount+1)^(0+1280),c
  2748  00228A  0E00               	movlw	0
  2749  00228C  6E0C               	movwf	(LED_WriteFull@ledcount+2)^(0+1280),c
  2750  00228E  517B               	movf	main@redMode2& (0+255),w,b
  2751  002290  EC6D  F01D         	call	_LED_WriteFull
  2752  002294                     
  2753                           ;main.c: 391:                     state = T2;
  2754  002294  0E02               	movlw	2
  2755  002296  0105               	movlb	5	; () banked
  2756  002298  6F93               	movwf	main@state& (0+255),b
  2757  00229A                     
  2758                           ; BSR set to: 5
  2759                           ;main.c: 392:                     DATAEE_WriteByte(36, state);
  2760  00229A  0E00               	movlw	0
  2761  00229C  6E02               	movwf	(DATAEE_WriteByte@bAdd+1)^(0+1280),c
  2762  00229E  0E24               	movlw	36
  2763  0022A0  6E01               	movwf	DATAEE_WriteByte@bAdd^(0+1280),c
  2764  0022A2  C593  F503         	movff	main@state,DATAEE_WriteByte@bData
  2765  0022A6  ECBD  F01E         	call	_DATAEE_WriteByte	;wreg free
  2766  0022AA                     
  2767                           ;main.c: 393:                     DATAEE_WriteByte(2, 69);
  2768  0022AA  0E00               	movlw	0
  2769  0022AC  6E02               	movwf	(DATAEE_WriteByte@bAdd+1)^(0+1280),c
  2770  0022AE  0E02               	movlw	2
  2771  0022B0  6E01               	movwf	DATAEE_WriteByte@bAdd^(0+1280),c
  2772  0022B2  0E45               	movlw	69
  2773  0022B4  6E03               	movwf	DATAEE_WriteByte@bData^(0+1280),c
  2774  0022B6  ECBD  F01E         	call	_DATAEE_WriteByte	;wreg free
  2775  0022BA                     l3602:
  2776                           
  2777                           ;main.c: 396:                 if(!PORTAbits.RA4 && (++timeout5sPressed2 == 250))
  2778  0022BA  B8CE               	btfsc	206,4,c	;volatile
  2779  0022BC  EF62  F011         	goto	u3751
  2780  0022C0  EF64  F011         	goto	u3750
  2781  0022C4                     u3751:
  2782  0022C4  EFD9  F00C         	goto	l3334
  2783  0022C8                     u3750:
  2784  0022C8  0105               	movlb	5	; () banked
  2785  0022CA  4B67               	infsnz	main@timeout5sPressed2& (0+255),f,b
  2786  0022CC  2B68               	incf	(main@timeout5sPressed2+1)& (0+255),f,b
  2787  0022CE  0EFA               	movlw	250
  2788  0022D0  1967               	xorwf	main@timeout5sPressed2& (0+255),w,b
  2789  0022D2  1168               	iorwf	(main@timeout5sPressed2+1)& (0+255),w,b
  2790  0022D4  A4D8               	btfss	status,2,c
  2791  0022D6  EF6F  F011         	goto	u3761
  2792  0022DA  EF71  F011         	goto	u3760
  2793  0022DE                     u3761:
  2794  0022DE  EFD9  F00C         	goto	l3334
  2795  0022E2                     u3760:
  2796  0022E2                     
  2797                           ; BSR set to: 5
  2798                           ;main.c: 397:                 {;main.c: 398:                     timeout5sPressed2 = 0;
  2799  0022E2  0E00               	movlw	0
  2800  0022E4  6F68               	movwf	(main@timeout5sPressed2+1)& (0+255),b
  2801  0022E6  0E00               	movlw	0
  2802  0022E8  6F67               	movwf	main@timeout5sPressed2& (0+255),b
  2803                           
  2804                           ;main.c: 399:                     led2Blink = 1;
  2805  0022EA  0E01               	movlw	1
  2806  0022EC  6F88               	movwf	main@led2Blink& (0+255),b
  2807                           
  2808                           ;main.c: 400:                     state = MANUAL;
  2809  0022EE  0E00               	movlw	0
  2810  0022F0  6F93               	movwf	main@state& (0+255),b
  2811  0022F2  EF21  F011         	goto	l3588
  2812  0022F6                     l603:
  2813                           
  2814                           ; BSR set to: 5
  2815                           ;main.c: 409:                 if(PORTCbits.RC4)
  2816  0022F6  A8D0               	btfss	208,4,c	;volatile
  2817  0022F8  EF80  F011         	goto	u3771
  2818  0022FC  EF82  F011         	goto	u3770
  2819  002300                     u3771:
  2820  002300  EFA5  F011         	goto	l3622
  2821  002304                     u3770:
  2822  002304                     
  2823                           ; BSR set to: 5
  2824                           ;main.c: 410:                 {;main.c: 411:                     LATAbits.LATA5 = 1;
  2825  002304  8ABE               	bsf	190,5,c	;volatile
  2826  002306                     
  2827                           ; BSR set to: 5
  2828                           ;main.c: 412:                     LED_WriteFull(redMode3, greenMode3, blueMode3, whiteMo
      +                          de3, 300);
  2829  002306  C57F  F507         	movff	main@greenMode3,LED_WriteFull@green
  2830  00230A  C580  F508         	movff	main@blueMode3,LED_WriteFull@blue
  2831  00230E  C585  F509         	movff	main@whiteMode3,LED_WriteFull@white
  2832  002312  0E2C               	movlw	44
  2833  002314  6E0A               	movwf	LED_WriteFull@ledcount^(0+1280),c
  2834  002316  0E01               	movlw	1
  2835  002318  6E0B               	movwf	(LED_WriteFull@ledcount+1)^(0+1280),c
  2836  00231A  0E00               	movlw	0
  2837  00231C  6E0C               	movwf	(LED_WriteFull@ledcount+2)^(0+1280),c
  2838  00231E  517E               	movf	main@redMode3& (0+255),w,b
  2839  002320  EC6D  F01D         	call	_LED_WriteFull
  2840  002324                     
  2841                           ;main.c: 413:                     state = T3;
  2842  002324  0E03               	movlw	3
  2843  002326  0105               	movlb	5	; () banked
  2844  002328  6F93               	movwf	main@state& (0+255),b
  2845  00232A                     
  2846                           ; BSR set to: 5
  2847                           ;main.c: 414:                     DATAEE_WriteByte(36, state);
  2848  00232A  0E00               	movlw	0
  2849  00232C  6E02               	movwf	(DATAEE_WriteByte@bAdd+1)^(0+1280),c
  2850  00232E  0E24               	movlw	36
  2851  002330  6E01               	movwf	DATAEE_WriteByte@bAdd^(0+1280),c
  2852  002332  C593  F503         	movff	main@state,DATAEE_WriteByte@bData
  2853  002336  ECBD  F01E         	call	_DATAEE_WriteByte	;wreg free
  2854  00233A                     
  2855                           ;main.c: 415:                     DATAEE_WriteByte(2, 69);
  2856  00233A  0E00               	movlw	0
  2857  00233C  6E02               	movwf	(DATAEE_WriteByte@bAdd+1)^(0+1280),c
  2858  00233E  0E02               	movlw	2
  2859  002340  6E01               	movwf	DATAEE_WriteByte@bAdd^(0+1280),c
  2860  002342  0E45               	movlw	69
  2861  002344  6E03               	movwf	DATAEE_WriteByte@bData^(0+1280),c
  2862  002346  ECBD  F01E         	call	_DATAEE_WriteByte	;wreg free
  2863  00234A                     l3622:
  2864                           
  2865                           ;main.c: 418:                 if(!PORTCbits.RC4 && (++timeout5sPressed3 == 250))
  2866  00234A  B8D0               	btfsc	208,4,c	;volatile
  2867  00234C  EFAA  F011         	goto	u3781
  2868  002350  EFAC  F011         	goto	u3780
  2869  002354                     u3781:
  2870  002354  EFD9  F00C         	goto	l3334
  2871  002358                     u3780:
  2872  002358  0105               	movlb	5	; () banked
  2873  00235A  4B69               	infsnz	main@timeout5sPressed3& (0+255),f,b
  2874  00235C  2B6A               	incf	(main@timeout5sPressed3+1)& (0+255),f,b
  2875  00235E  0EFA               	movlw	250
  2876  002360  1969               	xorwf	main@timeout5sPressed3& (0+255),w,b
  2877  002362  116A               	iorwf	(main@timeout5sPressed3+1)& (0+255),w,b
  2878  002364  A4D8               	btfss	status,2,c
  2879  002366  EFB7  F011         	goto	u3791
  2880  00236A  EFB9  F011         	goto	u3790
  2881  00236E                     u3791:
  2882  00236E  EFD9  F00C         	goto	l3334
  2883  002372                     u3790:
  2884  002372                     
  2885                           ; BSR set to: 5
  2886                           ;main.c: 419:                 {;main.c: 420:                     timeout5sPressed3 = 0;
  2887  002372  0E00               	movlw	0
  2888  002374  6F6A               	movwf	(main@timeout5sPressed3+1)& (0+255),b
  2889  002376  0E00               	movlw	0
  2890  002378  6F69               	movwf	main@timeout5sPressed3& (0+255),b
  2891                           
  2892                           ;main.c: 421:                     led3Blink = 1;
  2893  00237A  0E01               	movlw	1
  2894  00237C  6F89               	movwf	main@led3Blink& (0+255),b
  2895                           
  2896                           ;main.c: 422:                     state = MANUAL;
  2897  00237E  0E00               	movlw	0
  2898  002380  6F93               	movwf	main@state& (0+255),b
  2899  002382  EF21  F011         	goto	l3588
  2900  002386                     l606:
  2901                           
  2902                           ; BSR set to: 5
  2903                           ;main.c: 432:                 if(PORTBbits.RB7)
  2904  002386  AECF               	btfss	207,7,c	;volatile
  2905  002388  EFC8  F011         	goto	u3801
  2906  00238C  EFCA  F011         	goto	u3800
  2907  002390                     u3801:
  2908  002390  EFED  F011         	goto	l3642
  2909  002394                     u3800:
  2910  002394                     
  2911                           ; BSR set to: 5
  2912                           ;main.c: 433:                 {;main.c: 434:                     LATCbits.LATC3 = 1;
  2913  002394  86C0               	bsf	192,3,c	;volatile
  2914  002396                     
  2915                           ; BSR set to: 5
  2916                           ;main.c: 435:                     LED_WriteFull(redMode4, greenMode4, blueMode4, whiteMo
      +                          de4, 300);
  2917  002396  C582  F507         	movff	main@greenMode4,LED_WriteFull@green
  2918  00239A  C583  F508         	movff	main@blueMode4,LED_WriteFull@blue
  2919  00239E  C586  F509         	movff	main@whiteMode4,LED_WriteFull@white
  2920  0023A2  0E2C               	movlw	44
  2921  0023A4  6E0A               	movwf	LED_WriteFull@ledcount^(0+1280),c
  2922  0023A6  0E01               	movlw	1
  2923  0023A8  6E0B               	movwf	(LED_WriteFull@ledcount+1)^(0+1280),c
  2924  0023AA  0E00               	movlw	0
  2925  0023AC  6E0C               	movwf	(LED_WriteFull@ledcount+2)^(0+1280),c
  2926  0023AE  5181               	movf	main@redMode4& (0+255),w,b
  2927  0023B0  EC6D  F01D         	call	_LED_WriteFull
  2928  0023B4                     
  2929                           ;main.c: 436:                     state = T4;
  2930  0023B4  0E04               	movlw	4
  2931  0023B6  0105               	movlb	5	; () banked
  2932  0023B8  6F93               	movwf	main@state& (0+255),b
  2933  0023BA                     
  2934                           ; BSR set to: 5
  2935                           ;main.c: 437:                     DATAEE_WriteByte(36, state);
  2936  0023BA  0E00               	movlw	0
  2937  0023BC  6E02               	movwf	(DATAEE_WriteByte@bAdd+1)^(0+1280),c
  2938  0023BE  0E24               	movlw	36
  2939  0023C0  6E01               	movwf	DATAEE_WriteByte@bAdd^(0+1280),c
  2940  0023C2  C593  F503         	movff	main@state,DATAEE_WriteByte@bData
  2941  0023C6  ECBD  F01E         	call	_DATAEE_WriteByte	;wreg free
  2942  0023CA                     
  2943                           ;main.c: 438:                     DATAEE_WriteByte(2, 69);
  2944  0023CA  0E00               	movlw	0
  2945  0023CC  6E02               	movwf	(DATAEE_WriteByte@bAdd+1)^(0+1280),c
  2946  0023CE  0E02               	movlw	2
  2947  0023D0  6E01               	movwf	DATAEE_WriteByte@bAdd^(0+1280),c
  2948  0023D2  0E45               	movlw	69
  2949  0023D4  6E03               	movwf	DATAEE_WriteByte@bData^(0+1280),c
  2950  0023D6  ECBD  F01E         	call	_DATAEE_WriteByte	;wreg free
  2951  0023DA                     l3642:
  2952                           
  2953                           ;main.c: 441:                 if(!PORTBbits.RB7 && (++timeout5sPressed4 == 250))
  2954  0023DA  BECF               	btfsc	207,7,c	;volatile
  2955  0023DC  EFF2  F011         	goto	u3811
  2956  0023E0  EFF4  F011         	goto	u3810
  2957  0023E4                     u3811:
  2958  0023E4  EFD9  F00C         	goto	l3334
  2959  0023E8                     u3810:
  2960  0023E8  0105               	movlb	5	; () banked
  2961  0023EA  4B6B               	infsnz	main@timeout5sPressed4& (0+255),f,b
  2962  0023EC  2B6C               	incf	(main@timeout5sPressed4+1)& (0+255),f,b
  2963  0023EE  0EFA               	movlw	250
  2964  0023F0  196B               	xorwf	main@timeout5sPressed4& (0+255),w,b
  2965  0023F2  116C               	iorwf	(main@timeout5sPressed4+1)& (0+255),w,b
  2966  0023F4  A4D8               	btfss	status,2,c
  2967  0023F6  EFFF  F011         	goto	u3821
  2968  0023FA  EF01  F012         	goto	u3820
  2969  0023FE                     u3821:
  2970  0023FE  EFD9  F00C         	goto	l3334
  2971  002402                     u3820:
  2972  002402                     
  2973                           ; BSR set to: 5
  2974                           ;main.c: 442:                 {;main.c: 443:                     timeout5sPressed4 = 0;
  2975  002402  0E00               	movlw	0
  2976  002404  6F6C               	movwf	(main@timeout5sPressed4+1)& (0+255),b
  2977  002406  0E00               	movlw	0
  2978  002408  6F6B               	movwf	main@timeout5sPressed4& (0+255),b
  2979                           
  2980                           ;main.c: 444:                     led4Blink = 1;
  2981  00240A  0E01               	movlw	1
  2982  00240C  6F8A               	movwf	main@led4Blink& (0+255),b
  2983                           
  2984                           ;main.c: 445:                     state = MANUAL;
  2985  00240E  0E00               	movlw	0
  2986  002410  6F93               	movwf	main@state& (0+255),b
  2987  002412  EF21  F011         	goto	l3588
  2988  002416                     l609:
  2989                           
  2990                           ; BSR set to: 5
  2991                           ;main.c: 456:                 if(PORTCbits.RC6)
  2992  002416  ACD0               	btfss	208,6,c	;volatile
  2993  002418  EF10  F012         	goto	u3831
  2994  00241C  EF12  F012         	goto	u3830
  2995  002420                     u3831:
  2996  002420  EF25  F012         	goto	l3660
  2997  002424                     u3830:
  2998  002424                     
  2999                           ; BSR set to: 5
  3000                           ;main.c: 457:                 {;main.c: 458:                     LATCbits.LATC7 = 0;
  3001  002424  9EC0               	bcf	192,7,c	;volatile
  3002  002426                     
  3003                           ; BSR set to: 5
  3004                           ;main.c: 459:                     state = MANUAL;
  3005  002426  0E00               	movlw	0
  3006  002428  6F93               	movwf	main@state& (0+255),b
  3007  00242A                     
  3008                           ; BSR set to: 5
  3009                           ;main.c: 460:                     DATAEE_WriteByte(36, state);
  3010  00242A  0E00               	movlw	0
  3011  00242C  6E02               	movwf	(DATAEE_WriteByte@bAdd+1)^(0+1280),c
  3012  00242E  0E24               	movlw	36
  3013  002430  6E01               	movwf	DATAEE_WriteByte@bAdd^(0+1280),c
  3014  002432  C593  F503         	movff	main@state,DATAEE_WriteByte@bData
  3015  002436  ECBD  F01E         	call	_DATAEE_WriteByte	;wreg free
  3016  00243A                     
  3017                           ;main.c: 461:                     DATAEE_WriteByte(2, 69);
  3018  00243A  0E00               	movlw	0
  3019  00243C  6E02               	movwf	(DATAEE_WriteByte@bAdd+1)^(0+1280),c
  3020  00243E  0E02               	movlw	2
  3021  002440  6E01               	movwf	DATAEE_WriteByte@bAdd^(0+1280),c
  3022  002442  0E45               	movlw	69
  3023  002444  6E03               	movwf	DATAEE_WriteByte@bData^(0+1280),c
  3024  002446  ECBD  F01E         	call	_DATAEE_WriteByte	;wreg free
  3025  00244A                     l3660:
  3026                           
  3027                           ;main.c: 464:                 if(!PORTCbits.RC6 && (++timeout5sPressed1 == 250))
  3028  00244A  BCD0               	btfsc	208,6,c	;volatile
  3029  00244C  EF2A  F012         	goto	u3841
  3030  002450  EF2C  F012         	goto	u3840
  3031  002454                     u3841:
  3032  002454  EFD9  F00C         	goto	l3334
  3033  002458                     u3840:
  3034  002458  0105               	movlb	5	; () banked
  3035  00245A  4B65               	infsnz	main@timeout5sPressed1& (0+255),f,b
  3036  00245C  2B66               	incf	(main@timeout5sPressed1+1)& (0+255),f,b
  3037  00245E  0EFA               	movlw	250
  3038  002460  1965               	xorwf	main@timeout5sPressed1& (0+255),w,b
  3039  002462  1166               	iorwf	(main@timeout5sPressed1+1)& (0+255),w,b
  3040  002464  A4D8               	btfss	status,2,c
  3041  002466  EF37  F012         	goto	u3851
  3042  00246A  EF39  F012         	goto	u3850
  3043  00246E                     u3851:
  3044  00246E  EFD9  F00C         	goto	l3334
  3045  002472                     u3850:
  3046  002472                     
  3047                           ; BSR set to: 5
  3048                           ;main.c: 465:                 {;main.c: 466:                     timeout5sPressed1 = 0;
  3049  002472  0E00               	movlw	0
  3050  002474  6F66               	movwf	(main@timeout5sPressed1+1)& (0+255),b
  3051  002476  0E00               	movlw	0
  3052  002478  6F65               	movwf	main@timeout5sPressed1& (0+255),b
  3053                           
  3054                           ;main.c: 467:                     led1StateBlink = 1;
  3055  00247A  0E01               	movlw	1
  3056  00247C  6F6D               	movwf	main@led1StateBlink& (0+255),b
  3057                           
  3058                           ;main.c: 468:                     state = T1;
  3059  00247E  0E01               	movlw	1
  3060  002480  6F93               	movwf	main@state& (0+255),b
  3061  002482  EFD9  F00C         	goto	l3334
  3062  002486                     l612:
  3063                           
  3064                           ; BSR set to: 5
  3065                           ;main.c: 477:                 if(PORTAbits.RA4)
  3066  002486  A8CE               	btfss	206,4,c	;volatile
  3067  002488  EF48  F012         	goto	u3861
  3068  00248C  EF4A  F012         	goto	u3860
  3069  002490                     u3861:
  3070  002490  EF5D  F012         	goto	l3674
  3071  002494                     u3860:
  3072  002494                     
  3073                           ; BSR set to: 5
  3074                           ;main.c: 478:                 {;main.c: 479:                     LATCbits.LATC5 = 0;
  3075  002494  9AC0               	bcf	192,5,c	;volatile
  3076  002496                     
  3077                           ; BSR set to: 5
  3078                           ;main.c: 480:                     state = MANUAL;
  3079  002496  0E00               	movlw	0
  3080  002498  6F93               	movwf	main@state& (0+255),b
  3081  00249A                     
  3082                           ; BSR set to: 5
  3083                           ;main.c: 481:                     DATAEE_WriteByte(36, state);
  3084  00249A  0E00               	movlw	0
  3085  00249C  6E02               	movwf	(DATAEE_WriteByte@bAdd+1)^(0+1280),c
  3086  00249E  0E24               	movlw	36
  3087  0024A0  6E01               	movwf	DATAEE_WriteByte@bAdd^(0+1280),c
  3088  0024A2  C593  F503         	movff	main@state,DATAEE_WriteByte@bData
  3089  0024A6  ECBD  F01E         	call	_DATAEE_WriteByte	;wreg free
  3090  0024AA                     
  3091                           ;main.c: 482:                     DATAEE_WriteByte(2, 69);
  3092  0024AA  0E00               	movlw	0
  3093  0024AC  6E02               	movwf	(DATAEE_WriteByte@bAdd+1)^(0+1280),c
  3094  0024AE  0E02               	movlw	2
  3095  0024B0  6E01               	movwf	DATAEE_WriteByte@bAdd^(0+1280),c
  3096  0024B2  0E45               	movlw	69
  3097  0024B4  6E03               	movwf	DATAEE_WriteByte@bData^(0+1280),c
  3098  0024B6  ECBD  F01E         	call	_DATAEE_WriteByte	;wreg free
  3099  0024BA                     l3674:
  3100                           
  3101                           ;main.c: 485:                 if(!PORTAbits.RA4 && (++timeout5sPressed2 == 250))
  3102  0024BA  B8CE               	btfsc	206,4,c	;volatile
  3103  0024BC  EF62  F012         	goto	u3871
  3104  0024C0  EF64  F012         	goto	u3870
  3105  0024C4                     u3871:
  3106  0024C4  EFD9  F00C         	goto	l3334
  3107  0024C8                     u3870:
  3108  0024C8  0105               	movlb	5	; () banked
  3109  0024CA  4B67               	infsnz	main@timeout5sPressed2& (0+255),f,b
  3110  0024CC  2B68               	incf	(main@timeout5sPressed2+1)& (0+255),f,b
  3111  0024CE  0EFA               	movlw	250
  3112  0024D0  1967               	xorwf	main@timeout5sPressed2& (0+255),w,b
  3113  0024D2  1168               	iorwf	(main@timeout5sPressed2+1)& (0+255),w,b
  3114  0024D4  A4D8               	btfss	status,2,c
  3115  0024D6  EF6F  F012         	goto	u3881
  3116  0024DA  EF71  F012         	goto	u3880
  3117  0024DE                     u3881:
  3118  0024DE  EFD9  F00C         	goto	l3334
  3119  0024E2                     u3880:
  3120  0024E2                     
  3121                           ; BSR set to: 5
  3122                           ;main.c: 486:                 {;main.c: 487:                     timeout5sPressed2 = 0;
  3123  0024E2  0E00               	movlw	0
  3124  0024E4  6F68               	movwf	(main@timeout5sPressed2+1)& (0+255),b
  3125  0024E6  0E00               	movlw	0
  3126  0024E8  6F67               	movwf	main@timeout5sPressed2& (0+255),b
  3127                           
  3128                           ;main.c: 488:                     led2StateBlink = 1;
  3129  0024EA  0E01               	movlw	1
  3130  0024EC  6F6E               	movwf	main@led2StateBlink& (0+255),b
  3131                           
  3132                           ;main.c: 489:                     state = T2;
  3133  0024EE  0E02               	movlw	2
  3134  0024F0  6F93               	movwf	main@state& (0+255),b
  3135  0024F2  EFD9  F00C         	goto	l3334
  3136  0024F6                     l615:
  3137                           
  3138                           ; BSR set to: 5
  3139                           ;main.c: 498:                 if(PORTCbits.RC4)
  3140  0024F6  A8D0               	btfss	208,4,c	;volatile
  3141  0024F8  EF80  F012         	goto	u3891
  3142  0024FC  EF82  F012         	goto	u3890
  3143  002500                     u3891:
  3144  002500  EF95  F012         	goto	l3688
  3145  002504                     u3890:
  3146  002504                     
  3147                           ; BSR set to: 5
  3148                           ;main.c: 499:                 {;main.c: 500:                     LATAbits.LATA5 = 0;
  3149  002504  9ABE               	bcf	190,5,c	;volatile
  3150  002506                     
  3151                           ; BSR set to: 5
  3152                           ;main.c: 501:                     state = MANUAL;
  3153  002506  0E00               	movlw	0
  3154  002508  6F93               	movwf	main@state& (0+255),b
  3155  00250A                     
  3156                           ; BSR set to: 5
  3157                           ;main.c: 502:                     DATAEE_WriteByte(36, state);
  3158  00250A  0E00               	movlw	0
  3159  00250C  6E02               	movwf	(DATAEE_WriteByte@bAdd+1)^(0+1280),c
  3160  00250E  0E24               	movlw	36
  3161  002510  6E01               	movwf	DATAEE_WriteByte@bAdd^(0+1280),c
  3162  002512  C593  F503         	movff	main@state,DATAEE_WriteByte@bData
  3163  002516  ECBD  F01E         	call	_DATAEE_WriteByte	;wreg free
  3164  00251A                     
  3165                           ;main.c: 503:                     DATAEE_WriteByte(2, 69);
  3166  00251A  0E00               	movlw	0
  3167  00251C  6E02               	movwf	(DATAEE_WriteByte@bAdd+1)^(0+1280),c
  3168  00251E  0E02               	movlw	2
  3169  002520  6E01               	movwf	DATAEE_WriteByte@bAdd^(0+1280),c
  3170  002522  0E45               	movlw	69
  3171  002524  6E03               	movwf	DATAEE_WriteByte@bData^(0+1280),c
  3172  002526  ECBD  F01E         	call	_DATAEE_WriteByte	;wreg free
  3173  00252A                     l3688:
  3174                           
  3175                           ;main.c: 506:                 if(!PORTCbits.RC4 && (++timeout5sPressed3 == 250))
  3176  00252A  B8D0               	btfsc	208,4,c	;volatile
  3177  00252C  EF9A  F012         	goto	u3901
  3178  002530  EF9C  F012         	goto	u3900
  3179  002534                     u3901:
  3180  002534  EFD9  F00C         	goto	l3334
  3181  002538                     u3900:
  3182  002538  0105               	movlb	5	; () banked
  3183  00253A  4B69               	infsnz	main@timeout5sPressed3& (0+255),f,b
  3184  00253C  2B6A               	incf	(main@timeout5sPressed3+1)& (0+255),f,b
  3185  00253E  0EFA               	movlw	250
  3186  002540  1969               	xorwf	main@timeout5sPressed3& (0+255),w,b
  3187  002542  116A               	iorwf	(main@timeout5sPressed3+1)& (0+255),w,b
  3188  002544  A4D8               	btfss	status,2,c
  3189  002546  EFA7  F012         	goto	u3911
  3190  00254A  EFA9  F012         	goto	u3910
  3191  00254E                     u3911:
  3192  00254E  EFD9  F00C         	goto	l3334
  3193  002552                     u3910:
  3194  002552                     
  3195                           ; BSR set to: 5
  3196                           ;main.c: 507:                 {;main.c: 508:                     timeout5sPressed3 = 0;
  3197  002552  0E00               	movlw	0
  3198  002554  6F6A               	movwf	(main@timeout5sPressed3+1)& (0+255),b
  3199  002556  0E00               	movlw	0
  3200  002558  6F69               	movwf	main@timeout5sPressed3& (0+255),b
  3201                           
  3202                           ;main.c: 509:                     led3StateBlink = 1;
  3203  00255A  0E01               	movlw	1
  3204  00255C  6F6F               	movwf	main@led3StateBlink& (0+255),b
  3205                           
  3206                           ;main.c: 510:                     state = T3;
  3207  00255E  0E03               	movlw	3
  3208  002560  6F93               	movwf	main@state& (0+255),b
  3209  002562  EFD9  F00C         	goto	l3334
  3210  002566                     l618:
  3211                           
  3212                           ; BSR set to: 5
  3213                           ;main.c: 519:                 if(PORTBbits.RB7)
  3214  002566  AECF               	btfss	207,7,c	;volatile
  3215  002568  EFB8  F012         	goto	u3921
  3216  00256C  EFBA  F012         	goto	u3920
  3217  002570                     u3921:
  3218  002570  EFCD  F012         	goto	l3702
  3219  002574                     u3920:
  3220  002574                     
  3221                           ; BSR set to: 5
  3222                           ;main.c: 520:                 {;main.c: 521:                     LATCbits.LATC3 = 0;
  3223  002574  96C0               	bcf	192,3,c	;volatile
  3224  002576                     
  3225                           ; BSR set to: 5
  3226                           ;main.c: 522:                     state = MANUAL;
  3227  002576  0E00               	movlw	0
  3228  002578  6F93               	movwf	main@state& (0+255),b
  3229  00257A                     
  3230                           ; BSR set to: 5
  3231                           ;main.c: 523:                     DATAEE_WriteByte(36, state);
  3232  00257A  0E00               	movlw	0
  3233  00257C  6E02               	movwf	(DATAEE_WriteByte@bAdd+1)^(0+1280),c
  3234  00257E  0E24               	movlw	36
  3235  002580  6E01               	movwf	DATAEE_WriteByte@bAdd^(0+1280),c
  3236  002582  C593  F503         	movff	main@state,DATAEE_WriteByte@bData
  3237  002586  ECBD  F01E         	call	_DATAEE_WriteByte	;wreg free
  3238  00258A                     
  3239                           ;main.c: 524:                     DATAEE_WriteByte(2, 69);
  3240  00258A  0E00               	movlw	0
  3241  00258C  6E02               	movwf	(DATAEE_WriteByte@bAdd+1)^(0+1280),c
  3242  00258E  0E02               	movlw	2
  3243  002590  6E01               	movwf	DATAEE_WriteByte@bAdd^(0+1280),c
  3244  002592  0E45               	movlw	69
  3245  002594  6E03               	movwf	DATAEE_WriteByte@bData^(0+1280),c
  3246  002596  ECBD  F01E         	call	_DATAEE_WriteByte	;wreg free
  3247  00259A                     l3702:
  3248                           
  3249                           ;main.c: 527:                 if(!PORTBbits.RB7 && (++timeout5sPressed4 == 250))
  3250  00259A  BECF               	btfsc	207,7,c	;volatile
  3251  00259C  EFD2  F012         	goto	u3931
  3252  0025A0  EFD4  F012         	goto	u3930
  3253  0025A4                     u3931:
  3254  0025A4  EFD9  F00C         	goto	l3334
  3255  0025A8                     u3930:
  3256  0025A8  0105               	movlb	5	; () banked
  3257  0025AA  4B6B               	infsnz	main@timeout5sPressed4& (0+255),f,b
  3258  0025AC  2B6C               	incf	(main@timeout5sPressed4+1)& (0+255),f,b
  3259  0025AE  0EFA               	movlw	250
  3260  0025B0  196B               	xorwf	main@timeout5sPressed4& (0+255),w,b
  3261  0025B2  116C               	iorwf	(main@timeout5sPressed4+1)& (0+255),w,b
  3262  0025B4  A4D8               	btfss	status,2,c
  3263  0025B6  EFDF  F012         	goto	u3941
  3264  0025BA  EFE1  F012         	goto	u3940
  3265  0025BE                     u3941:
  3266  0025BE  EFD9  F00C         	goto	l3334
  3267  0025C2                     u3940:
  3268  0025C2                     
  3269                           ; BSR set to: 5
  3270                           ;main.c: 528:                 {;main.c: 529:                     timeout5sPressed4 = 0;
  3271  0025C2  0E00               	movlw	0
  3272  0025C4  6F6C               	movwf	(main@timeout5sPressed4+1)& (0+255),b
  3273  0025C6  0E00               	movlw	0
  3274  0025C8  6F6B               	movwf	main@timeout5sPressed4& (0+255),b
  3275                           
  3276                           ;main.c: 530:                     led4StateBlink = 1;
  3277  0025CA  0E01               	movlw	1
  3278  0025CC  6F70               	movwf	main@led4StateBlink& (0+255),b
  3279                           
  3280                           ;main.c: 531:                     state = T4;
  3281  0025CE  0E04               	movlw	4
  3282  0025D0  6F93               	movwf	main@state& (0+255),b
  3283  0025D2  EFD9  F00C         	goto	l3334
  3284  0025D6                     l3708:
  3285                           
  3286                           ; BSR set to: 5
  3287                           ;main.c: 540:                 LED_WriteFull(redMode1,greenMode1,blueMode1, whiteMode1, 3
      +                          00);
  3288  0025D6  C58C  F507         	movff	main@greenMode1,LED_WriteFull@green
  3289  0025DA  C58D  F508         	movff	main@blueMode1,LED_WriteFull@blue
  3290  0025DE  C58E  F509         	movff	main@whiteMode1,LED_WriteFull@white
  3291  0025E2  0E2C               	movlw	44
  3292  0025E4  6E0A               	movwf	LED_WriteFull@ledcount^(0+1280),c
  3293  0025E6  0E01               	movlw	1
  3294  0025E8  6E0B               	movwf	(LED_WriteFull@ledcount+1)^(0+1280),c
  3295  0025EA  0E00               	movlw	0
  3296  0025EC  6E0C               	movwf	(LED_WriteFull@ledcount+2)^(0+1280),c
  3297  0025EE  518B               	movf	main@redMode1& (0+255),w,b
  3298  0025F0  EC6D  F01D         	call	_LED_WriteFull
  3299  0025F4                     
  3300                           ;main.c: 544:                 if(led1StateBlink && (++timeout250ms == 50))
  3301  0025F4  0105               	movlb	5	; () banked
  3302  0025F6  516D               	movf	main@led1StateBlink& (0+255),w,b
  3303  0025F8  B4D8               	btfsc	status,2,c
  3304  0025FA  EF01  F013         	goto	u3951
  3305  0025FE  EF03  F013         	goto	u3950
  3306  002602                     u3951:
  3307  002602  EF20  F013         	goto	l3718
  3308  002606                     u3950:
  3309  002606                     
  3310                           ; BSR set to: 5
  3311  002606  2B71               	incf	main@timeout250ms& (0+255),f,b
  3312  002608  0E32               	movlw	50
  3313  00260A  1971               	xorwf	main@timeout250ms& (0+255),w,b
  3314  00260C  A4D8               	btfss	status,2,c
  3315  00260E  EF0B  F013         	goto	u3961
  3316  002612  EF0D  F013         	goto	u3960
  3317  002616                     u3961:
  3318  002616  EF20  F013         	goto	l3718
  3319  00261A                     u3960:
  3320  00261A                     
  3321                           ; BSR set to: 5
  3322                           ;main.c: 545:                 {;main.c: 546:                     timeout250ms = 0;
  3323  00261A  0E00               	movlw	0
  3324  00261C  6F71               	movwf	main@timeout250ms& (0+255),b
  3325  00261E                     
  3326                           ; BSR set to: 5
  3327                           ;main.c: 547:                     LATCbits.LATC7 = !LATCbits.LATC7;
  3328  00261E  AEC0               	btfss	192,7,c	;volatile
  3329  002620  EF14  F013         	goto	u3971
  3330  002624  EF18  F013         	goto	u3970
  3331  002628                     u3971:
  3332  002628  6A2F               	clrf	??_main^(0+1280),c
  3333  00262A  2A2F               	incf	??_main^(0+1280),f,c
  3334  00262C  EF19  F013         	goto	u3988
  3335  002630                     u3970:
  3336  002630  6A2F               	clrf	??_main^(0+1280),c
  3337  002632                     u3988:
  3338  002632  322F               	rrcf	??_main^(0+1280),f,c
  3339  002634  322F               	rrcf	??_main^(0+1280),f,c
  3340  002636  50C0               	movf	192,w,c	;volatile
  3341  002638  182F               	xorwf	??_main^(0+1280),w,c
  3342  00263A  0B7F               	andlw	-129
  3343  00263C  182F               	xorwf	??_main^(0+1280),w,c
  3344  00263E  6EC0               	movwf	192,c	;volatile
  3345  002640                     l3718:
  3346                           
  3347                           ;main.c: 550:                 if(!PORTCbits.RC6 && taster1Flag && !led1StateBlink)
  3348  002640  BCD0               	btfsc	208,6,c	;volatile
  3349  002642  EF25  F013         	goto	u3991
  3350  002646  EF27  F013         	goto	u3990
  3351  00264A                     u3991:
  3352  00264A  EF3A  F013         	goto	l3726
  3353  00264E                     u3990:
  3354  00264E  0105               	movlb	5	; () banked
  3355  002650  5177               	movf	main@taster1Flag& (0+255),w,b
  3356  002652  B4D8               	btfsc	status,2,c
  3357  002654  EF2E  F013         	goto	u4001
  3358  002658  EF30  F013         	goto	u4000
  3359  00265C                     u4001:
  3360  00265C  EF3A  F013         	goto	l3726
  3361  002660                     u4000:
  3362  002660                     
  3363                           ; BSR set to: 5
  3364  002660  516D               	movf	main@led1StateBlink& (0+255),w,b
  3365  002662  A4D8               	btfss	status,2,c
  3366  002664  EF36  F013         	goto	u4011
  3367  002668  EF38  F013         	goto	u4010
  3368  00266C                     u4011:
  3369  00266C  EF3A  F013         	goto	l3726
  3370  002670                     u4010:
  3371  002670                     
  3372                           ; BSR set to: 5
  3373                           ;main.c: 551:                 {;main.c: 552:                     state = T1StateDummy;
  3374  002670  0E09               	movlw	9
  3375  002672  6F93               	movwf	main@state& (0+255),b
  3376  002674                     l3726:
  3377                           
  3378                           ;main.c: 555:                 if(!PORTCbits.RC6 && taster1Flag && led1StateBlink)
  3379  002674  BCD0               	btfsc	208,6,c	;volatile
  3380  002676  EF3F  F013         	goto	u4021
  3381  00267A  EF41  F013         	goto	u4020
  3382  00267E                     u4021:
  3383  00267E  EF85  F013         	goto	l3746
  3384  002682                     u4020:
  3385  002682  0105               	movlb	5	; () banked
  3386  002684  5177               	movf	main@taster1Flag& (0+255),w,b
  3387  002686  B4D8               	btfsc	status,2,c
  3388  002688  EF48  F013         	goto	u4031
  3389  00268C  EF4A  F013         	goto	u4030
  3390  002690                     u4031:
  3391  002690  EF85  F013         	goto	l3746
  3392  002694                     u4030:
  3393  002694                     
  3394                           ; BSR set to: 5
  3395  002694  516D               	movf	main@led1StateBlink& (0+255),w,b
  3396  002696  B4D8               	btfsc	status,2,c
  3397  002698  EF50  F013         	goto	u4041
  3398  00269C  EF52  F013         	goto	u4040
  3399  0026A0                     u4041:
  3400  0026A0  EF85  F013         	goto	l3746
  3401  0026A4                     u4040:
  3402  0026A4                     
  3403                           ; BSR set to: 5
  3404                           ;main.c: 556:                 {;main.c: 557:                     LATCbits.LATC7 = 1;
  3405  0026A4  8EC0               	bsf	192,7,c	;volatile
  3406  0026A6                     
  3407                           ; BSR set to: 5
  3408                           ;main.c: 558:                     led1StateBlink = 0;
  3409  0026A6  0E00               	movlw	0
  3410  0026A8  6F6D               	movwf	main@led1StateBlink& (0+255),b
  3411                           
  3412                           ;main.c: 559:                     redAdj = 0;
  3413  0026AA  0E00               	movlw	0
  3414  0026AC  6F73               	movwf	main@redAdj& (0+255),b
  3415                           
  3416                           ;main.c: 560:                     greenAdj = 0;
  3417  0026AE  0E00               	movlw	0
  3418  0026B0  6F74               	movwf	main@greenAdj& (0+255),b
  3419                           
  3420                           ;main.c: 561:                     blueAdj = 0;
  3421  0026B2  0E00               	movlw	0
  3422  0026B4  6F75               	movwf	main@blueAdj& (0+255),b
  3423                           
  3424                           ;main.c: 562:                     whiteAdj = 0;
  3425  0026B6  0E00               	movlw	0
  3426  0026B8  6F76               	movwf	main@whiteAdj& (0+255),b
  3427  0026BA                     
  3428                           ; BSR set to: 5
  3429                           ;main.c: 563:                     DATAEE_WriteByte(15, blueMode1);
  3430  0026BA  0E00               	movlw	0
  3431  0026BC  6E02               	movwf	(DATAEE_WriteByte@bAdd+1)^(0+1280),c
  3432  0026BE  0E0F               	movlw	15
  3433  0026C0  6E01               	movwf	DATAEE_WriteByte@bAdd^(0+1280),c
  3434  0026C2  C58D  F503         	movff	main@blueMode1,DATAEE_WriteByte@bData
  3435  0026C6  ECBD  F01E         	call	_DATAEE_WriteByte	;wreg free
  3436  0026CA                     
  3437                           ;main.c: 564:                     DATAEE_WriteByte(12, greenMode1);
  3438  0026CA  0E00               	movlw	0
  3439  0026CC  6E02               	movwf	(DATAEE_WriteByte@bAdd+1)^(0+1280),c
  3440  0026CE  0E0C               	movlw	12
  3441  0026D0  6E01               	movwf	DATAEE_WriteByte@bAdd^(0+1280),c
  3442  0026D2  C58C  F503         	movff	main@greenMode1,DATAEE_WriteByte@bData
  3443  0026D6  ECBD  F01E         	call	_DATAEE_WriteByte	;wreg free
  3444  0026DA                     
  3445                           ;main.c: 565:                     DATAEE_WriteByte(11, redMode1);
  3446  0026DA  0E00               	movlw	0
  3447  0026DC  6E02               	movwf	(DATAEE_WriteByte@bAdd+1)^(0+1280),c
  3448  0026DE  0E0B               	movlw	11
  3449  0026E0  6E01               	movwf	DATAEE_WriteByte@bAdd^(0+1280),c
  3450  0026E2  C58B  F503         	movff	main@redMode1,DATAEE_WriteByte@bData
  3451  0026E6  ECBD  F01E         	call	_DATAEE_WriteByte	;wreg free
  3452  0026EA                     
  3453                           ;main.c: 566:                     DATAEE_WriteByte(17, whiteMode1);
  3454  0026EA  0E00               	movlw	0
  3455  0026EC  6E02               	movwf	(DATAEE_WriteByte@bAdd+1)^(0+1280),c
  3456  0026EE  0E11               	movlw	17
  3457  0026F0  6E01               	movwf	DATAEE_WriteByte@bAdd^(0+1280),c
  3458  0026F2  C58E  F503         	movff	main@whiteMode1,DATAEE_WriteByte@bData
  3459  0026F6  ECBD  F01E         	call	_DATAEE_WriteByte	;wreg free
  3460  0026FA                     
  3461                           ;main.c: 567:                     DATAEE_WriteByte(3, 69);
  3462  0026FA  0E00               	movlw	0
  3463  0026FC  6E02               	movwf	(DATAEE_WriteByte@bAdd+1)^(0+1280),c
  3464  0026FE  0E03               	movlw	3
  3465  002700  6E01               	movwf	DATAEE_WriteByte@bAdd^(0+1280),c
  3466  002702  0E45               	movlw	69
  3467  002704  6E03               	movwf	DATAEE_WriteByte@bData^(0+1280),c
  3468  002706  ECBD  F01E         	call	_DATAEE_WriteByte	;wreg free
  3469  00270A                     l3746:
  3470                           
  3471                           ;main.c: 570:                 if(led1StateBlink)
  3472  00270A  0105               	movlb	5	; () banked
  3473  00270C  516D               	movf	main@led1StateBlink& (0+255),w,b
  3474  00270E  B4D8               	btfsc	status,2,c
  3475  002710  EF8C  F013         	goto	u4051
  3476  002714  EF8E  F013         	goto	u4050
  3477  002718                     u4051:
  3478  002718  EF96  F014         	goto	l625
  3479  00271C                     u4050:
  3480  00271C                     
  3481                           ; BSR set to: 5
  3482                           ;main.c: 571:                 {;main.c: 572:                     if((red >= (redMode1 - 
      +                          5) && red <= redMode1 + 5))
  3483  00271C  0EFB               	movlw	251
  3484  00271E  6E2F               	movwf	??_main^(0+1280),c
  3485  002720  0EFF               	movlw	255
  3486  002722  6E30               	movwf	(??_main+1)^(0+1280),c
  3487  002724  518B               	movf	main@redMode1& (0+255),w,b
  3488  002726  6E31               	movwf	(??_main+2)^(0+1280),c
  3489  002728  6A32               	clrf	(??_main+3)^(0+1280),c
  3490  00272A  502F               	movf	??_main^(0+1280),w,c
  3491  00272C  2631               	addwf	(??_main+2)^(0+1280),f,c
  3492  00272E  5030               	movf	(??_main+1)^(0+1280),w,c
  3493  002730  2232               	addwfc	(??_main+3)^(0+1280),f,c
  3494  002732  518F               	movf	main@red& (0+255),w,b
  3495  002734  6E33               	movwf	(??_main+4)^(0+1280),c
  3496  002736  6A34               	clrf	(??_main+5)^(0+1280),c
  3497  002738  5031               	movf	(??_main+2)^(0+1280),w,c
  3498  00273A  5C33               	subwf	(??_main+4)^(0+1280),w,c
  3499  00273C  5034               	movf	(??_main+5)^(0+1280),w,c
  3500  00273E  0A80               	xorlw	128
  3501  002740  6E35               	movwf	(??_main+6)^(0+1280),c
  3502  002742  5032               	movf	(??_main+3)^(0+1280),w,c
  3503  002744  0A80               	xorlw	128
  3504  002746  5835               	subwfb	(??_main+6)^(0+1280),w,c
  3505  002748  A0D8               	btfss	status,0,c
  3506  00274A  EFA9  F013         	goto	u4061
  3507  00274E  EFAB  F013         	goto	u4060
  3508  002752                     u4061:
  3509  002752  EFC6  F013         	goto	l626
  3510  002756                     u4060:
  3511  002756                     
  3512                           ; BSR set to: 5
  3513  002756  518F               	movf	main@red& (0+255),w,b
  3514  002758  6E2F               	movwf	??_main^(0+1280),c
  3515  00275A  6A30               	clrf	(??_main+1)^(0+1280),c
  3516  00275C  518B               	movf	main@redMode1& (0+255),w,b
  3517  00275E  6E31               	movwf	(??_main+2)^(0+1280),c
  3518  002760  6A32               	clrf	(??_main+3)^(0+1280),c
  3519  002762  0E05               	movlw	5
  3520  002764  2631               	addwf	(??_main+2)^(0+1280),f,c
  3521  002766  0E00               	movlw	0
  3522  002768  2232               	addwfc	(??_main+3)^(0+1280),f,c
  3523  00276A  502F               	movf	??_main^(0+1280),w,c
  3524  00276C  5C31               	subwf	(??_main+2)^(0+1280),w,c
  3525  00276E  5032               	movf	(??_main+3)^(0+1280),w,c
  3526  002770  0A80               	xorlw	128
  3527  002772  6E33               	movwf	(??_main+4)^(0+1280),c
  3528  002774  5030               	movf	(??_main+1)^(0+1280),w,c
  3529  002776  0A80               	xorlw	128
  3530  002778  5833               	subwfb	(??_main+4)^(0+1280),w,c
  3531  00277A  A0D8               	btfss	status,0,c
  3532  00277C  EFC2  F013         	goto	u4071
  3533  002780  EFC4  F013         	goto	u4070
  3534  002784                     u4071:
  3535  002784  EFC6  F013         	goto	l626
  3536  002788                     u4070:
  3537  002788                     
  3538                           ; BSR set to: 5
  3539                           ;main.c: 573:                     {;main.c: 574:                         redAdj = 1;
  3540  002788  0E01               	movlw	1
  3541  00278A  6F73               	movwf	main@redAdj& (0+255),b
  3542  00278C                     l626:
  3543                           
  3544                           ; BSR set to: 5
  3545                           ;main.c: 577:                     if(redAdj)
  3546  00278C  5173               	movf	main@redAdj& (0+255),w,b
  3547  00278E  B4D8               	btfsc	status,2,c
  3548  002790  EFCC  F013         	goto	u4081
  3549  002794  EFCE  F013         	goto	u4080
  3550  002798                     u4081:
  3551  002798  EFD0  F013         	goto	l3756
  3552  00279C                     u4080:
  3553  00279C                     
  3554                           ; BSR set to: 5
  3555                           ;main.c: 578:                     {;main.c: 579:                         redMode1 = red;
  3556  00279C  C58F  F58B         	movff	main@red,main@redMode1
  3557  0027A0                     l3756:
  3558                           
  3559                           ; BSR set to: 5
  3560                           ;main.c: 582:                     if((white >= (whiteMode1 - 5) && white <= whiteMode1 +
      +                           5))
  3561  0027A0  0EFB               	movlw	251
  3562  0027A2  6E2F               	movwf	??_main^(0+1280),c
  3563  0027A4  0EFF               	movlw	255
  3564  0027A6  6E30               	movwf	(??_main+1)^(0+1280),c
  3565  0027A8  518E               	movf	main@whiteMode1& (0+255),w,b
  3566  0027AA  6E31               	movwf	(??_main+2)^(0+1280),c
  3567  0027AC  6A32               	clrf	(??_main+3)^(0+1280),c
  3568  0027AE  502F               	movf	??_main^(0+1280),w,c
  3569  0027B0  2631               	addwf	(??_main+2)^(0+1280),f,c
  3570  0027B2  5030               	movf	(??_main+1)^(0+1280),w,c
  3571  0027B4  2232               	addwfc	(??_main+3)^(0+1280),f,c
  3572  0027B6  5192               	movf	main@white& (0+255),w,b
  3573  0027B8  6E33               	movwf	(??_main+4)^(0+1280),c
  3574  0027BA  6A34               	clrf	(??_main+5)^(0+1280),c
  3575  0027BC  5031               	movf	(??_main+2)^(0+1280),w,c
  3576  0027BE  5C33               	subwf	(??_main+4)^(0+1280),w,c
  3577  0027C0  5034               	movf	(??_main+5)^(0+1280),w,c
  3578  0027C2  0A80               	xorlw	128
  3579  0027C4  6E35               	movwf	(??_main+6)^(0+1280),c
  3580  0027C6  5032               	movf	(??_main+3)^(0+1280),w,c
  3581  0027C8  0A80               	xorlw	128
  3582  0027CA  5835               	subwfb	(??_main+6)^(0+1280),w,c
  3583  0027CC  A0D8               	btfss	status,0,c
  3584  0027CE  EFEB  F013         	goto	u4091
  3585  0027D2  EFED  F013         	goto	u4090
  3586  0027D6                     u4091:
  3587  0027D6  EF08  F014         	goto	l628
  3588  0027DA                     u4090:
  3589  0027DA                     
  3590                           ; BSR set to: 5
  3591  0027DA  5192               	movf	main@white& (0+255),w,b
  3592  0027DC  6E2F               	movwf	??_main^(0+1280),c
  3593  0027DE  6A30               	clrf	(??_main+1)^(0+1280),c
  3594  0027E0  518E               	movf	main@whiteMode1& (0+255),w,b
  3595  0027E2  6E31               	movwf	(??_main+2)^(0+1280),c
  3596  0027E4  6A32               	clrf	(??_main+3)^(0+1280),c
  3597  0027E6  0E05               	movlw	5
  3598  0027E8  2631               	addwf	(??_main+2)^(0+1280),f,c
  3599  0027EA  0E00               	movlw	0
  3600  0027EC  2232               	addwfc	(??_main+3)^(0+1280),f,c
  3601  0027EE  502F               	movf	??_main^(0+1280),w,c
  3602  0027F0  5C31               	subwf	(??_main+2)^(0+1280),w,c
  3603  0027F2  5032               	movf	(??_main+3)^(0+1280),w,c
  3604  0027F4  0A80               	xorlw	128
  3605  0027F6  6E33               	movwf	(??_main+4)^(0+1280),c
  3606  0027F8  5030               	movf	(??_main+1)^(0+1280),w,c
  3607  0027FA  0A80               	xorlw	128
  3608  0027FC  5833               	subwfb	(??_main+4)^(0+1280),w,c
  3609  0027FE  A0D8               	btfss	status,0,c
  3610  002800  EF04  F014         	goto	u4101
  3611  002804  EF06  F014         	goto	u4100
  3612  002808                     u4101:
  3613  002808  EF08  F014         	goto	l628
  3614  00280C                     u4100:
  3615  00280C                     
  3616                           ; BSR set to: 5
  3617                           ;main.c: 583:                     {;main.c: 584:                         whiteAdj = 1;
  3618  00280C  0E01               	movlw	1
  3619  00280E  6F76               	movwf	main@whiteAdj& (0+255),b
  3620  002810                     l628:
  3621                           
  3622                           ; BSR set to: 5
  3623                           ;main.c: 587:                     if(whiteAdj)
  3624  002810  5176               	movf	main@whiteAdj& (0+255),w,b
  3625  002812  B4D8               	btfsc	status,2,c
  3626  002814  EF0E  F014         	goto	u4111
  3627  002818  EF10  F014         	goto	u4110
  3628  00281C                     u4111:
  3629  00281C  EF12  F014         	goto	l3764
  3630  002820                     u4110:
  3631  002820                     
  3632                           ; BSR set to: 5
  3633                           ;main.c: 588:                     {;main.c: 589:                         whiteMode1 = wh
      +                          ite;
  3634  002820  C592  F58E         	movff	main@white,main@whiteMode1
  3635  002824                     l3764:
  3636                           
  3637                           ; BSR set to: 5
  3638                           ;main.c: 592:                     if((green >= (greenMode1 - 5) && green <= greenMode1 +
      +                           5))
  3639  002824  0EFB               	movlw	251
  3640  002826  6E2F               	movwf	??_main^(0+1280),c
  3641  002828  0EFF               	movlw	255
  3642  00282A  6E30               	movwf	(??_main+1)^(0+1280),c
  3643  00282C  518C               	movf	main@greenMode1& (0+255),w,b
  3644  00282E  6E31               	movwf	(??_main+2)^(0+1280),c
  3645  002830  6A32               	clrf	(??_main+3)^(0+1280),c
  3646  002832  502F               	movf	??_main^(0+1280),w,c
  3647  002834  2631               	addwf	(??_main+2)^(0+1280),f,c
  3648  002836  5030               	movf	(??_main+1)^(0+1280),w,c
  3649  002838  2232               	addwfc	(??_main+3)^(0+1280),f,c
  3650  00283A  5190               	movf	main@green& (0+255),w,b
  3651  00283C  6E33               	movwf	(??_main+4)^(0+1280),c
  3652  00283E  6A34               	clrf	(??_main+5)^(0+1280),c
  3653  002840  5031               	movf	(??_main+2)^(0+1280),w,c
  3654  002842  5C33               	subwf	(??_main+4)^(0+1280),w,c
  3655  002844  5034               	movf	(??_main+5)^(0+1280),w,c
  3656  002846  0A80               	xorlw	128
  3657  002848  6E35               	movwf	(??_main+6)^(0+1280),c
  3658  00284A  5032               	movf	(??_main+3)^(0+1280),w,c
  3659  00284C  0A80               	xorlw	128
  3660  00284E  5835               	subwfb	(??_main+6)^(0+1280),w,c
  3661  002850  A0D8               	btfss	status,0,c
  3662  002852  EF2D  F014         	goto	u4121
  3663  002856  EF2F  F014         	goto	u4120
  3664  00285A                     u4121:
  3665  00285A  EF4A  F014         	goto	l630
  3666  00285E                     u4120:
  3667  00285E                     
  3668                           ; BSR set to: 5
  3669  00285E  5190               	movf	main@green& (0+255),w,b
  3670  002860  6E2F               	movwf	??_main^(0+1280),c
  3671  002862  6A30               	clrf	(??_main+1)^(0+1280),c
  3672  002864  518C               	movf	main@greenMode1& (0+255),w,b
  3673  002866  6E31               	movwf	(??_main+2)^(0+1280),c
  3674  002868  6A32               	clrf	(??_main+3)^(0+1280),c
  3675  00286A  0E05               	movlw	5
  3676  00286C  2631               	addwf	(??_main+2)^(0+1280),f,c
  3677  00286E  0E00               	movlw	0
  3678  002870  2232               	addwfc	(??_main+3)^(0+1280),f,c
  3679  002872  502F               	movf	??_main^(0+1280),w,c
  3680  002874  5C31               	subwf	(??_main+2)^(0+1280),w,c
  3681  002876  5032               	movf	(??_main+3)^(0+1280),w,c
  3682  002878  0A80               	xorlw	128
  3683  00287A  6E33               	movwf	(??_main+4)^(0+1280),c
  3684  00287C  5030               	movf	(??_main+1)^(0+1280),w,c
  3685  00287E  0A80               	xorlw	128
  3686  002880  5833               	subwfb	(??_main+4)^(0+1280),w,c
  3687  002882  A0D8               	btfss	status,0,c
  3688  002884  EF46  F014         	goto	u4131
  3689  002888  EF48  F014         	goto	u4130
  3690  00288C                     u4131:
  3691  00288C  EF4A  F014         	goto	l630
  3692  002890                     u4130:
  3693  002890                     
  3694                           ; BSR set to: 5
  3695                           ;main.c: 593:                     {;main.c: 594:                        greenAdj = 1;
  3696  002890  0E01               	movlw	1
  3697  002892  6F74               	movwf	main@greenAdj& (0+255),b
  3698  002894                     l630:
  3699                           
  3700                           ; BSR set to: 5
  3701                           ;main.c: 597:                     if(greenAdj)
  3702  002894  5174               	movf	main@greenAdj& (0+255),w,b
  3703  002896  B4D8               	btfsc	status,2,c
  3704  002898  EF50  F014         	goto	u4141
  3705  00289C  EF52  F014         	goto	u4140
  3706  0028A0                     u4141:
  3707  0028A0  EF54  F014         	goto	l3772
  3708  0028A4                     u4140:
  3709  0028A4                     
  3710                           ; BSR set to: 5
  3711                           ;main.c: 598:                     {;main.c: 599:                         greenMode1 = gr
      +                          een;
  3712  0028A4  C590  F58C         	movff	main@green,main@greenMode1
  3713  0028A8                     l3772:
  3714                           
  3715                           ; BSR set to: 5
  3716                           ;main.c: 602:                     if((blue >= (blueMode1 - 5) && blue <= blueMode1 + 5))
  3717  0028A8  0EFB               	movlw	251
  3718  0028AA  6E2F               	movwf	??_main^(0+1280),c
  3719  0028AC  0EFF               	movlw	255
  3720  0028AE  6E30               	movwf	(??_main+1)^(0+1280),c
  3721  0028B0  518D               	movf	main@blueMode1& (0+255),w,b
  3722  0028B2  6E31               	movwf	(??_main+2)^(0+1280),c
  3723  0028B4  6A32               	clrf	(??_main+3)^(0+1280),c
  3724  0028B6  502F               	movf	??_main^(0+1280),w,c
  3725  0028B8  2631               	addwf	(??_main+2)^(0+1280),f,c
  3726  0028BA  5030               	movf	(??_main+1)^(0+1280),w,c
  3727  0028BC  2232               	addwfc	(??_main+3)^(0+1280),f,c
  3728  0028BE  5191               	movf	main@blue& (0+255),w,b
  3729  0028C0  6E33               	movwf	(??_main+4)^(0+1280),c
  3730  0028C2  6A34               	clrf	(??_main+5)^(0+1280),c
  3731  0028C4  5031               	movf	(??_main+2)^(0+1280),w,c
  3732  0028C6  5C33               	subwf	(??_main+4)^(0+1280),w,c
  3733  0028C8  5034               	movf	(??_main+5)^(0+1280),w,c
  3734  0028CA  0A80               	xorlw	128
  3735  0028CC  6E35               	movwf	(??_main+6)^(0+1280),c
  3736  0028CE  5032               	movf	(??_main+3)^(0+1280),w,c
  3737  0028D0  0A80               	xorlw	128
  3738  0028D2  5835               	subwfb	(??_main+6)^(0+1280),w,c
  3739  0028D4  A0D8               	btfss	status,0,c
  3740  0028D6  EF6F  F014         	goto	u4151
  3741  0028DA  EF71  F014         	goto	u4150
  3742  0028DE                     u4151:
  3743  0028DE  EF8C  F014         	goto	l632
  3744  0028E2                     u4150:
  3745  0028E2                     
  3746                           ; BSR set to: 5
  3747  0028E2  5191               	movf	main@blue& (0+255),w,b
  3748  0028E4  6E2F               	movwf	??_main^(0+1280),c
  3749  0028E6  6A30               	clrf	(??_main+1)^(0+1280),c
  3750  0028E8  518D               	movf	main@blueMode1& (0+255),w,b
  3751  0028EA  6E31               	movwf	(??_main+2)^(0+1280),c
  3752  0028EC  6A32               	clrf	(??_main+3)^(0+1280),c
  3753  0028EE  0E05               	movlw	5
  3754  0028F0  2631               	addwf	(??_main+2)^(0+1280),f,c
  3755  0028F2  0E00               	movlw	0
  3756  0028F4  2232               	addwfc	(??_main+3)^(0+1280),f,c
  3757  0028F6  502F               	movf	??_main^(0+1280),w,c
  3758  0028F8  5C31               	subwf	(??_main+2)^(0+1280),w,c
  3759  0028FA  5032               	movf	(??_main+3)^(0+1280),w,c
  3760  0028FC  0A80               	xorlw	128
  3761  0028FE  6E33               	movwf	(??_main+4)^(0+1280),c
  3762  002900  5030               	movf	(??_main+1)^(0+1280),w,c
  3763  002902  0A80               	xorlw	128
  3764  002904  5833               	subwfb	(??_main+4)^(0+1280),w,c
  3765  002906  A0D8               	btfss	status,0,c
  3766  002908  EF88  F014         	goto	u4161
  3767  00290C  EF8A  F014         	goto	u4160
  3768  002910                     u4161:
  3769  002910  EF8C  F014         	goto	l632
  3770  002914                     u4160:
  3771  002914                     
  3772                           ; BSR set to: 5
  3773                           ;main.c: 603:                     {;main.c: 604:                         blueAdj = 1;
  3774  002914  0E01               	movlw	1
  3775  002916  6F75               	movwf	main@blueAdj& (0+255),b
  3776  002918                     l632:
  3777                           
  3778                           ; BSR set to: 5
  3779                           ;main.c: 607:                     if(blueAdj)
  3780  002918  5175               	movf	main@blueAdj& (0+255),w,b
  3781  00291A  B4D8               	btfsc	status,2,c
  3782  00291C  EF92  F014         	goto	u4171
  3783  002920  EF94  F014         	goto	u4170
  3784  002924                     u4171:
  3785  002924  EF96  F014         	goto	l625
  3786  002928                     u4170:
  3787  002928                     
  3788                           ; BSR set to: 5
  3789                           ;main.c: 608:                     {;main.c: 609:                         blueMode1 = blu
      +                          e;
  3790  002928  C591  F58D         	movff	main@blue,main@blueMode1
  3791  00292C                     l625:
  3792                           
  3793                           ; BSR set to: 5
  3794                           ;main.c: 615:                 if(!PORTAbits.RA4 && taster2Flag)
  3795  00292C  B8CE               	btfsc	206,4,c	;volatile
  3796  00292E  EF9B  F014         	goto	u4181
  3797  002932  EF9D  F014         	goto	u4180
  3798  002936                     u4181:
  3799  002936  EFC9  F014         	goto	l3792
  3800  00293A                     u4180:
  3801  00293A                     
  3802                           ; BSR set to: 5
  3803  00293A  5178               	movf	main@taster2Flag& (0+255),w,b
  3804  00293C  B4D8               	btfsc	status,2,c
  3805  00293E  EFA3  F014         	goto	u4191
  3806  002942  EFA5  F014         	goto	u4190
  3807  002946                     u4191:
  3808  002946  EFC9  F014         	goto	l3792
  3809  00294A                     u4190:
  3810  00294A                     
  3811                           ; BSR set to: 5
  3812                           ;main.c: 616:                 {;main.c: 617:                     LATCbits.LATC7 = 0;
  3813  00294A  9EC0               	bcf	192,7,c	;volatile
  3814                           
  3815                           ;main.c: 618:                     LATCbits.LATC5 = 1;
  3816  00294C  8AC0               	bsf	192,5,c	;volatile
  3817  00294E                     
  3818                           ; BSR set to: 5
  3819                           ;main.c: 619:                     LED_WriteFull(redMode2, greenMode2, blueMode2, whiteMo
      +                          de2, 300);
  3820  00294E  C57C  F507         	movff	main@greenMode2,LED_WriteFull@green
  3821  002952  C57D  F508         	movff	main@blueMode2,LED_WriteFull@blue
  3822  002956  C584  F509         	movff	main@whiteMode2,LED_WriteFull@white
  3823  00295A  0E2C               	movlw	44
  3824  00295C  6E0A               	movwf	LED_WriteFull@ledcount^(0+1280),c
  3825  00295E  0E01               	movlw	1
  3826  002960  6E0B               	movwf	(LED_WriteFull@ledcount+1)^(0+1280),c
  3827  002962  0E00               	movlw	0
  3828  002964  6E0C               	movwf	(LED_WriteFull@ledcount+2)^(0+1280),c
  3829  002966  517B               	movf	main@redMode2& (0+255),w,b
  3830  002968  EC6D  F01D         	call	_LED_WriteFull
  3831  00296C                     
  3832                           ;main.c: 620:                     state = T2;
  3833  00296C  0E02               	movlw	2
  3834  00296E  0105               	movlb	5	; () banked
  3835  002970  6F93               	movwf	main@state& (0+255),b
  3836  002972                     
  3837                           ; BSR set to: 5
  3838                           ;main.c: 621:                     DATAEE_WriteByte(36, state);
  3839  002972  0E00               	movlw	0
  3840  002974  6E02               	movwf	(DATAEE_WriteByte@bAdd+1)^(0+1280),c
  3841  002976  0E24               	movlw	36
  3842  002978  6E01               	movwf	DATAEE_WriteByte@bAdd^(0+1280),c
  3843  00297A  C593  F503         	movff	main@state,DATAEE_WriteByte@bData
  3844  00297E  ECBD  F01E         	call	_DATAEE_WriteByte	;wreg free
  3845  002982                     
  3846                           ;main.c: 622:                     DATAEE_WriteByte(2, 69);
  3847  002982  0E00               	movlw	0
  3848  002984  6E02               	movwf	(DATAEE_WriteByte@bAdd+1)^(0+1280),c
  3849  002986  0E02               	movlw	2
  3850  002988  6E01               	movwf	DATAEE_WriteByte@bAdd^(0+1280),c
  3851  00298A  0E45               	movlw	69
  3852  00298C  6E03               	movwf	DATAEE_WriteByte@bData^(0+1280),c
  3853  00298E  ECBD  F01E         	call	_DATAEE_WriteByte	;wreg free
  3854  002992                     l3792:
  3855                           
  3856                           ;main.c: 625:                 if(!PORTCbits.RC4 && taster3Flag)
  3857  002992  B8D0               	btfsc	208,4,c	;volatile
  3858  002994  EFCE  F014         	goto	u4201
  3859  002998  EFD0  F014         	goto	u4200
  3860  00299C                     u4201:
  3861  00299C  EFFD  F014         	goto	l3806
  3862  0029A0                     u4200:
  3863  0029A0  0105               	movlb	5	; () banked
  3864  0029A2  517A               	movf	main@taster3Flag& (0+255),w,b
  3865  0029A4  B4D8               	btfsc	status,2,c
  3866  0029A6  EFD7  F014         	goto	u4211
  3867  0029AA  EFD9  F014         	goto	u4210
  3868  0029AE                     u4211:
  3869  0029AE  EFFD  F014         	goto	l3806
  3870  0029B2                     u4210:
  3871  0029B2                     
  3872                           ; BSR set to: 5
  3873                           ;main.c: 626:                 {;main.c: 627:                     LATCbits.LATC7 = 0;
  3874  0029B2  9EC0               	bcf	192,7,c	;volatile
  3875                           
  3876                           ;main.c: 628:                     LATAbits.LATA5 = 1;
  3877  0029B4  8ABE               	bsf	190,5,c	;volatile
  3878  0029B6                     
  3879                           ; BSR set to: 5
  3880                           ;main.c: 629:                     LED_WriteFull(redMode3, greenMode3, blueMode3, whiteMo
      +                          de3, 300);
  3881  0029B6  C57F  F507         	movff	main@greenMode3,LED_WriteFull@green
  3882  0029BA  C580  F508         	movff	main@blueMode3,LED_WriteFull@blue
  3883  0029BE  C585  F509         	movff	main@whiteMode3,LED_WriteFull@white
  3884  0029C2  0E2C               	movlw	44
  3885  0029C4  6E0A               	movwf	LED_WriteFull@ledcount^(0+1280),c
  3886  0029C6  0E01               	movlw	1
  3887  0029C8  6E0B               	movwf	(LED_WriteFull@ledcount+1)^(0+1280),c
  3888  0029CA  0E00               	movlw	0
  3889  0029CC  6E0C               	movwf	(LED_WriteFull@ledcount+2)^(0+1280),c
  3890  0029CE  517E               	movf	main@redMode3& (0+255),w,b
  3891  0029D0  EC6D  F01D         	call	_LED_WriteFull
  3892  0029D4                     
  3893                           ;main.c: 630:                     state = T3 ;
  3894  0029D4  0E03               	movlw	3
  3895  0029D6  0105               	movlb	5	; () banked
  3896  0029D8  6F93               	movwf	main@state& (0+255),b
  3897  0029DA                     
  3898                           ; BSR set to: 5
  3899                           ;main.c: 631:                     DATAEE_WriteByte(36, state);
  3900  0029DA  0E00               	movlw	0
  3901  0029DC  6E02               	movwf	(DATAEE_WriteByte@bAdd+1)^(0+1280),c
  3902  0029DE  0E24               	movlw	36
  3903  0029E0  6E01               	movwf	DATAEE_WriteByte@bAdd^(0+1280),c
  3904  0029E2  C593  F503         	movff	main@state,DATAEE_WriteByte@bData
  3905  0029E6  ECBD  F01E         	call	_DATAEE_WriteByte	;wreg free
  3906  0029EA                     
  3907                           ;main.c: 632:                     DATAEE_WriteByte(2, 69);
  3908  0029EA  0E00               	movlw	0
  3909  0029EC  6E02               	movwf	(DATAEE_WriteByte@bAdd+1)^(0+1280),c
  3910  0029EE  0E02               	movlw	2
  3911  0029F0  6E01               	movwf	DATAEE_WriteByte@bAdd^(0+1280),c
  3912  0029F2  0E45               	movlw	69
  3913  0029F4  6E03               	movwf	DATAEE_WriteByte@bData^(0+1280),c
  3914  0029F6  ECBD  F01E         	call	_DATAEE_WriteByte	;wreg free
  3915  0029FA                     l3806:
  3916                           
  3917                           ;main.c: 635:                 if(!PORTBbits.RB7 && taster4Flag)
  3918  0029FA  BECF               	btfsc	207,7,c	;volatile
  3919  0029FC  EF02  F015         	goto	u4221
  3920  002A00  EF04  F015         	goto	u4220
  3921  002A04                     u4221:
  3922  002A04  EFD9  F00C         	goto	l3334
  3923  002A08                     u4220:
  3924  002A08  0105               	movlb	5	; () banked
  3925  002A0A  5179               	movf	main@taster4Flag& (0+255),w,b
  3926  002A0C  B4D8               	btfsc	status,2,c
  3927  002A0E  EF0B  F015         	goto	u4231
  3928  002A12  EF0D  F015         	goto	u4230
  3929  002A16                     u4231:
  3930  002A16  EFD9  F00C         	goto	l3334
  3931  002A1A                     u4230:
  3932  002A1A                     
  3933                           ; BSR set to: 5
  3934                           ;main.c: 636:                 {;main.c: 637:                     LATCbits.LATC7 = 0;
  3935  002A1A  9EC0               	bcf	192,7,c	;volatile
  3936                           
  3937                           ;main.c: 638:                     LATCbits.LATC3 = 1;
  3938  002A1C  86C0               	bsf	192,3,c	;volatile
  3939  002A1E                     
  3940                           ; BSR set to: 5
  3941                           ;main.c: 639:                     LED_WriteFull(redMode4, greenMode4, blueMode4, whiteMo
      +                          de4, 300);
  3942  002A1E  C582  F507         	movff	main@greenMode4,LED_WriteFull@green
  3943  002A22  C583  F508         	movff	main@blueMode4,LED_WriteFull@blue
  3944  002A26  C586  F509         	movff	main@whiteMode4,LED_WriteFull@white
  3945  002A2A  0E2C               	movlw	44
  3946  002A2C  6E0A               	movwf	LED_WriteFull@ledcount^(0+1280),c
  3947  002A2E  0E01               	movlw	1
  3948  002A30  6E0B               	movwf	(LED_WriteFull@ledcount+1)^(0+1280),c
  3949  002A32  0E00               	movlw	0
  3950  002A34  6E0C               	movwf	(LED_WriteFull@ledcount+2)^(0+1280),c
  3951  002A36  5181               	movf	main@redMode4& (0+255),w,b
  3952  002A38  EC6D  F01D         	call	_LED_WriteFull
  3953  002A3C                     l3814:
  3954                           
  3955                           ;main.c: 640:                     state = T4 ;
  3956  002A3C  0E04               	movlw	4
  3957  002A3E  0105               	movlb	5	; () banked
  3958  002A40  6F93               	movwf	main@state& (0+255),b
  3959  002A42  EF21  F011         	goto	l3588
  3960  002A46                     l3820:
  3961                           
  3962                           ; BSR set to: 5
  3963                           ;main.c: 653:                 LED_WriteFull(redMode2,greenMode2,blueMode2, whiteMode2, 3
      +                          00);
  3964  002A46  C57C  F507         	movff	main@greenMode2,LED_WriteFull@green
  3965  002A4A  C57D  F508         	movff	main@blueMode2,LED_WriteFull@blue
  3966  002A4E  C584  F509         	movff	main@whiteMode2,LED_WriteFull@white
  3967  002A52  0E2C               	movlw	44
  3968  002A54  6E0A               	movwf	LED_WriteFull@ledcount^(0+1280),c
  3969  002A56  0E01               	movlw	1
  3970  002A58  6E0B               	movwf	(LED_WriteFull@ledcount+1)^(0+1280),c
  3971  002A5A  0E00               	movlw	0
  3972  002A5C  6E0C               	movwf	(LED_WriteFull@ledcount+2)^(0+1280),c
  3973  002A5E  517B               	movf	main@redMode2& (0+255),w,b
  3974  002A60  EC6D  F01D         	call	_LED_WriteFull
  3975  002A64                     
  3976                           ;main.c: 657:                 if(led2StateBlink && (++timeout250ms == 50))
  3977  002A64  0105               	movlb	5	; () banked
  3978  002A66  516E               	movf	main@led2StateBlink& (0+255),w,b
  3979  002A68  B4D8               	btfsc	status,2,c
  3980  002A6A  EF39  F015         	goto	u4241
  3981  002A6E  EF3B  F015         	goto	u4240
  3982  002A72                     u4241:
  3983  002A72  EF58  F015         	goto	l3830
  3984  002A76                     u4240:
  3985  002A76                     
  3986                           ; BSR set to: 5
  3987  002A76  2B71               	incf	main@timeout250ms& (0+255),f,b
  3988  002A78  0E32               	movlw	50
  3989  002A7A  1971               	xorwf	main@timeout250ms& (0+255),w,b
  3990  002A7C  A4D8               	btfss	status,2,c
  3991  002A7E  EF43  F015         	goto	u4251
  3992  002A82  EF45  F015         	goto	u4250
  3993  002A86                     u4251:
  3994  002A86  EF58  F015         	goto	l3830
  3995  002A8A                     u4250:
  3996  002A8A                     
  3997                           ; BSR set to: 5
  3998                           ;main.c: 658:                 {;main.c: 659:                     timeout250ms = 0;
  3999  002A8A  0E00               	movlw	0
  4000  002A8C  6F71               	movwf	main@timeout250ms& (0+255),b
  4001  002A8E                     
  4002                           ; BSR set to: 5
  4003                           ;main.c: 660:                     LATCbits.LATC5 = !LATCbits.LATC5;
  4004  002A8E  AAC0               	btfss	192,5,c	;volatile
  4005  002A90  EF4C  F015         	goto	u4261
  4006  002A94  EF50  F015         	goto	u4260
  4007  002A98                     u4261:
  4008  002A98  6A2F               	clrf	??_main^(0+1280),c
  4009  002A9A  2A2F               	incf	??_main^(0+1280),f,c
  4010  002A9C  EF51  F015         	goto	u4278
  4011  002AA0                     u4260:
  4012  002AA0  6A2F               	clrf	??_main^(0+1280),c
  4013  002AA2                     u4278:
  4014  002AA2  3A2F               	swapf	??_main^(0+1280),f,c
  4015  002AA4  462F               	rlncf	??_main^(0+1280),f,c
  4016  002AA6  50C0               	movf	192,w,c	;volatile
  4017  002AA8  182F               	xorwf	??_main^(0+1280),w,c
  4018  002AAA  0BDF               	andlw	-33
  4019  002AAC  182F               	xorwf	??_main^(0+1280),w,c
  4020  002AAE  6EC0               	movwf	192,c	;volatile
  4021  002AB0                     l3830:
  4022                           
  4023                           ;main.c: 663:                 if(!PORTAbits.RA4 && taster2Flag && !led2StateBlink)
  4024  002AB0  B8CE               	btfsc	206,4,c	;volatile
  4025  002AB2  EF5D  F015         	goto	u4281
  4026  002AB6  EF5F  F015         	goto	u4280
  4027  002ABA                     u4281:
  4028  002ABA  EF72  F015         	goto	l3838
  4029  002ABE                     u4280:
  4030  002ABE  0105               	movlb	5	; () banked
  4031  002AC0  5178               	movf	main@taster2Flag& (0+255),w,b
  4032  002AC2  B4D8               	btfsc	status,2,c
  4033  002AC4  EF66  F015         	goto	u4291
  4034  002AC8  EF68  F015         	goto	u4290
  4035  002ACC                     u4291:
  4036  002ACC  EF72  F015         	goto	l3838
  4037  002AD0                     u4290:
  4038  002AD0                     
  4039                           ; BSR set to: 5
  4040  002AD0  516E               	movf	main@led2StateBlink& (0+255),w,b
  4041  002AD2  A4D8               	btfss	status,2,c
  4042  002AD4  EF6E  F015         	goto	u4301
  4043  002AD8  EF70  F015         	goto	u4300
  4044  002ADC                     u4301:
  4045  002ADC  EF72  F015         	goto	l3838
  4046  002AE0                     u4300:
  4047  002AE0                     
  4048                           ; BSR set to: 5
  4049                           ;main.c: 664:                 {;main.c: 665:                     state = T2StateDummy;
  4050  002AE0  0E0A               	movlw	10
  4051  002AE2  6F93               	movwf	main@state& (0+255),b
  4052  002AE4                     l3838:
  4053                           
  4054                           ;main.c: 668:                 if(!PORTAbits.RA4 && taster2Flag && led2StateBlink)
  4055  002AE4  B8CE               	btfsc	206,4,c	;volatile
  4056  002AE6  EF77  F015         	goto	u4311
  4057  002AEA  EF79  F015         	goto	u4310
  4058  002AEE                     u4311:
  4059  002AEE  EFBD  F015         	goto	l3858
  4060  002AF2                     u4310:
  4061  002AF2  0105               	movlb	5	; () banked
  4062  002AF4  5178               	movf	main@taster2Flag& (0+255),w,b
  4063  002AF6  B4D8               	btfsc	status,2,c
  4064  002AF8  EF80  F015         	goto	u4321
  4065  002AFC  EF82  F015         	goto	u4320
  4066  002B00                     u4321:
  4067  002B00  EFBD  F015         	goto	l3858
  4068  002B04                     u4320:
  4069  002B04                     
  4070                           ; BSR set to: 5
  4071  002B04  516E               	movf	main@led2StateBlink& (0+255),w,b
  4072  002B06  B4D8               	btfsc	status,2,c
  4073  002B08  EF88  F015         	goto	u4331
  4074  002B0C  EF8A  F015         	goto	u4330
  4075  002B10                     u4331:
  4076  002B10  EFBD  F015         	goto	l3858
  4077  002B14                     u4330:
  4078  002B14                     
  4079                           ; BSR set to: 5
  4080                           ;main.c: 669:                 {;main.c: 670:                     LATCbits.LATC5 = 1;
  4081  002B14  8AC0               	bsf	192,5,c	;volatile
  4082  002B16                     
  4083                           ; BSR set to: 5
  4084                           ;main.c: 671:                     led2StateBlink = 0;
  4085  002B16  0E00               	movlw	0
  4086  002B18  6F6E               	movwf	main@led2StateBlink& (0+255),b
  4087                           
  4088                           ;main.c: 672:                     redAdj = 0;
  4089  002B1A  0E00               	movlw	0
  4090  002B1C  6F73               	movwf	main@redAdj& (0+255),b
  4091                           
  4092                           ;main.c: 673:                     greenAdj = 0;
  4093  002B1E  0E00               	movlw	0
  4094  002B20  6F74               	movwf	main@greenAdj& (0+255),b
  4095                           
  4096                           ;main.c: 674:                     blueAdj = 0;
  4097  002B22  0E00               	movlw	0
  4098  002B24  6F75               	movwf	main@blueAdj& (0+255),b
  4099                           
  4100                           ;main.c: 675:                     whiteAdj = 0;
  4101  002B26  0E00               	movlw	0
  4102  002B28  6F76               	movwf	main@whiteAdj& (0+255),b
  4103  002B2A                     
  4104                           ; BSR set to: 5
  4105                           ;main.c: 676:                     DATAEE_WriteByte(20, blueMode1);
  4106  002B2A  0E00               	movlw	0
  4107  002B2C  6E02               	movwf	(DATAEE_WriteByte@bAdd+1)^(0+1280),c
  4108  002B2E  0E14               	movlw	20
  4109  002B30  6E01               	movwf	DATAEE_WriteByte@bAdd^(0+1280),c
  4110  002B32  C58D  F503         	movff	main@blueMode1,DATAEE_WriteByte@bData
  4111  002B36  ECBD  F01E         	call	_DATAEE_WriteByte	;wreg free
  4112  002B3A                     
  4113                           ;main.c: 677:                     DATAEE_WriteByte(19, greenMode1);
  4114  002B3A  0E00               	movlw	0
  4115  002B3C  6E02               	movwf	(DATAEE_WriteByte@bAdd+1)^(0+1280),c
  4116  002B3E  0E13               	movlw	19
  4117  002B40  6E01               	movwf	DATAEE_WriteByte@bAdd^(0+1280),c
  4118  002B42  C58C  F503         	movff	main@greenMode1,DATAEE_WriteByte@bData
  4119  002B46  ECBD  F01E         	call	_DATAEE_WriteByte	;wreg free
  4120  002B4A                     
  4121                           ;main.c: 678:                     DATAEE_WriteByte(18, redMode1);
  4122  002B4A  0E00               	movlw	0
  4123  002B4C  6E02               	movwf	(DATAEE_WriteByte@bAdd+1)^(0+1280),c
  4124  002B4E  0E12               	movlw	18
  4125  002B50  6E01               	movwf	DATAEE_WriteByte@bAdd^(0+1280),c
  4126  002B52  C58B  F503         	movff	main@redMode1,DATAEE_WriteByte@bData
  4127  002B56  ECBD  F01E         	call	_DATAEE_WriteByte	;wreg free
  4128  002B5A                     
  4129                           ;main.c: 679:                     DATAEE_WriteByte(21, whiteMode1);
  4130  002B5A  0E00               	movlw	0
  4131  002B5C  6E02               	movwf	(DATAEE_WriteByte@bAdd+1)^(0+1280),c
  4132  002B5E  0E15               	movlw	21
  4133  002B60  6E01               	movwf	DATAEE_WriteByte@bAdd^(0+1280),c
  4134  002B62  C58E  F503         	movff	main@whiteMode1,DATAEE_WriteByte@bData
  4135  002B66  ECBD  F01E         	call	_DATAEE_WriteByte	;wreg free
  4136  002B6A                     
  4137                           ;main.c: 680:                     DATAEE_WriteByte(4, 69);
  4138  002B6A  0E00               	movlw	0
  4139  002B6C  6E02               	movwf	(DATAEE_WriteByte@bAdd+1)^(0+1280),c
  4140  002B6E  0E04               	movlw	4
  4141  002B70  6E01               	movwf	DATAEE_WriteByte@bAdd^(0+1280),c
  4142  002B72  0E45               	movlw	69
  4143  002B74  6E03               	movwf	DATAEE_WriteByte@bData^(0+1280),c
  4144  002B76  ECBD  F01E         	call	_DATAEE_WriteByte	;wreg free
  4145  002B7A                     l3858:
  4146                           
  4147                           ;main.c: 683:                 if(led2StateBlink)
  4148  002B7A  0105               	movlb	5	; () banked
  4149  002B7C  516E               	movf	main@led2StateBlink& (0+255),w,b
  4150  002B7E  B4D8               	btfsc	status,2,c
  4151  002B80  EFC4  F015         	goto	u4341
  4152  002B84  EFC6  F015         	goto	u4340
  4153  002B88                     u4341:
  4154  002B88  EFCE  F016         	goto	l641
  4155  002B8C                     u4340:
  4156  002B8C                     
  4157                           ; BSR set to: 5
  4158                           ;main.c: 684:                 {;main.c: 685:                     if((red >= (redMode2 - 
      +                          5) && red <= redMode2 + 5))
  4159  002B8C  0EFB               	movlw	251
  4160  002B8E  6E2F               	movwf	??_main^(0+1280),c
  4161  002B90  0EFF               	movlw	255
  4162  002B92  6E30               	movwf	(??_main+1)^(0+1280),c
  4163  002B94  517B               	movf	main@redMode2& (0+255),w,b
  4164  002B96  6E31               	movwf	(??_main+2)^(0+1280),c
  4165  002B98  6A32               	clrf	(??_main+3)^(0+1280),c
  4166  002B9A  502F               	movf	??_main^(0+1280),w,c
  4167  002B9C  2631               	addwf	(??_main+2)^(0+1280),f,c
  4168  002B9E  5030               	movf	(??_main+1)^(0+1280),w,c
  4169  002BA0  2232               	addwfc	(??_main+3)^(0+1280),f,c
  4170  002BA2  518F               	movf	main@red& (0+255),w,b
  4171  002BA4  6E33               	movwf	(??_main+4)^(0+1280),c
  4172  002BA6  6A34               	clrf	(??_main+5)^(0+1280),c
  4173  002BA8  5031               	movf	(??_main+2)^(0+1280),w,c
  4174  002BAA  5C33               	subwf	(??_main+4)^(0+1280),w,c
  4175  002BAC  5034               	movf	(??_main+5)^(0+1280),w,c
  4176  002BAE  0A80               	xorlw	128
  4177  002BB0  6E35               	movwf	(??_main+6)^(0+1280),c
  4178  002BB2  5032               	movf	(??_main+3)^(0+1280),w,c
  4179  002BB4  0A80               	xorlw	128
  4180  002BB6  5835               	subwfb	(??_main+6)^(0+1280),w,c
  4181  002BB8  A0D8               	btfss	status,0,c
  4182  002BBA  EFE1  F015         	goto	u4351
  4183  002BBE  EFE3  F015         	goto	u4350
  4184  002BC2                     u4351:
  4185  002BC2  EFFE  F015         	goto	l642
  4186  002BC6                     u4350:
  4187  002BC6                     
  4188                           ; BSR set to: 5
  4189  002BC6  518F               	movf	main@red& (0+255),w,b
  4190  002BC8  6E2F               	movwf	??_main^(0+1280),c
  4191  002BCA  6A30               	clrf	(??_main+1)^(0+1280),c
  4192  002BCC  517B               	movf	main@redMode2& (0+255),w,b
  4193  002BCE  6E31               	movwf	(??_main+2)^(0+1280),c
  4194  002BD0  6A32               	clrf	(??_main+3)^(0+1280),c
  4195  002BD2  0E05               	movlw	5
  4196  002BD4  2631               	addwf	(??_main+2)^(0+1280),f,c
  4197  002BD6  0E00               	movlw	0
  4198  002BD8  2232               	addwfc	(??_main+3)^(0+1280),f,c
  4199  002BDA  502F               	movf	??_main^(0+1280),w,c
  4200  002BDC  5C31               	subwf	(??_main+2)^(0+1280),w,c
  4201  002BDE  5032               	movf	(??_main+3)^(0+1280),w,c
  4202  002BE0  0A80               	xorlw	128
  4203  002BE2  6E33               	movwf	(??_main+4)^(0+1280),c
  4204  002BE4  5030               	movf	(??_main+1)^(0+1280),w,c
  4205  002BE6  0A80               	xorlw	128
  4206  002BE8  5833               	subwfb	(??_main+4)^(0+1280),w,c
  4207  002BEA  A0D8               	btfss	status,0,c
  4208  002BEC  EFFA  F015         	goto	u4361
  4209  002BF0  EFFC  F015         	goto	u4360
  4210  002BF4                     u4361:
  4211  002BF4  EFFE  F015         	goto	l642
  4212  002BF8                     u4360:
  4213  002BF8                     
  4214                           ; BSR set to: 5
  4215                           ;main.c: 686:                     {;main.c: 687:                         redAdj = 1;
  4216  002BF8  0E01               	movlw	1
  4217  002BFA  6F73               	movwf	main@redAdj& (0+255),b
  4218  002BFC                     l642:
  4219                           
  4220                           ; BSR set to: 5
  4221                           ;main.c: 690:                     if(redAdj)
  4222  002BFC  5173               	movf	main@redAdj& (0+255),w,b
  4223  002BFE  B4D8               	btfsc	status,2,c
  4224  002C00  EF04  F016         	goto	u4371
  4225  002C04  EF06  F016         	goto	u4370
  4226  002C08                     u4371:
  4227  002C08  EF08  F016         	goto	l3868
  4228  002C0C                     u4370:
  4229  002C0C                     
  4230                           ; BSR set to: 5
  4231                           ;main.c: 691:                     {;main.c: 692:                         redMode2 = red;
  4232  002C0C  C58F  F57B         	movff	main@red,main@redMode2
  4233  002C10                     l3868:
  4234                           
  4235                           ; BSR set to: 5
  4236                           ;main.c: 695:                     if((white >= (whiteMode2 - 5) && white <= whiteMode2 +
      +                           5))
  4237  002C10  0EFB               	movlw	251
  4238  002C12  6E2F               	movwf	??_main^(0+1280),c
  4239  002C14  0EFF               	movlw	255
  4240  002C16  6E30               	movwf	(??_main+1)^(0+1280),c
  4241  002C18  5184               	movf	main@whiteMode2& (0+255),w,b
  4242  002C1A  6E31               	movwf	(??_main+2)^(0+1280),c
  4243  002C1C  6A32               	clrf	(??_main+3)^(0+1280),c
  4244  002C1E  502F               	movf	??_main^(0+1280),w,c
  4245  002C20  2631               	addwf	(??_main+2)^(0+1280),f,c
  4246  002C22  5030               	movf	(??_main+1)^(0+1280),w,c
  4247  002C24  2232               	addwfc	(??_main+3)^(0+1280),f,c
  4248  002C26  5192               	movf	main@white& (0+255),w,b
  4249  002C28  6E33               	movwf	(??_main+4)^(0+1280),c
  4250  002C2A  6A34               	clrf	(??_main+5)^(0+1280),c
  4251  002C2C  5031               	movf	(??_main+2)^(0+1280),w,c
  4252  002C2E  5C33               	subwf	(??_main+4)^(0+1280),w,c
  4253  002C30  5034               	movf	(??_main+5)^(0+1280),w,c
  4254  002C32  0A80               	xorlw	128
  4255  002C34  6E35               	movwf	(??_main+6)^(0+1280),c
  4256  002C36  5032               	movf	(??_main+3)^(0+1280),w,c
  4257  002C38  0A80               	xorlw	128
  4258  002C3A  5835               	subwfb	(??_main+6)^(0+1280),w,c
  4259  002C3C  A0D8               	btfss	status,0,c
  4260  002C3E  EF23  F016         	goto	u4381
  4261  002C42  EF25  F016         	goto	u4380
  4262  002C46                     u4381:
  4263  002C46  EF40  F016         	goto	l644
  4264  002C4A                     u4380:
  4265  002C4A                     
  4266                           ; BSR set to: 5
  4267  002C4A  5192               	movf	main@white& (0+255),w,b
  4268  002C4C  6E2F               	movwf	??_main^(0+1280),c
  4269  002C4E  6A30               	clrf	(??_main+1)^(0+1280),c
  4270  002C50  5184               	movf	main@whiteMode2& (0+255),w,b
  4271  002C52  6E31               	movwf	(??_main+2)^(0+1280),c
  4272  002C54  6A32               	clrf	(??_main+3)^(0+1280),c
  4273  002C56  0E05               	movlw	5
  4274  002C58  2631               	addwf	(??_main+2)^(0+1280),f,c
  4275  002C5A  0E00               	movlw	0
  4276  002C5C  2232               	addwfc	(??_main+3)^(0+1280),f,c
  4277  002C5E  502F               	movf	??_main^(0+1280),w,c
  4278  002C60  5C31               	subwf	(??_main+2)^(0+1280),w,c
  4279  002C62  5032               	movf	(??_main+3)^(0+1280),w,c
  4280  002C64  0A80               	xorlw	128
  4281  002C66  6E33               	movwf	(??_main+4)^(0+1280),c
  4282  002C68  5030               	movf	(??_main+1)^(0+1280),w,c
  4283  002C6A  0A80               	xorlw	128
  4284  002C6C  5833               	subwfb	(??_main+4)^(0+1280),w,c
  4285  002C6E  A0D8               	btfss	status,0,c
  4286  002C70  EF3C  F016         	goto	u4391
  4287  002C74  EF3E  F016         	goto	u4390
  4288  002C78                     u4391:
  4289  002C78  EF40  F016         	goto	l644
  4290  002C7C                     u4390:
  4291  002C7C                     
  4292                           ; BSR set to: 5
  4293                           ;main.c: 696:                     {;main.c: 697:                         whiteAdj = 1;
  4294  002C7C  0E01               	movlw	1
  4295  002C7E  6F76               	movwf	main@whiteAdj& (0+255),b
  4296  002C80                     l644:
  4297                           
  4298                           ; BSR set to: 5
  4299                           ;main.c: 700:                     if(whiteAdj)
  4300  002C80  5176               	movf	main@whiteAdj& (0+255),w,b
  4301  002C82  B4D8               	btfsc	status,2,c
  4302  002C84  EF46  F016         	goto	u4401
  4303  002C88  EF48  F016         	goto	u4400
  4304  002C8C                     u4401:
  4305  002C8C  EF4A  F016         	goto	l3876
  4306  002C90                     u4400:
  4307  002C90                     
  4308                           ; BSR set to: 5
  4309                           ;main.c: 701:                     {;main.c: 702:                         whiteMode2 = wh
      +                          ite;
  4310  002C90  C592  F584         	movff	main@white,main@whiteMode2
  4311  002C94                     l3876:
  4312                           
  4313                           ; BSR set to: 5
  4314                           ;main.c: 705:                     if((green >= (greenMode2 - 5) && green <= greenMode2 +
      +                           5))
  4315  002C94  0EFB               	movlw	251
  4316  002C96  6E2F               	movwf	??_main^(0+1280),c
  4317  002C98  0EFF               	movlw	255
  4318  002C9A  6E30               	movwf	(??_main+1)^(0+1280),c
  4319  002C9C  517C               	movf	main@greenMode2& (0+255),w,b
  4320  002C9E  6E31               	movwf	(??_main+2)^(0+1280),c
  4321  002CA0  6A32               	clrf	(??_main+3)^(0+1280),c
  4322  002CA2  502F               	movf	??_main^(0+1280),w,c
  4323  002CA4  2631               	addwf	(??_main+2)^(0+1280),f,c
  4324  002CA6  5030               	movf	(??_main+1)^(0+1280),w,c
  4325  002CA8  2232               	addwfc	(??_main+3)^(0+1280),f,c
  4326  002CAA  5190               	movf	main@green& (0+255),w,b
  4327  002CAC  6E33               	movwf	(??_main+4)^(0+1280),c
  4328  002CAE  6A34               	clrf	(??_main+5)^(0+1280),c
  4329  002CB0  5031               	movf	(??_main+2)^(0+1280),w,c
  4330  002CB2  5C33               	subwf	(??_main+4)^(0+1280),w,c
  4331  002CB4  5034               	movf	(??_main+5)^(0+1280),w,c
  4332  002CB6  0A80               	xorlw	128
  4333  002CB8  6E35               	movwf	(??_main+6)^(0+1280),c
  4334  002CBA  5032               	movf	(??_main+3)^(0+1280),w,c
  4335  002CBC  0A80               	xorlw	128
  4336  002CBE  5835               	subwfb	(??_main+6)^(0+1280),w,c
  4337  002CC0  A0D8               	btfss	status,0,c
  4338  002CC2  EF65  F016         	goto	u4411
  4339  002CC6  EF67  F016         	goto	u4410
  4340  002CCA                     u4411:
  4341  002CCA  EF82  F016         	goto	l646
  4342  002CCE                     u4410:
  4343  002CCE                     
  4344                           ; BSR set to: 5
  4345  002CCE  5190               	movf	main@green& (0+255),w,b
  4346  002CD0  6E2F               	movwf	??_main^(0+1280),c
  4347  002CD2  6A30               	clrf	(??_main+1)^(0+1280),c
  4348  002CD4  517C               	movf	main@greenMode2& (0+255),w,b
  4349  002CD6  6E31               	movwf	(??_main+2)^(0+1280),c
  4350  002CD8  6A32               	clrf	(??_main+3)^(0+1280),c
  4351  002CDA  0E05               	movlw	5
  4352  002CDC  2631               	addwf	(??_main+2)^(0+1280),f,c
  4353  002CDE  0E00               	movlw	0
  4354  002CE0  2232               	addwfc	(??_main+3)^(0+1280),f,c
  4355  002CE2  502F               	movf	??_main^(0+1280),w,c
  4356  002CE4  5C31               	subwf	(??_main+2)^(0+1280),w,c
  4357  002CE6  5032               	movf	(??_main+3)^(0+1280),w,c
  4358  002CE8  0A80               	xorlw	128
  4359  002CEA  6E33               	movwf	(??_main+4)^(0+1280),c
  4360  002CEC  5030               	movf	(??_main+1)^(0+1280),w,c
  4361  002CEE  0A80               	xorlw	128
  4362  002CF0  5833               	subwfb	(??_main+4)^(0+1280),w,c
  4363  002CF2  A0D8               	btfss	status,0,c
  4364  002CF4  EF7E  F016         	goto	u4421
  4365  002CF8  EF80  F016         	goto	u4420
  4366  002CFC                     u4421:
  4367  002CFC  EF82  F016         	goto	l646
  4368  002D00                     u4420:
  4369  002D00                     
  4370                           ; BSR set to: 5
  4371                           ;main.c: 706:                     {;main.c: 707:                        greenAdj = 1;
  4372  002D00  0E01               	movlw	1
  4373  002D02  6F74               	movwf	main@greenAdj& (0+255),b
  4374  002D04                     l646:
  4375                           
  4376                           ; BSR set to: 5
  4377                           ;main.c: 710:                     if(greenAdj)
  4378  002D04  5174               	movf	main@greenAdj& (0+255),w,b
  4379  002D06  B4D8               	btfsc	status,2,c
  4380  002D08  EF88  F016         	goto	u4431
  4381  002D0C  EF8A  F016         	goto	u4430
  4382  002D10                     u4431:
  4383  002D10  EF8C  F016         	goto	l3884
  4384  002D14                     u4430:
  4385  002D14                     
  4386                           ; BSR set to: 5
  4387                           ;main.c: 711:                     {;main.c: 712:                         greenMode2 = gr
      +                          een;
  4388  002D14  C590  F57C         	movff	main@green,main@greenMode2
  4389  002D18                     l3884:
  4390                           
  4391                           ; BSR set to: 5
  4392                           ;main.c: 715:                     if((blue >= (blueMode2 - 5) && blue <= blueMode2 + 5))
  4393  002D18  0EFB               	movlw	251
  4394  002D1A  6E2F               	movwf	??_main^(0+1280),c
  4395  002D1C  0EFF               	movlw	255
  4396  002D1E  6E30               	movwf	(??_main+1)^(0+1280),c
  4397  002D20  517D               	movf	main@blueMode2& (0+255),w,b
  4398  002D22  6E31               	movwf	(??_main+2)^(0+1280),c
  4399  002D24  6A32               	clrf	(??_main+3)^(0+1280),c
  4400  002D26  502F               	movf	??_main^(0+1280),w,c
  4401  002D28  2631               	addwf	(??_main+2)^(0+1280),f,c
  4402  002D2A  5030               	movf	(??_main+1)^(0+1280),w,c
  4403  002D2C  2232               	addwfc	(??_main+3)^(0+1280),f,c
  4404  002D2E  5191               	movf	main@blue& (0+255),w,b
  4405  002D30  6E33               	movwf	(??_main+4)^(0+1280),c
  4406  002D32  6A34               	clrf	(??_main+5)^(0+1280),c
  4407  002D34  5031               	movf	(??_main+2)^(0+1280),w,c
  4408  002D36  5C33               	subwf	(??_main+4)^(0+1280),w,c
  4409  002D38  5034               	movf	(??_main+5)^(0+1280),w,c
  4410  002D3A  0A80               	xorlw	128
  4411  002D3C  6E35               	movwf	(??_main+6)^(0+1280),c
  4412  002D3E  5032               	movf	(??_main+3)^(0+1280),w,c
  4413  002D40  0A80               	xorlw	128
  4414  002D42  5835               	subwfb	(??_main+6)^(0+1280),w,c
  4415  002D44  A0D8               	btfss	status,0,c
  4416  002D46  EFA7  F016         	goto	u4441
  4417  002D4A  EFA9  F016         	goto	u4440
  4418  002D4E                     u4441:
  4419  002D4E  EFC4  F016         	goto	l648
  4420  002D52                     u4440:
  4421  002D52                     
  4422                           ; BSR set to: 5
  4423  002D52  5191               	movf	main@blue& (0+255),w,b
  4424  002D54  6E2F               	movwf	??_main^(0+1280),c
  4425  002D56  6A30               	clrf	(??_main+1)^(0+1280),c
  4426  002D58  517D               	movf	main@blueMode2& (0+255),w,b
  4427  002D5A  6E31               	movwf	(??_main+2)^(0+1280),c
  4428  002D5C  6A32               	clrf	(??_main+3)^(0+1280),c
  4429  002D5E  0E05               	movlw	5
  4430  002D60  2631               	addwf	(??_main+2)^(0+1280),f,c
  4431  002D62  0E00               	movlw	0
  4432  002D64  2232               	addwfc	(??_main+3)^(0+1280),f,c
  4433  002D66  502F               	movf	??_main^(0+1280),w,c
  4434  002D68  5C31               	subwf	(??_main+2)^(0+1280),w,c
  4435  002D6A  5032               	movf	(??_main+3)^(0+1280),w,c
  4436  002D6C  0A80               	xorlw	128
  4437  002D6E  6E33               	movwf	(??_main+4)^(0+1280),c
  4438  002D70  5030               	movf	(??_main+1)^(0+1280),w,c
  4439  002D72  0A80               	xorlw	128
  4440  002D74  5833               	subwfb	(??_main+4)^(0+1280),w,c
  4441  002D76  A0D8               	btfss	status,0,c
  4442  002D78  EFC0  F016         	goto	u4451
  4443  002D7C  EFC2  F016         	goto	u4450
  4444  002D80                     u4451:
  4445  002D80  EFC4  F016         	goto	l648
  4446  002D84                     u4450:
  4447  002D84                     
  4448                           ; BSR set to: 5
  4449                           ;main.c: 716:                     {;main.c: 717:                         blueAdj = 1;
  4450  002D84  0E01               	movlw	1
  4451  002D86  6F75               	movwf	main@blueAdj& (0+255),b
  4452  002D88                     l648:
  4453                           
  4454                           ; BSR set to: 5
  4455                           ;main.c: 720:                     if(blueAdj)
  4456  002D88  5175               	movf	main@blueAdj& (0+255),w,b
  4457  002D8A  B4D8               	btfsc	status,2,c
  4458  002D8C  EFCA  F016         	goto	u4461
  4459  002D90  EFCC  F016         	goto	u4460
  4460  002D94                     u4461:
  4461  002D94  EFCE  F016         	goto	l641
  4462  002D98                     u4460:
  4463  002D98                     
  4464                           ; BSR set to: 5
  4465                           ;main.c: 721:                     {;main.c: 722:                         blueMode2 = blu
      +                          e;
  4466  002D98  C591  F57D         	movff	main@blue,main@blueMode2
  4467  002D9C                     l641:
  4468                           
  4469                           ; BSR set to: 5
  4470                           ;main.c: 729:                 if(!PORTCbits.RC6 && taster1Flag)
  4471  002D9C  BCD0               	btfsc	208,6,c	;volatile
  4472  002D9E  EFD3  F016         	goto	u4471
  4473  002DA2  EFD5  F016         	goto	u4470
  4474  002DA6                     u4471:
  4475  002DA6  EF01  F017         	goto	l3904
  4476  002DAA                     u4470:
  4477  002DAA                     
  4478                           ; BSR set to: 5
  4479  002DAA  5177               	movf	main@taster1Flag& (0+255),w,b
  4480  002DAC  B4D8               	btfsc	status,2,c
  4481  002DAE  EFDB  F016         	goto	u4481
  4482  002DB2  EFDD  F016         	goto	u4480
  4483  002DB6                     u4481:
  4484  002DB6  EF01  F017         	goto	l3904
  4485  002DBA                     u4480:
  4486  002DBA                     
  4487                           ; BSR set to: 5
  4488                           ;main.c: 730:                 {;main.c: 731:                     LATCbits.LATC5 = 0;
  4489  002DBA  9AC0               	bcf	192,5,c	;volatile
  4490                           
  4491                           ;main.c: 732:                     LATCbits.LATC7 = 1;
  4492  002DBC  8EC0               	bsf	192,7,c	;volatile
  4493  002DBE                     
  4494                           ; BSR set to: 5
  4495                           ;main.c: 733:                     LED_WriteFull(redMode1, greenMode1, blueMode1, whiteMo
      +                          de1, 300);
  4496  002DBE  C58C  F507         	movff	main@greenMode1,LED_WriteFull@green
  4497  002DC2  C58D  F508         	movff	main@blueMode1,LED_WriteFull@blue
  4498  002DC6  C58E  F509         	movff	main@whiteMode1,LED_WriteFull@white
  4499  002DCA  0E2C               	movlw	44
  4500  002DCC  6E0A               	movwf	LED_WriteFull@ledcount^(0+1280),c
  4501  002DCE  0E01               	movlw	1
  4502  002DD0  6E0B               	movwf	(LED_WriteFull@ledcount+1)^(0+1280),c
  4503  002DD2  0E00               	movlw	0
  4504  002DD4  6E0C               	movwf	(LED_WriteFull@ledcount+2)^(0+1280),c
  4505  002DD6  518B               	movf	main@redMode1& (0+255),w,b
  4506  002DD8  EC6D  F01D         	call	_LED_WriteFull
  4507  002DDC                     
  4508                           ;main.c: 734:                     state = T1;
  4509  002DDC  0E01               	movlw	1
  4510  002DDE  0105               	movlb	5	; () banked
  4511  002DE0  6F93               	movwf	main@state& (0+255),b
  4512  002DE2                     
  4513                           ; BSR set to: 5
  4514                           ;main.c: 735:                     DATAEE_WriteByte(36, state);
  4515  002DE2  0E00               	movlw	0
  4516  002DE4  6E02               	movwf	(DATAEE_WriteByte@bAdd+1)^(0+1280),c
  4517  002DE6  0E24               	movlw	36
  4518  002DE8  6E01               	movwf	DATAEE_WriteByte@bAdd^(0+1280),c
  4519  002DEA  C593  F503         	movff	main@state,DATAEE_WriteByte@bData
  4520  002DEE  ECBD  F01E         	call	_DATAEE_WriteByte	;wreg free
  4521  002DF2                     
  4522                           ;main.c: 736:                     DATAEE_WriteByte(2, 69);
  4523  002DF2  0E00               	movlw	0
  4524  002DF4  6E02               	movwf	(DATAEE_WriteByte@bAdd+1)^(0+1280),c
  4525  002DF6  0E02               	movlw	2
  4526  002DF8  6E01               	movwf	DATAEE_WriteByte@bAdd^(0+1280),c
  4527  002DFA  0E45               	movlw	69
  4528  002DFC  6E03               	movwf	DATAEE_WriteByte@bData^(0+1280),c
  4529  002DFE  ECBD  F01E         	call	_DATAEE_WriteByte	;wreg free
  4530  002E02                     l3904:
  4531                           
  4532                           ;main.c: 740:                 if(!PORTCbits.RC4 && taster3Flag)
  4533  002E02  B8D0               	btfsc	208,4,c	;volatile
  4534  002E04  EF06  F017         	goto	u4491
  4535  002E08  EF08  F017         	goto	u4490
  4536  002E0C                     u4491:
  4537  002E0C  EF35  F017         	goto	l3918
  4538  002E10                     u4490:
  4539  002E10  0105               	movlb	5	; () banked
  4540  002E12  517A               	movf	main@taster3Flag& (0+255),w,b
  4541  002E14  B4D8               	btfsc	status,2,c
  4542  002E16  EF0F  F017         	goto	u4501
  4543  002E1A  EF11  F017         	goto	u4500
  4544  002E1E                     u4501:
  4545  002E1E  EF35  F017         	goto	l3918
  4546  002E22                     u4500:
  4547  002E22                     
  4548                           ; BSR set to: 5
  4549                           ;main.c: 741:                 {;main.c: 742:                     LATCbits.LATC5 = 0;
  4550  002E22  9AC0               	bcf	192,5,c	;volatile
  4551                           
  4552                           ;main.c: 743:                     LATAbits.LATA5 = 1;
  4553  002E24  8ABE               	bsf	190,5,c	;volatile
  4554  002E26                     
  4555                           ; BSR set to: 5
  4556                           ;main.c: 744:                     LED_WriteFull(redMode3, greenMode3, blueMode3, whiteMo
      +                          de3, 300);
  4557  002E26  C57F  F507         	movff	main@greenMode3,LED_WriteFull@green
  4558  002E2A  C580  F508         	movff	main@blueMode3,LED_WriteFull@blue
  4559  002E2E  C585  F509         	movff	main@whiteMode3,LED_WriteFull@white
  4560  002E32  0E2C               	movlw	44
  4561  002E34  6E0A               	movwf	LED_WriteFull@ledcount^(0+1280),c
  4562  002E36  0E01               	movlw	1
  4563  002E38  6E0B               	movwf	(LED_WriteFull@ledcount+1)^(0+1280),c
  4564  002E3A  0E00               	movlw	0
  4565  002E3C  6E0C               	movwf	(LED_WriteFull@ledcount+2)^(0+1280),c
  4566  002E3E  517E               	movf	main@redMode3& (0+255),w,b
  4567  002E40  EC6D  F01D         	call	_LED_WriteFull
  4568  002E44                     
  4569                           ;main.c: 745:                     state = T3 ;
  4570  002E44  0E03               	movlw	3
  4571  002E46  0105               	movlb	5	; () banked
  4572  002E48  6F93               	movwf	main@state& (0+255),b
  4573  002E4A                     
  4574                           ; BSR set to: 5
  4575                           ;main.c: 746:                     DATAEE_WriteByte(36, state);
  4576  002E4A  0E00               	movlw	0
  4577  002E4C  6E02               	movwf	(DATAEE_WriteByte@bAdd+1)^(0+1280),c
  4578  002E4E  0E24               	movlw	36
  4579  002E50  6E01               	movwf	DATAEE_WriteByte@bAdd^(0+1280),c
  4580  002E52  C593  F503         	movff	main@state,DATAEE_WriteByte@bData
  4581  002E56  ECBD  F01E         	call	_DATAEE_WriteByte	;wreg free
  4582  002E5A                     
  4583                           ;main.c: 747:                     DATAEE_WriteByte(2, 69);
  4584  002E5A  0E00               	movlw	0
  4585  002E5C  6E02               	movwf	(DATAEE_WriteByte@bAdd+1)^(0+1280),c
  4586  002E5E  0E02               	movlw	2
  4587  002E60  6E01               	movwf	DATAEE_WriteByte@bAdd^(0+1280),c
  4588  002E62  0E45               	movlw	69
  4589  002E64  6E03               	movwf	DATAEE_WriteByte@bData^(0+1280),c
  4590  002E66  ECBD  F01E         	call	_DATAEE_WriteByte	;wreg free
  4591  002E6A                     l3918:
  4592                           
  4593                           ;main.c: 750:                 if(!PORTBbits.RB7 && taster4Flag)
  4594  002E6A  BECF               	btfsc	207,7,c	;volatile
  4595  002E6C  EF3A  F017         	goto	u4511
  4596  002E70  EF3C  F017         	goto	u4510
  4597  002E74                     u4511:
  4598  002E74  EFD9  F00C         	goto	l3334
  4599  002E78                     u4510:
  4600  002E78  0105               	movlb	5	; () banked
  4601  002E7A  5179               	movf	main@taster4Flag& (0+255),w,b
  4602  002E7C  B4D8               	btfsc	status,2,c
  4603  002E7E  EF43  F017         	goto	u4521
  4604  002E82  EF45  F017         	goto	u4520
  4605  002E86                     u4521:
  4606  002E86  EFD9  F00C         	goto	l3334
  4607  002E8A                     u4520:
  4608  002E8A                     
  4609                           ; BSR set to: 5
  4610                           ;main.c: 751:                 {;main.c: 752:                     LATCbits.LATC5 = 0;
  4611  002E8A  9AC0               	bcf	192,5,c	;volatile
  4612                           
  4613                           ;main.c: 753:                     LATCbits.LATC3 = 1;
  4614  002E8C  86C0               	bsf	192,3,c	;volatile
  4615  002E8E                     
  4616                           ; BSR set to: 5
  4617                           ;main.c: 754:                     LED_WriteFull(redMode4, greenMode4, blueMode4, whiteMo
      +                          de4, 300);
  4618  002E8E  C582  F507         	movff	main@greenMode4,LED_WriteFull@green
  4619  002E92  C583  F508         	movff	main@blueMode4,LED_WriteFull@blue
  4620  002E96  C586  F509         	movff	main@whiteMode4,LED_WriteFull@white
  4621  002E9A  0E2C               	movlw	44
  4622  002E9C  6E0A               	movwf	LED_WriteFull@ledcount^(0+1280),c
  4623  002E9E  0E01               	movlw	1
  4624  002EA0  6E0B               	movwf	(LED_WriteFull@ledcount+1)^(0+1280),c
  4625  002EA2  0E00               	movlw	0
  4626  002EA4  6E0C               	movwf	(LED_WriteFull@ledcount+2)^(0+1280),c
  4627  002EA6  5181               	movf	main@redMode4& (0+255),w,b
  4628  002EA8  EC6D  F01D         	call	_LED_WriteFull
  4629  002EAC  EF1E  F015         	goto	l3814
  4630  002EB0                     l3932:
  4631                           
  4632                           ; BSR set to: 5
  4633                           ;main.c: 767:                 LED_WriteFull(redMode3,greenMode3,blueMode3, whiteMode3, 3
      +                          00);
  4634  002EB0  C57F  F507         	movff	main@greenMode3,LED_WriteFull@green
  4635  002EB4  C580  F508         	movff	main@blueMode3,LED_WriteFull@blue
  4636  002EB8  C585  F509         	movff	main@whiteMode3,LED_WriteFull@white
  4637  002EBC  0E2C               	movlw	44
  4638  002EBE  6E0A               	movwf	LED_WriteFull@ledcount^(0+1280),c
  4639  002EC0  0E01               	movlw	1
  4640  002EC2  6E0B               	movwf	(LED_WriteFull@ledcount+1)^(0+1280),c
  4641  002EC4  0E00               	movlw	0
  4642  002EC6  6E0C               	movwf	(LED_WriteFull@ledcount+2)^(0+1280),c
  4643  002EC8  517E               	movf	main@redMode3& (0+255),w,b
  4644  002ECA  EC6D  F01D         	call	_LED_WriteFull
  4645  002ECE                     
  4646                           ;main.c: 771:                 if(led3StateBlink && (++timeout250ms == 50))
  4647  002ECE  0105               	movlb	5	; () banked
  4648  002ED0  516F               	movf	main@led3StateBlink& (0+255),w,b
  4649  002ED2  B4D8               	btfsc	status,2,c
  4650  002ED4  EF6E  F017         	goto	u4531
  4651  002ED8  EF70  F017         	goto	u4530
  4652  002EDC                     u4531:
  4653  002EDC  EF8D  F017         	goto	l3942
  4654  002EE0                     u4530:
  4655  002EE0                     
  4656                           ; BSR set to: 5
  4657  002EE0  2B71               	incf	main@timeout250ms& (0+255),f,b
  4658  002EE2  0E32               	movlw	50
  4659  002EE4  1971               	xorwf	main@timeout250ms& (0+255),w,b
  4660  002EE6  A4D8               	btfss	status,2,c
  4661  002EE8  EF78  F017         	goto	u4541
  4662  002EEC  EF7A  F017         	goto	u4540
  4663  002EF0                     u4541:
  4664  002EF0  EF8D  F017         	goto	l3942
  4665  002EF4                     u4540:
  4666  002EF4                     
  4667                           ; BSR set to: 5
  4668                           ;main.c: 772:                 {;main.c: 773:                     timeout250ms = 0;
  4669  002EF4  0E00               	movlw	0
  4670  002EF6  6F71               	movwf	main@timeout250ms& (0+255),b
  4671  002EF8                     
  4672                           ; BSR set to: 5
  4673                           ;main.c: 774:                     LATAbits.LATA5 = !LATAbits.LATA5;
  4674  002EF8  AABE               	btfss	190,5,c	;volatile
  4675  002EFA  EF81  F017         	goto	u4551
  4676  002EFE  EF85  F017         	goto	u4550
  4677  002F02                     u4551:
  4678  002F02  6A2F               	clrf	??_main^(0+1280),c
  4679  002F04  2A2F               	incf	??_main^(0+1280),f,c
  4680  002F06  EF86  F017         	goto	u4568
  4681  002F0A                     u4550:
  4682  002F0A  6A2F               	clrf	??_main^(0+1280),c
  4683  002F0C                     u4568:
  4684  002F0C  3A2F               	swapf	??_main^(0+1280),f,c
  4685  002F0E  462F               	rlncf	??_main^(0+1280),f,c
  4686  002F10  50BE               	movf	190,w,c	;volatile
  4687  002F12  182F               	xorwf	??_main^(0+1280),w,c
  4688  002F14  0BDF               	andlw	-33
  4689  002F16  182F               	xorwf	??_main^(0+1280),w,c
  4690  002F18  6EBE               	movwf	190,c	;volatile
  4691  002F1A                     l3942:
  4692                           
  4693                           ;main.c: 777:                 if(!PORTCbits.RC4 && taster3Flag && !led3StateBlink)
  4694  002F1A  B8D0               	btfsc	208,4,c	;volatile
  4695  002F1C  EF92  F017         	goto	u4571
  4696  002F20  EF94  F017         	goto	u4570
  4697  002F24                     u4571:
  4698  002F24  EFA7  F017         	goto	l3950
  4699  002F28                     u4570:
  4700  002F28  0105               	movlb	5	; () banked
  4701  002F2A  517A               	movf	main@taster3Flag& (0+255),w,b
  4702  002F2C  B4D8               	btfsc	status,2,c
  4703  002F2E  EF9B  F017         	goto	u4581
  4704  002F32  EF9D  F017         	goto	u4580
  4705  002F36                     u4581:
  4706  002F36  EFA7  F017         	goto	l3950
  4707  002F3A                     u4580:
  4708  002F3A                     
  4709                           ; BSR set to: 5
  4710  002F3A  516F               	movf	main@led3StateBlink& (0+255),w,b
  4711  002F3C  A4D8               	btfss	status,2,c
  4712  002F3E  EFA3  F017         	goto	u4591
  4713  002F42  EFA5  F017         	goto	u4590
  4714  002F46                     u4591:
  4715  002F46  EFA7  F017         	goto	l3950
  4716  002F4A                     u4590:
  4717  002F4A                     
  4718                           ; BSR set to: 5
  4719                           ;main.c: 778:                 {;main.c: 779:                     state = T3StateDummy;
  4720  002F4A  0E0B               	movlw	11
  4721  002F4C  6F93               	movwf	main@state& (0+255),b
  4722  002F4E                     l3950:
  4723                           
  4724                           ;main.c: 782:                 if(!PORTCbits.RC4 && taster3Flag && led3StateBlink)
  4725  002F4E  B8D0               	btfsc	208,4,c	;volatile
  4726  002F50  EFAC  F017         	goto	u4601
  4727  002F54  EFAE  F017         	goto	u4600
  4728  002F58                     u4601:
  4729  002F58  EFF2  F017         	goto	l3970
  4730  002F5C                     u4600:
  4731  002F5C  0105               	movlb	5	; () banked
  4732  002F5E  517A               	movf	main@taster3Flag& (0+255),w,b
  4733  002F60  B4D8               	btfsc	status,2,c
  4734  002F62  EFB5  F017         	goto	u4611
  4735  002F66  EFB7  F017         	goto	u4610
  4736  002F6A                     u4611:
  4737  002F6A  EFF2  F017         	goto	l3970
  4738  002F6E                     u4610:
  4739  002F6E                     
  4740                           ; BSR set to: 5
  4741  002F6E  516F               	movf	main@led3StateBlink& (0+255),w,b
  4742  002F70  B4D8               	btfsc	status,2,c
  4743  002F72  EFBD  F017         	goto	u4621
  4744  002F76  EFBF  F017         	goto	u4620
  4745  002F7A                     u4621:
  4746  002F7A  EFF2  F017         	goto	l3970
  4747  002F7E                     u4620:
  4748  002F7E                     
  4749                           ; BSR set to: 5
  4750                           ;main.c: 783:                 {;main.c: 784:                     LATAbits.LATA5 = 1;
  4751  002F7E  8ABE               	bsf	190,5,c	;volatile
  4752  002F80                     
  4753                           ; BSR set to: 5
  4754                           ;main.c: 785:                     led3StateBlink = 0;
  4755  002F80  0E00               	movlw	0
  4756  002F82  6F6F               	movwf	main@led3StateBlink& (0+255),b
  4757                           
  4758                           ;main.c: 786:                     redAdj = 0;
  4759  002F84  0E00               	movlw	0
  4760  002F86  6F73               	movwf	main@redAdj& (0+255),b
  4761                           
  4762                           ;main.c: 787:                     greenAdj = 0;
  4763  002F88  0E00               	movlw	0
  4764  002F8A  6F74               	movwf	main@greenAdj& (0+255),b
  4765                           
  4766                           ;main.c: 788:                     blueAdj = 0;
  4767  002F8C  0E00               	movlw	0
  4768  002F8E  6F75               	movwf	main@blueAdj& (0+255),b
  4769                           
  4770                           ;main.c: 789:                     whiteAdj = 0;
  4771  002F90  0E00               	movlw	0
  4772  002F92  6F76               	movwf	main@whiteAdj& (0+255),b
  4773  002F94                     
  4774                           ; BSR set to: 5
  4775                           ;main.c: 790:                     DATAEE_WriteByte(25, blueMode1);
  4776  002F94  0E00               	movlw	0
  4777  002F96  6E02               	movwf	(DATAEE_WriteByte@bAdd+1)^(0+1280),c
  4778  002F98  0E19               	movlw	25
  4779  002F9A  6E01               	movwf	DATAEE_WriteByte@bAdd^(0+1280),c
  4780  002F9C  C58D  F503         	movff	main@blueMode1,DATAEE_WriteByte@bData
  4781  002FA0  ECBD  F01E         	call	_DATAEE_WriteByte	;wreg free
  4782  002FA4                     
  4783                           ;main.c: 791:                     DATAEE_WriteByte(24, greenMode1);
  4784  002FA4  0E00               	movlw	0
  4785  002FA6  6E02               	movwf	(DATAEE_WriteByte@bAdd+1)^(0+1280),c
  4786  002FA8  0E18               	movlw	24
  4787  002FAA  6E01               	movwf	DATAEE_WriteByte@bAdd^(0+1280),c
  4788  002FAC  C58C  F503         	movff	main@greenMode1,DATAEE_WriteByte@bData
  4789  002FB0  ECBD  F01E         	call	_DATAEE_WriteByte	;wreg free
  4790  002FB4                     
  4791                           ;main.c: 792:                     DATAEE_WriteByte(22, redMode1);
  4792  002FB4  0E00               	movlw	0
  4793  002FB6  6E02               	movwf	(DATAEE_WriteByte@bAdd+1)^(0+1280),c
  4794  002FB8  0E16               	movlw	22
  4795  002FBA  6E01               	movwf	DATAEE_WriteByte@bAdd^(0+1280),c
  4796  002FBC  C58B  F503         	movff	main@redMode1,DATAEE_WriteByte@bData
  4797  002FC0  ECBD  F01E         	call	_DATAEE_WriteByte	;wreg free
  4798  002FC4                     
  4799                           ;main.c: 793:                     DATAEE_WriteByte(27, whiteMode1);
  4800  002FC4  0E00               	movlw	0
  4801  002FC6  6E02               	movwf	(DATAEE_WriteByte@bAdd+1)^(0+1280),c
  4802  002FC8  0E1B               	movlw	27
  4803  002FCA  6E01               	movwf	DATAEE_WriteByte@bAdd^(0+1280),c
  4804  002FCC  C58E  F503         	movff	main@whiteMode1,DATAEE_WriteByte@bData
  4805  002FD0  ECBD  F01E         	call	_DATAEE_WriteByte	;wreg free
  4806  002FD4                     
  4807                           ;main.c: 794:                     DATAEE_WriteByte(6, 69);
  4808  002FD4  0E00               	movlw	0
  4809  002FD6  6E02               	movwf	(DATAEE_WriteByte@bAdd+1)^(0+1280),c
  4810  002FD8  0E06               	movlw	6
  4811  002FDA  6E01               	movwf	DATAEE_WriteByte@bAdd^(0+1280),c
  4812  002FDC  0E45               	movlw	69
  4813  002FDE  6E03               	movwf	DATAEE_WriteByte@bData^(0+1280),c
  4814  002FE0  ECBD  F01E         	call	_DATAEE_WriteByte	;wreg free
  4815  002FE4                     l3970:
  4816                           
  4817                           ;main.c: 796:                 taster3Flag = PORTCbits.RC4;
  4818  002FE4  0E00               	movlw	0
  4819  002FE6  B8D0               	btfsc	208,4,c	;volatile
  4820  002FE8  0E01               	movlw	1
  4821  002FEA  0105               	movlb	5	; () banked
  4822  002FEC  6F7A               	movwf	main@taster3Flag& (0+255),b
  4823  002FEE                     
  4824                           ; BSR set to: 5
  4825                           ;main.c: 798:                 if(led3StateBlink)
  4826  002FEE  516F               	movf	main@led3StateBlink& (0+255),w,b
  4827  002FF0  B4D8               	btfsc	status,2,c
  4828  002FF2  EFFD  F017         	goto	u4631
  4829  002FF6  EFFF  F017         	goto	u4630
  4830  002FFA                     u4631:
  4831  002FFA  EF07  F019         	goto	l657
  4832  002FFE                     u4630:
  4833  002FFE                     
  4834                           ; BSR set to: 5
  4835                           ;main.c: 799:                 {;main.c: 800:                     if((red >= (redMode3 - 
      +                          5) && red <= redMode3 + 5))
  4836  002FFE  0EFB               	movlw	251
  4837  003000  6E2F               	movwf	??_main^(0+1280),c
  4838  003002  0EFF               	movlw	255
  4839  003004  6E30               	movwf	(??_main+1)^(0+1280),c
  4840  003006  517E               	movf	main@redMode3& (0+255),w,b
  4841  003008  6E31               	movwf	(??_main+2)^(0+1280),c
  4842  00300A  6A32               	clrf	(??_main+3)^(0+1280),c
  4843  00300C  502F               	movf	??_main^(0+1280),w,c
  4844  00300E  2631               	addwf	(??_main+2)^(0+1280),f,c
  4845  003010  5030               	movf	(??_main+1)^(0+1280),w,c
  4846  003012  2232               	addwfc	(??_main+3)^(0+1280),f,c
  4847  003014  518F               	movf	main@red& (0+255),w,b
  4848  003016  6E33               	movwf	(??_main+4)^(0+1280),c
  4849  003018  6A34               	clrf	(??_main+5)^(0+1280),c
  4850  00301A  5031               	movf	(??_main+2)^(0+1280),w,c
  4851  00301C  5C33               	subwf	(??_main+4)^(0+1280),w,c
  4852  00301E  5034               	movf	(??_main+5)^(0+1280),w,c
  4853  003020  0A80               	xorlw	128
  4854  003022  6E35               	movwf	(??_main+6)^(0+1280),c
  4855  003024  5032               	movf	(??_main+3)^(0+1280),w,c
  4856  003026  0A80               	xorlw	128
  4857  003028  5835               	subwfb	(??_main+6)^(0+1280),w,c
  4858  00302A  A0D8               	btfss	status,0,c
  4859  00302C  EF1A  F018         	goto	u4641
  4860  003030  EF1C  F018         	goto	u4640
  4861  003034                     u4641:
  4862  003034  EF37  F018         	goto	l658
  4863  003038                     u4640:
  4864  003038                     
  4865                           ; BSR set to: 5
  4866  003038  518F               	movf	main@red& (0+255),w,b
  4867  00303A  6E2F               	movwf	??_main^(0+1280),c
  4868  00303C  6A30               	clrf	(??_main+1)^(0+1280),c
  4869  00303E  517E               	movf	main@redMode3& (0+255),w,b
  4870  003040  6E31               	movwf	(??_main+2)^(0+1280),c
  4871  003042  6A32               	clrf	(??_main+3)^(0+1280),c
  4872  003044  0E05               	movlw	5
  4873  003046  2631               	addwf	(??_main+2)^(0+1280),f,c
  4874  003048  0E00               	movlw	0
  4875  00304A  2232               	addwfc	(??_main+3)^(0+1280),f,c
  4876  00304C  502F               	movf	??_main^(0+1280),w,c
  4877  00304E  5C31               	subwf	(??_main+2)^(0+1280),w,c
  4878  003050  5032               	movf	(??_main+3)^(0+1280),w,c
  4879  003052  0A80               	xorlw	128
  4880  003054  6E33               	movwf	(??_main+4)^(0+1280),c
  4881  003056  5030               	movf	(??_main+1)^(0+1280),w,c
  4882  003058  0A80               	xorlw	128
  4883  00305A  5833               	subwfb	(??_main+4)^(0+1280),w,c
  4884  00305C  A0D8               	btfss	status,0,c
  4885  00305E  EF33  F018         	goto	u4651
  4886  003062  EF35  F018         	goto	u4650
  4887  003066                     u4651:
  4888  003066  EF37  F018         	goto	l658
  4889  00306A                     u4650:
  4890  00306A                     
  4891                           ; BSR set to: 5
  4892                           ;main.c: 801:                     {;main.c: 802:                         redAdj = 1;
  4893  00306A  0E01               	movlw	1
  4894  00306C  6F73               	movwf	main@redAdj& (0+255),b
  4895  00306E                     l658:
  4896                           
  4897                           ; BSR set to: 5
  4898                           ;main.c: 805:                     if(redAdj)
  4899  00306E  5173               	movf	main@redAdj& (0+255),w,b
  4900  003070  B4D8               	btfsc	status,2,c
  4901  003072  EF3D  F018         	goto	u4661
  4902  003076  EF3F  F018         	goto	u4660
  4903  00307A                     u4661:
  4904  00307A  EF41  F018         	goto	l3982
  4905  00307E                     u4660:
  4906  00307E                     
  4907                           ; BSR set to: 5
  4908                           ;main.c: 806:                     {;main.c: 807:                         redMode3 = red;
  4909  00307E  C58F  F57E         	movff	main@red,main@redMode3
  4910  003082                     l3982:
  4911                           
  4912                           ; BSR set to: 5
  4913                           ;main.c: 810:                     if((white >= (whiteMode3 - 5) && white <= whiteMode3 +
      +                           5))
  4914  003082  0EFB               	movlw	251
  4915  003084  6E2F               	movwf	??_main^(0+1280),c
  4916  003086  0EFF               	movlw	255
  4917  003088  6E30               	movwf	(??_main+1)^(0+1280),c
  4918  00308A  5185               	movf	main@whiteMode3& (0+255),w,b
  4919  00308C  6E31               	movwf	(??_main+2)^(0+1280),c
  4920  00308E  6A32               	clrf	(??_main+3)^(0+1280),c
  4921  003090  502F               	movf	??_main^(0+1280),w,c
  4922  003092  2631               	addwf	(??_main+2)^(0+1280),f,c
  4923  003094  5030               	movf	(??_main+1)^(0+1280),w,c
  4924  003096  2232               	addwfc	(??_main+3)^(0+1280),f,c
  4925  003098  5192               	movf	main@white& (0+255),w,b
  4926  00309A  6E33               	movwf	(??_main+4)^(0+1280),c
  4927  00309C  6A34               	clrf	(??_main+5)^(0+1280),c
  4928  00309E  5031               	movf	(??_main+2)^(0+1280),w,c
  4929  0030A0  5C33               	subwf	(??_main+4)^(0+1280),w,c
  4930  0030A2  5034               	movf	(??_main+5)^(0+1280),w,c
  4931  0030A4  0A80               	xorlw	128
  4932  0030A6  6E35               	movwf	(??_main+6)^(0+1280),c
  4933  0030A8  5032               	movf	(??_main+3)^(0+1280),w,c
  4934  0030AA  0A80               	xorlw	128
  4935  0030AC  5835               	subwfb	(??_main+6)^(0+1280),w,c
  4936  0030AE  A0D8               	btfss	status,0,c
  4937  0030B0  EF5C  F018         	goto	u4671
  4938  0030B4  EF5E  F018         	goto	u4670
  4939  0030B8                     u4671:
  4940  0030B8  EF79  F018         	goto	l660
  4941  0030BC                     u4670:
  4942  0030BC                     
  4943                           ; BSR set to: 5
  4944  0030BC  5192               	movf	main@white& (0+255),w,b
  4945  0030BE  6E2F               	movwf	??_main^(0+1280),c
  4946  0030C0  6A30               	clrf	(??_main+1)^(0+1280),c
  4947  0030C2  5185               	movf	main@whiteMode3& (0+255),w,b
  4948  0030C4  6E31               	movwf	(??_main+2)^(0+1280),c
  4949  0030C6  6A32               	clrf	(??_main+3)^(0+1280),c
  4950  0030C8  0E05               	movlw	5
  4951  0030CA  2631               	addwf	(??_main+2)^(0+1280),f,c
  4952  0030CC  0E00               	movlw	0
  4953  0030CE  2232               	addwfc	(??_main+3)^(0+1280),f,c
  4954  0030D0  502F               	movf	??_main^(0+1280),w,c
  4955  0030D2  5C31               	subwf	(??_main+2)^(0+1280),w,c
  4956  0030D4  5032               	movf	(??_main+3)^(0+1280),w,c
  4957  0030D6  0A80               	xorlw	128
  4958  0030D8  6E33               	movwf	(??_main+4)^(0+1280),c
  4959  0030DA  5030               	movf	(??_main+1)^(0+1280),w,c
  4960  0030DC  0A80               	xorlw	128
  4961  0030DE  5833               	subwfb	(??_main+4)^(0+1280),w,c
  4962  0030E0  A0D8               	btfss	status,0,c
  4963  0030E2  EF75  F018         	goto	u4681
  4964  0030E6  EF77  F018         	goto	u4680
  4965  0030EA                     u4681:
  4966  0030EA  EF79  F018         	goto	l660
  4967  0030EE                     u4680:
  4968  0030EE                     
  4969                           ; BSR set to: 5
  4970                           ;main.c: 811:                     {;main.c: 812:                         whiteAdj = 1;
  4971  0030EE  0E01               	movlw	1
  4972  0030F0  6F76               	movwf	main@whiteAdj& (0+255),b
  4973  0030F2                     l660:
  4974                           
  4975                           ; BSR set to: 5
  4976                           ;main.c: 815:                     if(whiteAdj)
  4977  0030F2  5176               	movf	main@whiteAdj& (0+255),w,b
  4978  0030F4  B4D8               	btfsc	status,2,c
  4979  0030F6  EF7F  F018         	goto	u4691
  4980  0030FA  EF81  F018         	goto	u4690
  4981  0030FE                     u4691:
  4982  0030FE  EF83  F018         	goto	l3990
  4983  003102                     u4690:
  4984  003102                     
  4985                           ; BSR set to: 5
  4986                           ;main.c: 816:                     {;main.c: 817:                         whiteMode3 = wh
      +                          ite;
  4987  003102  C592  F585         	movff	main@white,main@whiteMode3
  4988  003106                     l3990:
  4989                           
  4990                           ; BSR set to: 5
  4991                           ;main.c: 820:                     if((green >= (greenMode3 - 5) && green <= greenMode3 +
      +                           5))
  4992  003106  0EFB               	movlw	251
  4993  003108  6E2F               	movwf	??_main^(0+1280),c
  4994  00310A  0EFF               	movlw	255
  4995  00310C  6E30               	movwf	(??_main+1)^(0+1280),c
  4996  00310E  517F               	movf	main@greenMode3& (0+255),w,b
  4997  003110  6E31               	movwf	(??_main+2)^(0+1280),c
  4998  003112  6A32               	clrf	(??_main+3)^(0+1280),c
  4999  003114  502F               	movf	??_main^(0+1280),w,c
  5000  003116  2631               	addwf	(??_main+2)^(0+1280),f,c
  5001  003118  5030               	movf	(??_main+1)^(0+1280),w,c
  5002  00311A  2232               	addwfc	(??_main+3)^(0+1280),f,c
  5003  00311C  5190               	movf	main@green& (0+255),w,b
  5004  00311E  6E33               	movwf	(??_main+4)^(0+1280),c
  5005  003120  6A34               	clrf	(??_main+5)^(0+1280),c
  5006  003122  5031               	movf	(??_main+2)^(0+1280),w,c
  5007  003124  5C33               	subwf	(??_main+4)^(0+1280),w,c
  5008  003126  5034               	movf	(??_main+5)^(0+1280),w,c
  5009  003128  0A80               	xorlw	128
  5010  00312A  6E35               	movwf	(??_main+6)^(0+1280),c
  5011  00312C  5032               	movf	(??_main+3)^(0+1280),w,c
  5012  00312E  0A80               	xorlw	128
  5013  003130  5835               	subwfb	(??_main+6)^(0+1280),w,c
  5014  003132  A0D8               	btfss	status,0,c
  5015  003134  EF9E  F018         	goto	u4701
  5016  003138  EFA0  F018         	goto	u4700
  5017  00313C                     u4701:
  5018  00313C  EFBB  F018         	goto	l662
  5019  003140                     u4700:
  5020  003140                     
  5021                           ; BSR set to: 5
  5022  003140  5190               	movf	main@green& (0+255),w,b
  5023  003142  6E2F               	movwf	??_main^(0+1280),c
  5024  003144  6A30               	clrf	(??_main+1)^(0+1280),c
  5025  003146  517F               	movf	main@greenMode3& (0+255),w,b
  5026  003148  6E31               	movwf	(??_main+2)^(0+1280),c
  5027  00314A  6A32               	clrf	(??_main+3)^(0+1280),c
  5028  00314C  0E05               	movlw	5
  5029  00314E  2631               	addwf	(??_main+2)^(0+1280),f,c
  5030  003150  0E00               	movlw	0
  5031  003152  2232               	addwfc	(??_main+3)^(0+1280),f,c
  5032  003154  502F               	movf	??_main^(0+1280),w,c
  5033  003156  5C31               	subwf	(??_main+2)^(0+1280),w,c
  5034  003158  5032               	movf	(??_main+3)^(0+1280),w,c
  5035  00315A  0A80               	xorlw	128
  5036  00315C  6E33               	movwf	(??_main+4)^(0+1280),c
  5037  00315E  5030               	movf	(??_main+1)^(0+1280),w,c
  5038  003160  0A80               	xorlw	128
  5039  003162  5833               	subwfb	(??_main+4)^(0+1280),w,c
  5040  003164  A0D8               	btfss	status,0,c
  5041  003166  EFB7  F018         	goto	u4711
  5042  00316A  EFB9  F018         	goto	u4710
  5043  00316E                     u4711:
  5044  00316E  EFBB  F018         	goto	l662
  5045  003172                     u4710:
  5046  003172                     
  5047                           ; BSR set to: 5
  5048                           ;main.c: 821:                     {;main.c: 822:                        greenAdj = 1;
  5049  003172  0E01               	movlw	1
  5050  003174  6F74               	movwf	main@greenAdj& (0+255),b
  5051  003176                     l662:
  5052                           
  5053                           ; BSR set to: 5
  5054                           ;main.c: 825:                     if(greenAdj)
  5055  003176  5174               	movf	main@greenAdj& (0+255),w,b
  5056  003178  B4D8               	btfsc	status,2,c
  5057  00317A  EFC1  F018         	goto	u4721
  5058  00317E  EFC3  F018         	goto	u4720
  5059  003182                     u4721:
  5060  003182  EFC5  F018         	goto	l3998
  5061  003186                     u4720:
  5062  003186                     
  5063                           ; BSR set to: 5
  5064                           ;main.c: 826:                     {;main.c: 827:                         greenMode3 = gr
      +                          een;
  5065  003186  C590  F57F         	movff	main@green,main@greenMode3
  5066  00318A                     l3998:
  5067                           
  5068                           ; BSR set to: 5
  5069                           ;main.c: 830:                     if((blue >= (blueMode3 - 5) && blue <= blueMode3 + 5))
  5070  00318A  0EFB               	movlw	251
  5071  00318C  6E2F               	movwf	??_main^(0+1280),c
  5072  00318E  0EFF               	movlw	255
  5073  003190  6E30               	movwf	(??_main+1)^(0+1280),c
  5074  003192  5180               	movf	main@blueMode3& (0+255),w,b
  5075  003194  6E31               	movwf	(??_main+2)^(0+1280),c
  5076  003196  6A32               	clrf	(??_main+3)^(0+1280),c
  5077  003198  502F               	movf	??_main^(0+1280),w,c
  5078  00319A  2631               	addwf	(??_main+2)^(0+1280),f,c
  5079  00319C  5030               	movf	(??_main+1)^(0+1280),w,c
  5080  00319E  2232               	addwfc	(??_main+3)^(0+1280),f,c
  5081  0031A0  5191               	movf	main@blue& (0+255),w,b
  5082  0031A2  6E33               	movwf	(??_main+4)^(0+1280),c
  5083  0031A4  6A34               	clrf	(??_main+5)^(0+1280),c
  5084  0031A6  5031               	movf	(??_main+2)^(0+1280),w,c
  5085  0031A8  5C33               	subwf	(??_main+4)^(0+1280),w,c
  5086  0031AA  5034               	movf	(??_main+5)^(0+1280),w,c
  5087  0031AC  0A80               	xorlw	128
  5088  0031AE  6E35               	movwf	(??_main+6)^(0+1280),c
  5089  0031B0  5032               	movf	(??_main+3)^(0+1280),w,c
  5090  0031B2  0A80               	xorlw	128
  5091  0031B4  5835               	subwfb	(??_main+6)^(0+1280),w,c
  5092  0031B6  A0D8               	btfss	status,0,c
  5093  0031B8  EFE0  F018         	goto	u4731
  5094  0031BC  EFE2  F018         	goto	u4730
  5095  0031C0                     u4731:
  5096  0031C0  EFFD  F018         	goto	l664
  5097  0031C4                     u4730:
  5098  0031C4                     
  5099                           ; BSR set to: 5
  5100  0031C4  5191               	movf	main@blue& (0+255),w,b
  5101  0031C6  6E2F               	movwf	??_main^(0+1280),c
  5102  0031C8  6A30               	clrf	(??_main+1)^(0+1280),c
  5103  0031CA  5180               	movf	main@blueMode3& (0+255),w,b
  5104  0031CC  6E31               	movwf	(??_main+2)^(0+1280),c
  5105  0031CE  6A32               	clrf	(??_main+3)^(0+1280),c
  5106  0031D0  0E05               	movlw	5
  5107  0031D2  2631               	addwf	(??_main+2)^(0+1280),f,c
  5108  0031D4  0E00               	movlw	0
  5109  0031D6  2232               	addwfc	(??_main+3)^(0+1280),f,c
  5110  0031D8  502F               	movf	??_main^(0+1280),w,c
  5111  0031DA  5C31               	subwf	(??_main+2)^(0+1280),w,c
  5112  0031DC  5032               	movf	(??_main+3)^(0+1280),w,c
  5113  0031DE  0A80               	xorlw	128
  5114  0031E0  6E33               	movwf	(??_main+4)^(0+1280),c
  5115  0031E2  5030               	movf	(??_main+1)^(0+1280),w,c
  5116  0031E4  0A80               	xorlw	128
  5117  0031E6  5833               	subwfb	(??_main+4)^(0+1280),w,c
  5118  0031E8  A0D8               	btfss	status,0,c
  5119  0031EA  EFF9  F018         	goto	u4741
  5120  0031EE  EFFB  F018         	goto	u4740
  5121  0031F2                     u4741:
  5122  0031F2  EFFD  F018         	goto	l664
  5123  0031F6                     u4740:
  5124  0031F6                     
  5125                           ; BSR set to: 5
  5126                           ;main.c: 831:                     {;main.c: 832:                         blueAdj = 1;
  5127  0031F6  0E01               	movlw	1
  5128  0031F8  6F75               	movwf	main@blueAdj& (0+255),b
  5129  0031FA                     l664:
  5130                           
  5131                           ; BSR set to: 5
  5132                           ;main.c: 835:                     if(blueAdj)
  5133  0031FA  5175               	movf	main@blueAdj& (0+255),w,b
  5134  0031FC  B4D8               	btfsc	status,2,c
  5135  0031FE  EF03  F019         	goto	u4751
  5136  003202  EF05  F019         	goto	u4750
  5137  003206                     u4751:
  5138  003206  EF07  F019         	goto	l657
  5139  00320A                     u4750:
  5140  00320A                     
  5141                           ; BSR set to: 5
  5142                           ;main.c: 836:                     {;main.c: 837:                         blueMode3 = blu
      +                          e;
  5143  00320A  C591  F580         	movff	main@blue,main@blueMode3
  5144  00320E                     l657:
  5145                           
  5146                           ; BSR set to: 5
  5147                           ;main.c: 843:                 if(!PORTCbits.RC6 && taster1Flag)
  5148  00320E  BCD0               	btfsc	208,6,c	;volatile
  5149  003210  EF0C  F019         	goto	u4761
  5150  003214  EF0E  F019         	goto	u4760
  5151  003218                     u4761:
  5152  003218  EF3A  F019         	goto	l4018
  5153  00321C                     u4760:
  5154  00321C                     
  5155                           ; BSR set to: 5
  5156  00321C  5177               	movf	main@taster1Flag& (0+255),w,b
  5157  00321E  B4D8               	btfsc	status,2,c
  5158  003220  EF14  F019         	goto	u4771
  5159  003224  EF16  F019         	goto	u4770
  5160  003228                     u4771:
  5161  003228  EF3A  F019         	goto	l4018
  5162  00322C                     u4770:
  5163  00322C                     
  5164                           ; BSR set to: 5
  5165                           ;main.c: 844:                 {;main.c: 845:                     LATAbits.LATA5 = 0;
  5166  00322C  9ABE               	bcf	190,5,c	;volatile
  5167                           
  5168                           ;main.c: 846:                     LATCbits.LATC7 = 1;
  5169  00322E  8EC0               	bsf	192,7,c	;volatile
  5170  003230                     
  5171                           ; BSR set to: 5
  5172                           ;main.c: 847:                     LED_WriteFull(redMode1, greenMode1, blueMode1, whiteMo
      +                          de1, 300);
  5173  003230  C58C  F507         	movff	main@greenMode1,LED_WriteFull@green
  5174  003234  C58D  F508         	movff	main@blueMode1,LED_WriteFull@blue
  5175  003238  C58E  F509         	movff	main@whiteMode1,LED_WriteFull@white
  5176  00323C  0E2C               	movlw	44
  5177  00323E  6E0A               	movwf	LED_WriteFull@ledcount^(0+1280),c
  5178  003240  0E01               	movlw	1
  5179  003242  6E0B               	movwf	(LED_WriteFull@ledcount+1)^(0+1280),c
  5180  003244  0E00               	movlw	0
  5181  003246  6E0C               	movwf	(LED_WriteFull@ledcount+2)^(0+1280),c
  5182  003248  518B               	movf	main@redMode1& (0+255),w,b
  5183  00324A  EC6D  F01D         	call	_LED_WriteFull
  5184  00324E                     
  5185                           ;main.c: 848:                     state = T1;
  5186  00324E  0E01               	movlw	1
  5187  003250  0105               	movlb	5	; () banked
  5188  003252  6F93               	movwf	main@state& (0+255),b
  5189  003254                     
  5190                           ; BSR set to: 5
  5191                           ;main.c: 849:                     DATAEE_WriteByte(36, state);
  5192  003254  0E00               	movlw	0
  5193  003256  6E02               	movwf	(DATAEE_WriteByte@bAdd+1)^(0+1280),c
  5194  003258  0E24               	movlw	36
  5195  00325A  6E01               	movwf	DATAEE_WriteByte@bAdd^(0+1280),c
  5196  00325C  C593  F503         	movff	main@state,DATAEE_WriteByte@bData
  5197  003260  ECBD  F01E         	call	_DATAEE_WriteByte	;wreg free
  5198  003264                     
  5199                           ;main.c: 850:                     DATAEE_WriteByte(2, 69);
  5200  003264  0E00               	movlw	0
  5201  003266  6E02               	movwf	(DATAEE_WriteByte@bAdd+1)^(0+1280),c
  5202  003268  0E02               	movlw	2
  5203  00326A  6E01               	movwf	DATAEE_WriteByte@bAdd^(0+1280),c
  5204  00326C  0E45               	movlw	69
  5205  00326E  6E03               	movwf	DATAEE_WriteByte@bData^(0+1280),c
  5206  003270  ECBD  F01E         	call	_DATAEE_WriteByte	;wreg free
  5207  003274                     l4018:
  5208                           
  5209                           ;main.c: 854:                 if(!PORTAbits.RA4 && taster2Flag)
  5210  003274  B8CE               	btfsc	206,4,c	;volatile
  5211  003276  EF3F  F019         	goto	u4781
  5212  00327A  EF41  F019         	goto	u4780
  5213  00327E                     u4781:
  5214  00327E  EF6E  F019         	goto	l4032
  5215  003282                     u4780:
  5216  003282  0105               	movlb	5	; () banked
  5217  003284  5178               	movf	main@taster2Flag& (0+255),w,b
  5218  003286  B4D8               	btfsc	status,2,c
  5219  003288  EF48  F019         	goto	u4791
  5220  00328C  EF4A  F019         	goto	u4790
  5221  003290                     u4791:
  5222  003290  EF6E  F019         	goto	l4032
  5223  003294                     u4790:
  5224  003294                     
  5225                           ; BSR set to: 5
  5226                           ;main.c: 855:                 {;main.c: 856:                     LATAbits.LATA5 = 0;
  5227  003294  9ABE               	bcf	190,5,c	;volatile
  5228                           
  5229                           ;main.c: 857:                     LATCbits.LATC5 = 1;
  5230  003296  8AC0               	bsf	192,5,c	;volatile
  5231  003298                     
  5232                           ; BSR set to: 5
  5233                           ;main.c: 858:                     LED_WriteFull(redMode2, greenMode2, blueMode2, whiteMo
      +                          de2, 300);
  5234  003298  C57C  F507         	movff	main@greenMode2,LED_WriteFull@green
  5235  00329C  C57D  F508         	movff	main@blueMode2,LED_WriteFull@blue
  5236  0032A0  C584  F509         	movff	main@whiteMode2,LED_WriteFull@white
  5237  0032A4  0E2C               	movlw	44
  5238  0032A6  6E0A               	movwf	LED_WriteFull@ledcount^(0+1280),c
  5239  0032A8  0E01               	movlw	1
  5240  0032AA  6E0B               	movwf	(LED_WriteFull@ledcount+1)^(0+1280),c
  5241  0032AC  0E00               	movlw	0
  5242  0032AE  6E0C               	movwf	(LED_WriteFull@ledcount+2)^(0+1280),c
  5243  0032B0  517B               	movf	main@redMode2& (0+255),w,b
  5244  0032B2  EC6D  F01D         	call	_LED_WriteFull
  5245  0032B6                     
  5246                           ;main.c: 859:                     state = T2;
  5247  0032B6  0E02               	movlw	2
  5248  0032B8  0105               	movlb	5	; () banked
  5249  0032BA  6F93               	movwf	main@state& (0+255),b
  5250  0032BC                     
  5251                           ; BSR set to: 5
  5252                           ;main.c: 860:                     DATAEE_WriteByte(36, state);
  5253  0032BC  0E00               	movlw	0
  5254  0032BE  6E02               	movwf	(DATAEE_WriteByte@bAdd+1)^(0+1280),c
  5255  0032C0  0E24               	movlw	36
  5256  0032C2  6E01               	movwf	DATAEE_WriteByte@bAdd^(0+1280),c
  5257  0032C4  C593  F503         	movff	main@state,DATAEE_WriteByte@bData
  5258  0032C8  ECBD  F01E         	call	_DATAEE_WriteByte	;wreg free
  5259  0032CC                     
  5260                           ;main.c: 861:                     DATAEE_WriteByte(2, 69);
  5261  0032CC  0E00               	movlw	0
  5262  0032CE  6E02               	movwf	(DATAEE_WriteByte@bAdd+1)^(0+1280),c
  5263  0032D0  0E02               	movlw	2
  5264  0032D2  6E01               	movwf	DATAEE_WriteByte@bAdd^(0+1280),c
  5265  0032D4  0E45               	movlw	69
  5266  0032D6  6E03               	movwf	DATAEE_WriteByte@bData^(0+1280),c
  5267  0032D8  ECBD  F01E         	call	_DATAEE_WriteByte	;wreg free
  5268  0032DC                     l4032:
  5269                           
  5270                           ;main.c: 865:                 if(!PORTBbits.RB7 && taster4Flag)
  5271  0032DC  BECF               	btfsc	207,7,c	;volatile
  5272  0032DE  EF73  F019         	goto	u4801
  5273  0032E2  EF75  F019         	goto	u4800
  5274  0032E6                     u4801:
  5275  0032E6  EFA2  F019         	goto	l4046
  5276  0032EA                     u4800:
  5277  0032EA  0105               	movlb	5	; () banked
  5278  0032EC  5179               	movf	main@taster4Flag& (0+255),w,b
  5279  0032EE  B4D8               	btfsc	status,2,c
  5280  0032F0  EF7C  F019         	goto	u4811
  5281  0032F4  EF7E  F019         	goto	u4810
  5282  0032F8                     u4811:
  5283  0032F8  EFA2  F019         	goto	l4046
  5284  0032FC                     u4810:
  5285  0032FC                     
  5286                           ; BSR set to: 5
  5287                           ;main.c: 866:                 {;main.c: 867:                     LATAbits.LATA5 = 0;
  5288  0032FC  9ABE               	bcf	190,5,c	;volatile
  5289                           
  5290                           ;main.c: 868:                     LATCbits.LATC3 = 1;
  5291  0032FE  86C0               	bsf	192,3,c	;volatile
  5292  003300                     
  5293                           ; BSR set to: 5
  5294                           ;main.c: 869:                     LED_WriteFull(redMode4, greenMode4, blueMode4, whiteMo
      +                          de4, 300);
  5295  003300  C582  F507         	movff	main@greenMode4,LED_WriteFull@green
  5296  003304  C583  F508         	movff	main@blueMode4,LED_WriteFull@blue
  5297  003308  C586  F509         	movff	main@whiteMode4,LED_WriteFull@white
  5298  00330C  0E2C               	movlw	44
  5299  00330E  6E0A               	movwf	LED_WriteFull@ledcount^(0+1280),c
  5300  003310  0E01               	movlw	1
  5301  003312  6E0B               	movwf	(LED_WriteFull@ledcount+1)^(0+1280),c
  5302  003314  0E00               	movlw	0
  5303  003316  6E0C               	movwf	(LED_WriteFull@ledcount+2)^(0+1280),c
  5304  003318  5181               	movf	main@redMode4& (0+255),w,b
  5305  00331A  EC6D  F01D         	call	_LED_WriteFull
  5306  00331E                     
  5307                           ;main.c: 870:                     state = T4 ;
  5308  00331E  0E04               	movlw	4
  5309  003320  0105               	movlb	5	; () banked
  5310  003322  6F93               	movwf	main@state& (0+255),b
  5311  003324                     
  5312                           ; BSR set to: 5
  5313                           ;main.c: 871:                     DATAEE_WriteByte(36, state);
  5314  003324  0E00               	movlw	0
  5315  003326  6E02               	movwf	(DATAEE_WriteByte@bAdd+1)^(0+1280),c
  5316  003328  0E24               	movlw	36
  5317  00332A  6E01               	movwf	DATAEE_WriteByte@bAdd^(0+1280),c
  5318  00332C  C593  F503         	movff	main@state,DATAEE_WriteByte@bData
  5319  003330  ECBD  F01E         	call	_DATAEE_WriteByte	;wreg free
  5320  003334                     
  5321                           ;main.c: 872:                     DATAEE_WriteByte(2, 69);
  5322  003334  0E00               	movlw	0
  5323  003336  6E02               	movwf	(DATAEE_WriteByte@bAdd+1)^(0+1280),c
  5324  003338  0E02               	movlw	2
  5325  00333A  6E01               	movwf	DATAEE_WriteByte@bAdd^(0+1280),c
  5326  00333C  0E45               	movlw	69
  5327  00333E  6E03               	movwf	DATAEE_WriteByte@bData^(0+1280),c
  5328  003340  ECBD  F01E         	call	_DATAEE_WriteByte	;wreg free
  5329  003344                     l4046:
  5330                           
  5331                           ;main.c: 880:                 LED_WriteFull(redMode4,greenMode4,blueMode4, whiteMode4, 3
      +                          00);
  5332  003344  C582  F507         	movff	main@greenMode4,LED_WriteFull@green
  5333  003348  C583  F508         	movff	main@blueMode4,LED_WriteFull@blue
  5334  00334C  C586  F509         	movff	main@whiteMode4,LED_WriteFull@white
  5335  003350  0E2C               	movlw	44
  5336  003352  6E0A               	movwf	LED_WriteFull@ledcount^(0+1280),c
  5337  003354  0E01               	movlw	1
  5338  003356  6E0B               	movwf	(LED_WriteFull@ledcount+1)^(0+1280),c
  5339  003358  0E00               	movlw	0
  5340  00335A  6E0C               	movwf	(LED_WriteFull@ledcount+2)^(0+1280),c
  5341  00335C  0105               	movlb	5	; () banked
  5342  00335E  5181               	movf	main@redMode4& (0+255),w,b
  5343  003360  EC6D  F01D         	call	_LED_WriteFull
  5344                           
  5345                           ;main.c: 884:                 if(led4StateBlink && (++timeout250ms == 50))
  5346  003364  0105               	movlb	5	; () banked
  5347  003366  5170               	movf	main@led4StateBlink& (0+255),w,b
  5348  003368  B4D8               	btfsc	status,2,c
  5349  00336A  EFB9  F019         	goto	u4821
  5350  00336E  EFBB  F019         	goto	u4820
  5351  003372                     u4821:
  5352  003372  EFD9  F019         	goto	l4054
  5353  003376                     u4820:
  5354  003376                     
  5355                           ; BSR set to: 5
  5356  003376  2B71               	incf	main@timeout250ms& (0+255),f,b
  5357  003378  0E32               	movlw	50
  5358  00337A  1971               	xorwf	main@timeout250ms& (0+255),w,b
  5359  00337C  A4D8               	btfss	status,2,c
  5360  00337E  EFC3  F019         	goto	u4831
  5361  003382  EFC5  F019         	goto	u4830
  5362  003386                     u4831:
  5363  003386  EFD9  F019         	goto	l4054
  5364  00338A                     u4830:
  5365  00338A                     
  5366                           ; BSR set to: 5
  5367                           ;main.c: 885:                 {;main.c: 886:                     timeout250ms = 0;
  5368  00338A  0E00               	movlw	0
  5369  00338C  6F71               	movwf	main@timeout250ms& (0+255),b
  5370  00338E                     
  5371                           ; BSR set to: 5
  5372                           ;main.c: 887:                     LATCbits.LATC3 = !LATCbits.LATC3;
  5373  00338E  A6C0               	btfss	192,3,c	;volatile
  5374  003390  EFCC  F019         	goto	u4841
  5375  003394  EFD0  F019         	goto	u4840
  5376  003398                     u4841:
  5377  003398  6A2F               	clrf	??_main^(0+1280),c
  5378  00339A  2A2F               	incf	??_main^(0+1280),f,c
  5379  00339C  EFD1  F019         	goto	u4858
  5380  0033A0                     u4840:
  5381  0033A0  6A2F               	clrf	??_main^(0+1280),c
  5382  0033A2                     u4858:
  5383  0033A2  462F               	rlncf	??_main^(0+1280),f,c
  5384  0033A4  462F               	rlncf	??_main^(0+1280),f,c
  5385  0033A6  462F               	rlncf	??_main^(0+1280),f,c
  5386  0033A8  50C0               	movf	192,w,c	;volatile
  5387  0033AA  182F               	xorwf	??_main^(0+1280),w,c
  5388  0033AC  0BF7               	andlw	-9
  5389  0033AE  182F               	xorwf	??_main^(0+1280),w,c
  5390  0033B0  6EC0               	movwf	192,c	;volatile
  5391  0033B2                     l4054:
  5392                           
  5393                           ;main.c: 890:                 if(!PORTBbits.RB7 && taster4Flag && !led4StateBlink)
  5394  0033B2  BECF               	btfsc	207,7,c	;volatile
  5395  0033B4  EFDE  F019         	goto	u4861
  5396  0033B8  EFE0  F019         	goto	u4860
  5397  0033BC                     u4861:
  5398  0033BC  EFF3  F019         	goto	l4062
  5399  0033C0                     u4860:
  5400  0033C0  0105               	movlb	5	; () banked
  5401  0033C2  5179               	movf	main@taster4Flag& (0+255),w,b
  5402  0033C4  B4D8               	btfsc	status,2,c
  5403  0033C6  EFE7  F019         	goto	u4871
  5404  0033CA  EFE9  F019         	goto	u4870
  5405  0033CE                     u4871:
  5406  0033CE  EFF3  F019         	goto	l4062
  5407  0033D2                     u4870:
  5408  0033D2                     
  5409                           ; BSR set to: 5
  5410  0033D2  5170               	movf	main@led4StateBlink& (0+255),w,b
  5411  0033D4  A4D8               	btfss	status,2,c
  5412  0033D6  EFEF  F019         	goto	u4881
  5413  0033DA  EFF1  F019         	goto	u4880
  5414  0033DE                     u4881:
  5415  0033DE  EFF3  F019         	goto	l4062
  5416  0033E2                     u4880:
  5417  0033E2                     
  5418                           ; BSR set to: 5
  5419                           ;main.c: 891:                 {;main.c: 892:                     state = T4StateDummy;
  5420  0033E2  0E0C               	movlw	12
  5421  0033E4  6F93               	movwf	main@state& (0+255),b
  5422  0033E6                     l4062:
  5423                           
  5424                           ;main.c: 895:                 if(!PORTBbits.RB7 && taster4Flag && led4StateBlink)
  5425  0033E6  BECF               	btfsc	207,7,c	;volatile
  5426  0033E8  EFF8  F019         	goto	u4891
  5427  0033EC  EFFA  F019         	goto	u4890
  5428  0033F0                     u4891:
  5429  0033F0  EF3E  F01A         	goto	l4082
  5430  0033F4                     u4890:
  5431  0033F4  0105               	movlb	5	; () banked
  5432  0033F6  5179               	movf	main@taster4Flag& (0+255),w,b
  5433  0033F8  B4D8               	btfsc	status,2,c
  5434  0033FA  EF01  F01A         	goto	u4901
  5435  0033FE  EF03  F01A         	goto	u4900
  5436  003402                     u4901:
  5437  003402  EF3E  F01A         	goto	l4082
  5438  003406                     u4900:
  5439  003406                     
  5440                           ; BSR set to: 5
  5441  003406  5170               	movf	main@led4StateBlink& (0+255),w,b
  5442  003408  B4D8               	btfsc	status,2,c
  5443  00340A  EF09  F01A         	goto	u4911
  5444  00340E  EF0B  F01A         	goto	u4910
  5445  003412                     u4911:
  5446  003412  EF3E  F01A         	goto	l4082
  5447  003416                     u4910:
  5448  003416                     
  5449                           ; BSR set to: 5
  5450                           ;main.c: 896:                 {;main.c: 897:                     LATCbits.LATC3 = 1;
  5451  003416  86C0               	bsf	192,3,c	;volatile
  5452  003418                     
  5453                           ; BSR set to: 5
  5454                           ;main.c: 898:                     led4StateBlink = 0;
  5455  003418  0E00               	movlw	0
  5456  00341A  6F70               	movwf	main@led4StateBlink& (0+255),b
  5457                           
  5458                           ;main.c: 899:                     redAdj = 0;
  5459  00341C  0E00               	movlw	0
  5460  00341E  6F73               	movwf	main@redAdj& (0+255),b
  5461                           
  5462                           ;main.c: 900:                     greenAdj = 0;
  5463  003420  0E00               	movlw	0
  5464  003422  6F74               	movwf	main@greenAdj& (0+255),b
  5465                           
  5466                           ;main.c: 901:                     blueAdj = 0;
  5467  003424  0E00               	movlw	0
  5468  003426  6F75               	movwf	main@blueAdj& (0+255),b
  5469                           
  5470                           ;main.c: 902:                     whiteAdj = 0;
  5471  003428  0E00               	movlw	0
  5472  00342A  6F76               	movwf	main@whiteAdj& (0+255),b
  5473  00342C                     
  5474                           ; BSR set to: 5
  5475                           ;main.c: 903:                     DATAEE_WriteByte(32, blueMode1);
  5476  00342C  0E00               	movlw	0
  5477  00342E  6E02               	movwf	(DATAEE_WriteByte@bAdd+1)^(0+1280),c
  5478  003430  0E20               	movlw	32
  5479  003432  6E01               	movwf	DATAEE_WriteByte@bAdd^(0+1280),c
  5480  003434  C58D  F503         	movff	main@blueMode1,DATAEE_WriteByte@bData
  5481  003438  ECBD  F01E         	call	_DATAEE_WriteByte	;wreg free
  5482  00343C                     
  5483                           ;main.c: 904:                     DATAEE_WriteByte(31, greenMode1);
  5484  00343C  0E00               	movlw	0
  5485  00343E  6E02               	movwf	(DATAEE_WriteByte@bAdd+1)^(0+1280),c
  5486  003440  0E1F               	movlw	31
  5487  003442  6E01               	movwf	DATAEE_WriteByte@bAdd^(0+1280),c
  5488  003444  C58C  F503         	movff	main@greenMode1,DATAEE_WriteByte@bData
  5489  003448  ECBD  F01E         	call	_DATAEE_WriteByte	;wreg free
  5490  00344C                     
  5491                           ;main.c: 905:                     DATAEE_WriteByte(30, redMode1);
  5492  00344C  0E00               	movlw	0
  5493  00344E  6E02               	movwf	(DATAEE_WriteByte@bAdd+1)^(0+1280),c
  5494  003450  0E1E               	movlw	30
  5495  003452  6E01               	movwf	DATAEE_WriteByte@bAdd^(0+1280),c
  5496  003454  C58B  F503         	movff	main@redMode1,DATAEE_WriteByte@bData
  5497  003458  ECBD  F01E         	call	_DATAEE_WriteByte	;wreg free
  5498  00345C                     
  5499                           ;main.c: 906:                     DATAEE_WriteByte(34, whiteMode1);
  5500  00345C  0E00               	movlw	0
  5501  00345E  6E02               	movwf	(DATAEE_WriteByte@bAdd+1)^(0+1280),c
  5502  003460  0E22               	movlw	34
  5503  003462  6E01               	movwf	DATAEE_WriteByte@bAdd^(0+1280),c
  5504  003464  C58E  F503         	movff	main@whiteMode1,DATAEE_WriteByte@bData
  5505  003468  ECBD  F01E         	call	_DATAEE_WriteByte	;wreg free
  5506  00346C                     
  5507                           ;main.c: 907:                     DATAEE_WriteByte(8, 69);
  5508  00346C  0E00               	movlw	0
  5509  00346E  6E02               	movwf	(DATAEE_WriteByte@bAdd+1)^(0+1280),c
  5510  003470  0E08               	movlw	8
  5511  003472  6E01               	movwf	DATAEE_WriteByte@bAdd^(0+1280),c
  5512  003474  0E45               	movlw	69
  5513  003476  6E03               	movwf	DATAEE_WriteByte@bData^(0+1280),c
  5514  003478  ECBD  F01E         	call	_DATAEE_WriteByte	;wreg free
  5515  00347C                     l4082:
  5516                           
  5517                           ;main.c: 910:                 if(led4StateBlink)
  5518  00347C  0105               	movlb	5	; () banked
  5519  00347E  5170               	movf	main@led4StateBlink& (0+255),w,b
  5520  003480  B4D8               	btfsc	status,2,c
  5521  003482  EF45  F01A         	goto	u4921
  5522  003486  EF47  F01A         	goto	u4920
  5523  00348A                     u4921:
  5524  00348A  EF4F  F01B         	goto	l673
  5525  00348E                     u4920:
  5526  00348E                     
  5527                           ; BSR set to: 5
  5528                           ;main.c: 911:                 {;main.c: 912:                     if((red >= (redMode4 - 
      +                          5) && red <= redMode4 + 5))
  5529  00348E  0EFB               	movlw	251
  5530  003490  6E2F               	movwf	??_main^(0+1280),c
  5531  003492  0EFF               	movlw	255
  5532  003494  6E30               	movwf	(??_main+1)^(0+1280),c
  5533  003496  5181               	movf	main@redMode4& (0+255),w,b
  5534  003498  6E31               	movwf	(??_main+2)^(0+1280),c
  5535  00349A  6A32               	clrf	(??_main+3)^(0+1280),c
  5536  00349C  502F               	movf	??_main^(0+1280),w,c
  5537  00349E  2631               	addwf	(??_main+2)^(0+1280),f,c
  5538  0034A0  5030               	movf	(??_main+1)^(0+1280),w,c
  5539  0034A2  2232               	addwfc	(??_main+3)^(0+1280),f,c
  5540  0034A4  518F               	movf	main@red& (0+255),w,b
  5541  0034A6  6E33               	movwf	(??_main+4)^(0+1280),c
  5542  0034A8  6A34               	clrf	(??_main+5)^(0+1280),c
  5543  0034AA  5031               	movf	(??_main+2)^(0+1280),w,c
  5544  0034AC  5C33               	subwf	(??_main+4)^(0+1280),w,c
  5545  0034AE  5034               	movf	(??_main+5)^(0+1280),w,c
  5546  0034B0  0A80               	xorlw	128
  5547  0034B2  6E35               	movwf	(??_main+6)^(0+1280),c
  5548  0034B4  5032               	movf	(??_main+3)^(0+1280),w,c
  5549  0034B6  0A80               	xorlw	128
  5550  0034B8  5835               	subwfb	(??_main+6)^(0+1280),w,c
  5551  0034BA  A0D8               	btfss	status,0,c
  5552  0034BC  EF62  F01A         	goto	u4931
  5553  0034C0  EF64  F01A         	goto	u4930
  5554  0034C4                     u4931:
  5555  0034C4  EF7F  F01A         	goto	l674
  5556  0034C8                     u4930:
  5557  0034C8                     
  5558                           ; BSR set to: 5
  5559  0034C8  518F               	movf	main@red& (0+255),w,b
  5560  0034CA  6E2F               	movwf	??_main^(0+1280),c
  5561  0034CC  6A30               	clrf	(??_main+1)^(0+1280),c
  5562  0034CE  5181               	movf	main@redMode4& (0+255),w,b
  5563  0034D0  6E31               	movwf	(??_main+2)^(0+1280),c
  5564  0034D2  6A32               	clrf	(??_main+3)^(0+1280),c
  5565  0034D4  0E05               	movlw	5
  5566  0034D6  2631               	addwf	(??_main+2)^(0+1280),f,c
  5567  0034D8  0E00               	movlw	0
  5568  0034DA  2232               	addwfc	(??_main+3)^(0+1280),f,c
  5569  0034DC  502F               	movf	??_main^(0+1280),w,c
  5570  0034DE  5C31               	subwf	(??_main+2)^(0+1280),w,c
  5571  0034E0  5032               	movf	(??_main+3)^(0+1280),w,c
  5572  0034E2  0A80               	xorlw	128
  5573  0034E4  6E33               	movwf	(??_main+4)^(0+1280),c
  5574  0034E6  5030               	movf	(??_main+1)^(0+1280),w,c
  5575  0034E8  0A80               	xorlw	128
  5576  0034EA  5833               	subwfb	(??_main+4)^(0+1280),w,c
  5577  0034EC  A0D8               	btfss	status,0,c
  5578  0034EE  EF7B  F01A         	goto	u4941
  5579  0034F2  EF7D  F01A         	goto	u4940
  5580  0034F6                     u4941:
  5581  0034F6  EF7F  F01A         	goto	l674
  5582  0034FA                     u4940:
  5583  0034FA                     
  5584                           ; BSR set to: 5
  5585                           ;main.c: 913:                     {;main.c: 914:                         redAdj = 1;
  5586  0034FA  0E01               	movlw	1
  5587  0034FC  6F73               	movwf	main@redAdj& (0+255),b
  5588  0034FE                     l674:
  5589                           
  5590                           ; BSR set to: 5
  5591                           ;main.c: 917:                     if(redAdj)
  5592  0034FE  5173               	movf	main@redAdj& (0+255),w,b
  5593  003500  B4D8               	btfsc	status,2,c
  5594  003502  EF85  F01A         	goto	u4951
  5595  003506  EF87  F01A         	goto	u4950
  5596  00350A                     u4951:
  5597  00350A  EF89  F01A         	goto	l4092
  5598  00350E                     u4950:
  5599  00350E                     
  5600                           ; BSR set to: 5
  5601                           ;main.c: 918:                     {;main.c: 919:                         redMode4 = red;
  5602  00350E  C58F  F581         	movff	main@red,main@redMode4
  5603  003512                     l4092:
  5604                           
  5605                           ; BSR set to: 5
  5606                           ;main.c: 922:                     if((white >= (whiteMode4 - 5) && white <= whiteMode4 +
      +                           5))
  5607  003512  0EFB               	movlw	251
  5608  003514  6E2F               	movwf	??_main^(0+1280),c
  5609  003516  0EFF               	movlw	255
  5610  003518  6E30               	movwf	(??_main+1)^(0+1280),c
  5611  00351A  5186               	movf	main@whiteMode4& (0+255),w,b
  5612  00351C  6E31               	movwf	(??_main+2)^(0+1280),c
  5613  00351E  6A32               	clrf	(??_main+3)^(0+1280),c
  5614  003520  502F               	movf	??_main^(0+1280),w,c
  5615  003522  2631               	addwf	(??_main+2)^(0+1280),f,c
  5616  003524  5030               	movf	(??_main+1)^(0+1280),w,c
  5617  003526  2232               	addwfc	(??_main+3)^(0+1280),f,c
  5618  003528  5192               	movf	main@white& (0+255),w,b
  5619  00352A  6E33               	movwf	(??_main+4)^(0+1280),c
  5620  00352C  6A34               	clrf	(??_main+5)^(0+1280),c
  5621  00352E  5031               	movf	(??_main+2)^(0+1280),w,c
  5622  003530  5C33               	subwf	(??_main+4)^(0+1280),w,c
  5623  003532  5034               	movf	(??_main+5)^(0+1280),w,c
  5624  003534  0A80               	xorlw	128
  5625  003536  6E35               	movwf	(??_main+6)^(0+1280),c
  5626  003538  5032               	movf	(??_main+3)^(0+1280),w,c
  5627  00353A  0A80               	xorlw	128
  5628  00353C  5835               	subwfb	(??_main+6)^(0+1280),w,c
  5629  00353E  A0D8               	btfss	status,0,c
  5630  003540  EFA4  F01A         	goto	u4961
  5631  003544  EFA6  F01A         	goto	u4960
  5632  003548                     u4961:
  5633  003548  EFC1  F01A         	goto	l676
  5634  00354C                     u4960:
  5635  00354C                     
  5636                           ; BSR set to: 5
  5637  00354C  5192               	movf	main@white& (0+255),w,b
  5638  00354E  6E2F               	movwf	??_main^(0+1280),c
  5639  003550  6A30               	clrf	(??_main+1)^(0+1280),c
  5640  003552  5186               	movf	main@whiteMode4& (0+255),w,b
  5641  003554  6E31               	movwf	(??_main+2)^(0+1280),c
  5642  003556  6A32               	clrf	(??_main+3)^(0+1280),c
  5643  003558  0E05               	movlw	5
  5644  00355A  2631               	addwf	(??_main+2)^(0+1280),f,c
  5645  00355C  0E00               	movlw	0
  5646  00355E  2232               	addwfc	(??_main+3)^(0+1280),f,c
  5647  003560  502F               	movf	??_main^(0+1280),w,c
  5648  003562  5C31               	subwf	(??_main+2)^(0+1280),w,c
  5649  003564  5032               	movf	(??_main+3)^(0+1280),w,c
  5650  003566  0A80               	xorlw	128
  5651  003568  6E33               	movwf	(??_main+4)^(0+1280),c
  5652  00356A  5030               	movf	(??_main+1)^(0+1280),w,c
  5653  00356C  0A80               	xorlw	128
  5654  00356E  5833               	subwfb	(??_main+4)^(0+1280),w,c
  5655  003570  A0D8               	btfss	status,0,c
  5656  003572  EFBD  F01A         	goto	u4971
  5657  003576  EFBF  F01A         	goto	u4970
  5658  00357A                     u4971:
  5659  00357A  EFC1  F01A         	goto	l676
  5660  00357E                     u4970:
  5661  00357E                     
  5662                           ; BSR set to: 5
  5663                           ;main.c: 923:                     {;main.c: 924:                         whiteAdj = 1;
  5664  00357E  0E01               	movlw	1
  5665  003580  6F76               	movwf	main@whiteAdj& (0+255),b
  5666  003582                     l676:
  5667                           
  5668                           ; BSR set to: 5
  5669                           ;main.c: 927:                     if(whiteAdj)
  5670  003582  5176               	movf	main@whiteAdj& (0+255),w,b
  5671  003584  B4D8               	btfsc	status,2,c
  5672  003586  EFC7  F01A         	goto	u4981
  5673  00358A  EFC9  F01A         	goto	u4980
  5674  00358E                     u4981:
  5675  00358E  EFCB  F01A         	goto	l4100
  5676  003592                     u4980:
  5677  003592                     
  5678                           ; BSR set to: 5
  5679                           ;main.c: 928:                     {;main.c: 929:                         whiteMode4 = wh
      +                          ite;
  5680  003592  C592  F586         	movff	main@white,main@whiteMode4
  5681  003596                     l4100:
  5682                           
  5683                           ; BSR set to: 5
  5684                           ;main.c: 932:                     if((green >= (greenMode4 - 5) && green <= greenMode4 +
      +                           5))
  5685  003596  0EFB               	movlw	251
  5686  003598  6E2F               	movwf	??_main^(0+1280),c
  5687  00359A  0EFF               	movlw	255
  5688  00359C  6E30               	movwf	(??_main+1)^(0+1280),c
  5689  00359E  5182               	movf	main@greenMode4& (0+255),w,b
  5690  0035A0  6E31               	movwf	(??_main+2)^(0+1280),c
  5691  0035A2  6A32               	clrf	(??_main+3)^(0+1280),c
  5692  0035A4  502F               	movf	??_main^(0+1280),w,c
  5693  0035A6  2631               	addwf	(??_main+2)^(0+1280),f,c
  5694  0035A8  5030               	movf	(??_main+1)^(0+1280),w,c
  5695  0035AA  2232               	addwfc	(??_main+3)^(0+1280),f,c
  5696  0035AC  5190               	movf	main@green& (0+255),w,b
  5697  0035AE  6E33               	movwf	(??_main+4)^(0+1280),c
  5698  0035B0  6A34               	clrf	(??_main+5)^(0+1280),c
  5699  0035B2  5031               	movf	(??_main+2)^(0+1280),w,c
  5700  0035B4  5C33               	subwf	(??_main+4)^(0+1280),w,c
  5701  0035B6  5034               	movf	(??_main+5)^(0+1280),w,c
  5702  0035B8  0A80               	xorlw	128
  5703  0035BA  6E35               	movwf	(??_main+6)^(0+1280),c
  5704  0035BC  5032               	movf	(??_main+3)^(0+1280),w,c
  5705  0035BE  0A80               	xorlw	128
  5706  0035C0  5835               	subwfb	(??_main+6)^(0+1280),w,c
  5707  0035C2  A0D8               	btfss	status,0,c
  5708  0035C4  EFE6  F01A         	goto	u4991
  5709  0035C8  EFE8  F01A         	goto	u4990
  5710  0035CC                     u4991:
  5711  0035CC  EF03  F01B         	goto	l678
  5712  0035D0                     u4990:
  5713  0035D0                     
  5714                           ; BSR set to: 5
  5715  0035D0  5190               	movf	main@green& (0+255),w,b
  5716  0035D2  6E2F               	movwf	??_main^(0+1280),c
  5717  0035D4  6A30               	clrf	(??_main+1)^(0+1280),c
  5718  0035D6  5182               	movf	main@greenMode4& (0+255),w,b
  5719  0035D8  6E31               	movwf	(??_main+2)^(0+1280),c
  5720  0035DA  6A32               	clrf	(??_main+3)^(0+1280),c
  5721  0035DC  0E05               	movlw	5
  5722  0035DE  2631               	addwf	(??_main+2)^(0+1280),f,c
  5723  0035E0  0E00               	movlw	0
  5724  0035E2  2232               	addwfc	(??_main+3)^(0+1280),f,c
  5725  0035E4  502F               	movf	??_main^(0+1280),w,c
  5726  0035E6  5C31               	subwf	(??_main+2)^(0+1280),w,c
  5727  0035E8  5032               	movf	(??_main+3)^(0+1280),w,c
  5728  0035EA  0A80               	xorlw	128
  5729  0035EC  6E33               	movwf	(??_main+4)^(0+1280),c
  5730  0035EE  5030               	movf	(??_main+1)^(0+1280),w,c
  5731  0035F0  0A80               	xorlw	128
  5732  0035F2  5833               	subwfb	(??_main+4)^(0+1280),w,c
  5733  0035F4  A0D8               	btfss	status,0,c
  5734  0035F6  EFFF  F01A         	goto	u5001
  5735  0035FA  EF01  F01B         	goto	u5000
  5736  0035FE                     u5001:
  5737  0035FE  EF03  F01B         	goto	l678
  5738  003602                     u5000:
  5739  003602                     
  5740                           ; BSR set to: 5
  5741                           ;main.c: 933:                     {;main.c: 934:                        greenAdj = 1;
  5742  003602  0E01               	movlw	1
  5743  003604  6F74               	movwf	main@greenAdj& (0+255),b
  5744  003606                     l678:
  5745                           
  5746                           ; BSR set to: 5
  5747                           ;main.c: 937:                     if(greenAdj)
  5748  003606  5174               	movf	main@greenAdj& (0+255),w,b
  5749  003608  B4D8               	btfsc	status,2,c
  5750  00360A  EF09  F01B         	goto	u5011
  5751  00360E  EF0B  F01B         	goto	u5010
  5752  003612                     u5011:
  5753  003612  EF0D  F01B         	goto	l4108
  5754  003616                     u5010:
  5755  003616                     
  5756                           ; BSR set to: 5
  5757                           ;main.c: 938:                     {;main.c: 939:                         greenMode4 = gr
      +                          een;
  5758  003616  C590  F582         	movff	main@green,main@greenMode4
  5759  00361A                     l4108:
  5760                           
  5761                           ; BSR set to: 5
  5762                           ;main.c: 942:                     if((blue >= (blueMode4 - 5) && blue <= blueMode4 + 5))
  5763  00361A  0EFB               	movlw	251
  5764  00361C  6E2F               	movwf	??_main^(0+1280),c
  5765  00361E  0EFF               	movlw	255
  5766  003620  6E30               	movwf	(??_main+1)^(0+1280),c
  5767  003622  5183               	movf	main@blueMode4& (0+255),w,b
  5768  003624  6E31               	movwf	(??_main+2)^(0+1280),c
  5769  003626  6A32               	clrf	(??_main+3)^(0+1280),c
  5770  003628  502F               	movf	??_main^(0+1280),w,c
  5771  00362A  2631               	addwf	(??_main+2)^(0+1280),f,c
  5772  00362C  5030               	movf	(??_main+1)^(0+1280),w,c
  5773  00362E  2232               	addwfc	(??_main+3)^(0+1280),f,c
  5774  003630  5191               	movf	main@blue& (0+255),w,b
  5775  003632  6E33               	movwf	(??_main+4)^(0+1280),c
  5776  003634  6A34               	clrf	(??_main+5)^(0+1280),c
  5777  003636  5031               	movf	(??_main+2)^(0+1280),w,c
  5778  003638  5C33               	subwf	(??_main+4)^(0+1280),w,c
  5779  00363A  5034               	movf	(??_main+5)^(0+1280),w,c
  5780  00363C  0A80               	xorlw	128
  5781  00363E  6E35               	movwf	(??_main+6)^(0+1280),c
  5782  003640  5032               	movf	(??_main+3)^(0+1280),w,c
  5783  003642  0A80               	xorlw	128
  5784  003644  5835               	subwfb	(??_main+6)^(0+1280),w,c
  5785  003646  A0D8               	btfss	status,0,c
  5786  003648  EF28  F01B         	goto	u5021
  5787  00364C  EF2A  F01B         	goto	u5020
  5788  003650                     u5021:
  5789  003650  EF45  F01B         	goto	l680
  5790  003654                     u5020:
  5791  003654                     
  5792                           ; BSR set to: 5
  5793  003654  5191               	movf	main@blue& (0+255),w,b
  5794  003656  6E2F               	movwf	??_main^(0+1280),c
  5795  003658  6A30               	clrf	(??_main+1)^(0+1280),c
  5796  00365A  5183               	movf	main@blueMode4& (0+255),w,b
  5797  00365C  6E31               	movwf	(??_main+2)^(0+1280),c
  5798  00365E  6A32               	clrf	(??_main+3)^(0+1280),c
  5799  003660  0E05               	movlw	5
  5800  003662  2631               	addwf	(??_main+2)^(0+1280),f,c
  5801  003664  0E00               	movlw	0
  5802  003666  2232               	addwfc	(??_main+3)^(0+1280),f,c
  5803  003668  502F               	movf	??_main^(0+1280),w,c
  5804  00366A  5C31               	subwf	(??_main+2)^(0+1280),w,c
  5805  00366C  5032               	movf	(??_main+3)^(0+1280),w,c
  5806  00366E  0A80               	xorlw	128
  5807  003670  6E33               	movwf	(??_main+4)^(0+1280),c
  5808  003672  5030               	movf	(??_main+1)^(0+1280),w,c
  5809  003674  0A80               	xorlw	128
  5810  003676  5833               	subwfb	(??_main+4)^(0+1280),w,c
  5811  003678  A0D8               	btfss	status,0,c
  5812  00367A  EF41  F01B         	goto	u5031
  5813  00367E  EF43  F01B         	goto	u5030
  5814  003682                     u5031:
  5815  003682  EF45  F01B         	goto	l680
  5816  003686                     u5030:
  5817  003686                     
  5818                           ; BSR set to: 5
  5819                           ;main.c: 943:                     {;main.c: 944:                         blueAdj = 1;
  5820  003686  0E01               	movlw	1
  5821  003688  6F75               	movwf	main@blueAdj& (0+255),b
  5822  00368A                     l680:
  5823                           
  5824                           ; BSR set to: 5
  5825                           ;main.c: 947:                     if(blueAdj)
  5826  00368A  5175               	movf	main@blueAdj& (0+255),w,b
  5827  00368C  B4D8               	btfsc	status,2,c
  5828  00368E  EF4B  F01B         	goto	u5041
  5829  003692  EF4D  F01B         	goto	u5040
  5830  003696                     u5041:
  5831  003696  EF4F  F01B         	goto	l673
  5832  00369A                     u5040:
  5833  00369A                     
  5834                           ; BSR set to: 5
  5835                           ;main.c: 948:                     {;main.c: 949:                         blueMode4 = blu
      +                          e;
  5836  00369A  C591  F583         	movff	main@blue,main@blueMode4
  5837  00369E                     l673:
  5838                           
  5839                           ; BSR set to: 5
  5840                           ;main.c: 956:                 if(!PORTCbits.RC6 && taster1Flag)
  5841  00369E  BCD0               	btfsc	208,6,c	;volatile
  5842  0036A0  EF54  F01B         	goto	u5051
  5843  0036A4  EF56  F01B         	goto	u5050
  5844  0036A8                     u5051:
  5845  0036A8  EF72  F01B         	goto	l4126
  5846  0036AC                     u5050:
  5847  0036AC                     
  5848                           ; BSR set to: 5
  5849  0036AC  5177               	movf	main@taster1Flag& (0+255),w,b
  5850  0036AE  B4D8               	btfsc	status,2,c
  5851  0036B0  EF5C  F01B         	goto	u5061
  5852  0036B4  EF5E  F01B         	goto	u5060
  5853  0036B8                     u5061:
  5854  0036B8  EF72  F01B         	goto	l4126
  5855  0036BC                     u5060:
  5856  0036BC                     
  5857                           ; BSR set to: 5
  5858                           ;main.c: 957:                 {;main.c: 958:                     LATCbits.LATC3 = 0;
  5859  0036BC  96C0               	bcf	192,3,c	;volatile
  5860                           
  5861                           ;main.c: 959:                     LATCbits.LATC7 = 1;
  5862  0036BE  8EC0               	bsf	192,7,c	;volatile
  5863  0036C0                     
  5864                           ; BSR set to: 5
  5865                           ;main.c: 960:                     state = T1;
  5866  0036C0  0E01               	movlw	1
  5867  0036C2  6F93               	movwf	main@state& (0+255),b
  5868  0036C4                     
  5869                           ; BSR set to: 5
  5870                           ;main.c: 961:                     DATAEE_WriteByte(36, state);
  5871  0036C4  0E00               	movlw	0
  5872  0036C6  6E02               	movwf	(DATAEE_WriteByte@bAdd+1)^(0+1280),c
  5873  0036C8  0E24               	movlw	36
  5874  0036CA  6E01               	movwf	DATAEE_WriteByte@bAdd^(0+1280),c
  5875  0036CC  C593  F503         	movff	main@state,DATAEE_WriteByte@bData
  5876  0036D0  ECBD  F01E         	call	_DATAEE_WriteByte	;wreg free
  5877  0036D4                     
  5878                           ;main.c: 962:                     DATAEE_WriteByte(2, 69);
  5879  0036D4  0E00               	movlw	0
  5880  0036D6  6E02               	movwf	(DATAEE_WriteByte@bAdd+1)^(0+1280),c
  5881  0036D8  0E02               	movlw	2
  5882  0036DA  6E01               	movwf	DATAEE_WriteByte@bAdd^(0+1280),c
  5883  0036DC  0E45               	movlw	69
  5884  0036DE  6E03               	movwf	DATAEE_WriteByte@bData^(0+1280),c
  5885  0036E0  ECBD  F01E         	call	_DATAEE_WriteByte	;wreg free
  5886  0036E4                     l4126:
  5887                           
  5888                           ;main.c: 966:                 if(!PORTAbits.RA4 && taster2Flag)
  5889  0036E4  B8CE               	btfsc	206,4,c	;volatile
  5890  0036E6  EF77  F01B         	goto	u5071
  5891  0036EA  EF79  F01B         	goto	u5070
  5892  0036EE                     u5071:
  5893  0036EE  EFA6  F01B         	goto	l4140
  5894  0036F2                     u5070:
  5895  0036F2  0105               	movlb	5	; () banked
  5896  0036F4  5178               	movf	main@taster2Flag& (0+255),w,b
  5897  0036F6  B4D8               	btfsc	status,2,c
  5898  0036F8  EF80  F01B         	goto	u5081
  5899  0036FC  EF82  F01B         	goto	u5080
  5900  003700                     u5081:
  5901  003700  EFA6  F01B         	goto	l4140
  5902  003704                     u5080:
  5903  003704                     
  5904                           ; BSR set to: 5
  5905                           ;main.c: 967:                 {;main.c: 968:                     LATCbits.LATC3 = 0;
  5906  003704  96C0               	bcf	192,3,c	;volatile
  5907                           
  5908                           ;main.c: 969:                     LATCbits.LATC5 = 1;
  5909  003706  8AC0               	bsf	192,5,c	;volatile
  5910  003708                     
  5911                           ; BSR set to: 5
  5912                           ;main.c: 970:                     LED_WriteFull(redMode2, greenMode2, blueMode2, whiteMo
      +                          de2, 300);
  5913  003708  C57C  F507         	movff	main@greenMode2,LED_WriteFull@green
  5914  00370C  C57D  F508         	movff	main@blueMode2,LED_WriteFull@blue
  5915  003710  C584  F509         	movff	main@whiteMode2,LED_WriteFull@white
  5916  003714  0E2C               	movlw	44
  5917  003716  6E0A               	movwf	LED_WriteFull@ledcount^(0+1280),c
  5918  003718  0E01               	movlw	1
  5919  00371A  6E0B               	movwf	(LED_WriteFull@ledcount+1)^(0+1280),c
  5920  00371C  0E00               	movlw	0
  5921  00371E  6E0C               	movwf	(LED_WriteFull@ledcount+2)^(0+1280),c
  5922  003720  517B               	movf	main@redMode2& (0+255),w,b
  5923  003722  EC6D  F01D         	call	_LED_WriteFull
  5924  003726                     
  5925                           ;main.c: 971:                     state = T2;
  5926  003726  0E02               	movlw	2
  5927  003728  0105               	movlb	5	; () banked
  5928  00372A  6F93               	movwf	main@state& (0+255),b
  5929  00372C                     
  5930                           ; BSR set to: 5
  5931                           ;main.c: 972:                     DATAEE_WriteByte(36, state);
  5932  00372C  0E00               	movlw	0
  5933  00372E  6E02               	movwf	(DATAEE_WriteByte@bAdd+1)^(0+1280),c
  5934  003730  0E24               	movlw	36
  5935  003732  6E01               	movwf	DATAEE_WriteByte@bAdd^(0+1280),c
  5936  003734  C593  F503         	movff	main@state,DATAEE_WriteByte@bData
  5937  003738  ECBD  F01E         	call	_DATAEE_WriteByte	;wreg free
  5938  00373C                     
  5939                           ;main.c: 973:                     DATAEE_WriteByte(2, 69);
  5940  00373C  0E00               	movlw	0
  5941  00373E  6E02               	movwf	(DATAEE_WriteByte@bAdd+1)^(0+1280),c
  5942  003740  0E02               	movlw	2
  5943  003742  6E01               	movwf	DATAEE_WriteByte@bAdd^(0+1280),c
  5944  003744  0E45               	movlw	69
  5945  003746  6E03               	movwf	DATAEE_WriteByte@bData^(0+1280),c
  5946  003748  ECBD  F01E         	call	_DATAEE_WriteByte	;wreg free
  5947  00374C                     l4140:
  5948                           
  5949                           ;main.c: 977:                 if(!PORTCbits.RC4 && taster3Flag)
  5950  00374C  B8D0               	btfsc	208,4,c	;volatile
  5951  00374E  EFAB  F01B         	goto	u5091
  5952  003752  EFAD  F01B         	goto	u5090
  5953  003756                     u5091:
  5954  003756  EFD9  F00C         	goto	l3334
  5955  00375A                     u5090:
  5956  00375A  0105               	movlb	5	; () banked
  5957  00375C  517A               	movf	main@taster3Flag& (0+255),w,b
  5958  00375E  B4D8               	btfsc	status,2,c
  5959  003760  EFB4  F01B         	goto	u5101
  5960  003764  EFB6  F01B         	goto	u5100
  5961  003768                     u5101:
  5962  003768  EFD9  F00C         	goto	l3334
  5963  00376C                     u5100:
  5964  00376C                     
  5965                           ; BSR set to: 5
  5966                           ;main.c: 978:                 {;main.c: 979:                     LATCbits.LATC3 = 0;
  5967  00376C  96C0               	bcf	192,3,c	;volatile
  5968                           
  5969                           ;main.c: 980:                     LATAbits.LATA5 = 1;
  5970  00376E  8ABE               	bsf	190,5,c	;volatile
  5971  003770                     
  5972                           ; BSR set to: 5
  5973                           ;main.c: 981:                     LED_WriteFull(redMode3, greenMode3, blueMode3, whiteMo
      +                          de3, 300);
  5974  003770  C57F  F507         	movff	main@greenMode3,LED_WriteFull@green
  5975  003774  C580  F508         	movff	main@blueMode3,LED_WriteFull@blue
  5976  003778  C585  F509         	movff	main@whiteMode3,LED_WriteFull@white
  5977  00377C  0E2C               	movlw	44
  5978  00377E  6E0A               	movwf	LED_WriteFull@ledcount^(0+1280),c
  5979  003780  0E01               	movlw	1
  5980  003782  6E0B               	movwf	(LED_WriteFull@ledcount+1)^(0+1280),c
  5981  003784  0E00               	movlw	0
  5982  003786  6E0C               	movwf	(LED_WriteFull@ledcount+2)^(0+1280),c
  5983  003788  517E               	movf	main@redMode3& (0+255),w,b
  5984  00378A  EC6D  F01D         	call	_LED_WriteFull
  5985  00378E                     
  5986                           ;main.c: 982:                     state = T3 ;
  5987  00378E  0E03               	movlw	3
  5988  003790  0105               	movlb	5	; () banked
  5989  003792  6F93               	movwf	main@state& (0+255),b
  5990  003794  EF21  F011         	goto	l3588
  5991  003798                     l4156:
  5992  003798  0105               	movlb	5	; () banked
  5993  00379A  5193               	movf	main@state& (0+255),w,b
  5994  00379C  6E2F               	movwf	??_main^(0+1280),c
  5995  00379E  6A30               	clrf	(??_main+1)^(0+1280),c
  5996                           
  5997                           ; Switch on 2 bytes has been partitioned into a top level switch of size 1, and 1 sub-sw
      +                          itches
  5998                           ; Switch size 1, requested type "simple"
  5999                           ; Number of cases is 1, Range of values is 0 to 0
  6000                           ; switch strategies available:
  6001                           ; Name         Instructions Cycles
  6002                           ; simple_byte            4     3 (average)
  6003                           ;	Chosen strategy is simple_byte
  6004  0037A0  5030               	movf	(??_main+1)^(0+1280),w,c
  6005  0037A2  0A00               	xorlw	0	; case 0
  6006  0037A4  B4D8               	btfsc	status,2,c
  6007  0037A6  EFD7  F01B         	goto	l4194
  6008  0037AA  EFD9  F00C         	goto	l3334
  6009  0037AE                     l4194:
  6010                           
  6011                           ; BSR set to: 5
  6012                           ; Switch size 1, requested type "simple"
  6013                           ; Number of cases is 13, Range of values is 0 to 12
  6014                           ; switch strategies available:
  6015                           ; Name         Instructions Cycles
  6016                           ; simple_byte           40    21 (average)
  6017                           ;	Chosen strategy is simple_byte
  6018  0037AE  502F               	movf	??_main^(0+1280),w,c
  6019  0037B0  0A00               	xorlw	0	; case 0
  6020  0037B2  B4D8               	btfsc	status,2,c
  6021  0037B4  EFAE  F00D         	goto	l3360
  6022  0037B8  0A01               	xorlw	1	; case 1
  6023  0037BA  B4D8               	btfsc	status,2,c
  6024  0037BC  EFEB  F012         	goto	l3708
  6025  0037C0  0A03               	xorlw	3	; case 2
  6026  0037C2  B4D8               	btfsc	status,2,c
  6027  0037C4  EF23  F015         	goto	l3820
  6028  0037C8  0A01               	xorlw	1	; case 3
  6029  0037CA  B4D8               	btfsc	status,2,c
  6030  0037CC  EF58  F017         	goto	l3932
  6031  0037D0  0A07               	xorlw	7	; case 4
  6032  0037D2  B4D8               	btfsc	status,2,c
  6033  0037D4  EFA2  F019         	goto	l4046
  6034  0037D8  0A01               	xorlw	1	; case 5
  6035  0037DA  B4D8               	btfsc	status,2,c
  6036  0037DC  EFDB  F010         	goto	l597
  6037  0037E0  0A03               	xorlw	3	; case 6
  6038  0037E2  B4D8               	btfsc	status,2,c
  6039  0037E4  EF33  F011         	goto	l600
  6040  0037E8  0A01               	xorlw	1	; case 7
  6041  0037EA  B4D8               	btfsc	status,2,c
  6042  0037EC  EF7B  F011         	goto	l603
  6043  0037F0  0A0F               	xorlw	15	; case 8
  6044  0037F2  B4D8               	btfsc	status,2,c
  6045  0037F4  EFC3  F011         	goto	l606
  6046  0037F8  0A01               	xorlw	1	; case 9
  6047  0037FA  B4D8               	btfsc	status,2,c
  6048  0037FC  EF0B  F012         	goto	l609
  6049  003800  0A03               	xorlw	3	; case 10
  6050  003802  B4D8               	btfsc	status,2,c
  6051  003804  EF43  F012         	goto	l612
  6052  003808  0A01               	xorlw	1	; case 11
  6053  00380A  B4D8               	btfsc	status,2,c
  6054  00380C  EF7B  F012         	goto	l615
  6055  003810  0A07               	xorlw	7	; case 12
  6056  003812  B4D8               	btfsc	status,2,c
  6057  003814  EFB3  F012         	goto	l618
  6058  003818  EFD9  F00C         	goto	l3334
  6059  00381C  EF0D  F000         	goto	start
  6060  003820                     __end_of_main:
  6061                           	callstack 0
  6062                           
  6063 ;; *************** function _map *****************
  6064 ;; Defined at:
  6065 ;;		line 11 in file "DivFunctions.c"
  6066 ;; Parameters:    Size  Location     Type
  6067 ;;  x               4   26[COMRAM] long 
  6068 ;;  in_min          4   30[COMRAM] long 
  6069 ;;  in_max          4   34[COMRAM] long 
  6070 ;;  out_min         4   38[COMRAM] long 
  6071 ;;  out_max         4   42[COMRAM] long 
  6072 ;; Auto vars:     Size  Location     Type
  6073 ;;		None
  6074 ;; Return value:  Size  Location     Type
  6075 ;;                  4   26[COMRAM] long 
  6076 ;; Registers used:
  6077 ;;		wreg, status,2, status,0, cstack
  6078 ;; Tracked objects:
  6079 ;;		On entry : 0/0
  6080 ;;		On exit  : 0/0
  6081 ;;		Unchanged: 0/0
  6082 ;; Data sizes:     COMRAM   BANK5   BANK6   BANK7   BANK8   BANK9  BANK10  BANK11  BANK12  BANK13  BANK14  BANK15  BANK1
      +6  BANK17  BANK18  BANK19  BANK20  BANK21
  6083 ;;      Params:        20       0       0       0       0       0       0       0       0       0       0       0       
      +0       0       0       0       0       0
  6084 ;;      Locals:         0       0       0       0       0       0       0       0       0       0       0       0       
      +0       0       0       0       0       0
  6085 ;;      Temps:          0       0       0       0       0       0       0       0       0       0       0       0       
      +0       0       0       0       0       0
  6086 ;;      Totals:        20       0       0       0       0       0       0       0       0       0       0       0       
      +0       0       0       0       0       0
  6087 ;;Total ram usage:       20 bytes
  6088 ;; Hardware stack levels used:    1
  6089 ;; Hardware stack levels required when called:    5
  6090 ;; This function calls:
  6091 ;;		___aldiv
  6092 ;;		___lmul
  6093 ;; This function is called by:
  6094 ;;		_main
  6095 ;; This function uses a non-reentrant model
  6096 ;;
  6097                           
  6098                           	psect	text1
  6099  003B74                     __ptext1:
  6100                           	callstack 0
  6101  003B74                     _map:
  6102                           	callstack 122
  6103  003B74                     
  6104                           ;DivFunctions.c: 12:   return (x - in_min) * (out_max - out_min) / (in_max - in_min) + o
      +                          ut_min;
  6105  003B74  501F               	movf	map@in_min^(0+1280),w,c
  6106  003B76  5C1B               	subwf	map@x^(0+1280),w,c
  6107  003B78  6E01               	movwf	___lmul@multiplier^(0+1280),c
  6108  003B7A  5020               	movf	(map@in_min+1)^(0+1280),w,c
  6109  003B7C  581C               	subwfb	(map@x+1)^(0+1280),w,c
  6110  003B7E  6E02               	movwf	(___lmul@multiplier+1)^(0+1280),c
  6111  003B80  5021               	movf	(map@in_min+2)^(0+1280),w,c
  6112  003B82  581D               	subwfb	(map@x+2)^(0+1280),w,c
  6113  003B84  6E03               	movwf	(___lmul@multiplier+2)^(0+1280),c
  6114  003B86  5022               	movf	(map@in_min+3)^(0+1280),w,c
  6115  003B88  581E               	subwfb	(map@x+3)^(0+1280),w,c
  6116  003B8A  6E04               	movwf	(___lmul@multiplier+3)^(0+1280),c
  6117  003B8C  5027               	movf	map@out_min^(0+1280),w,c
  6118  003B8E  5C2B               	subwf	map@out_max^(0+1280),w,c
  6119  003B90  6E05               	movwf	___lmul@multiplicand^(0+1280),c
  6120  003B92  5028               	movf	(map@out_min+1)^(0+1280),w,c
  6121  003B94  582C               	subwfb	(map@out_max+1)^(0+1280),w,c
  6122  003B96  6E06               	movwf	(___lmul@multiplicand+1)^(0+1280),c
  6123  003B98  5029               	movf	(map@out_min+2)^(0+1280),w,c
  6124  003B9A  582D               	subwfb	(map@out_max+2)^(0+1280),w,c
  6125  003B9C  6E07               	movwf	(___lmul@multiplicand+2)^(0+1280),c
  6126  003B9E  502A               	movf	(map@out_min+3)^(0+1280),w,c
  6127  003BA0  582E               	subwfb	(map@out_max+3)^(0+1280),w,c
  6128  003BA2  6E08               	movwf	(___lmul@multiplicand+3)^(0+1280),c
  6129  003BA4  ECF7  F01D         	call	___lmul	;wreg free
  6130  003BA8  C501  F50D         	movff	?___lmul,___aldiv@dividend
  6131  003BAC  C502  F50E         	movff	?___lmul+1,___aldiv@dividend+1
  6132  003BB0  C503  F50F         	movff	?___lmul+2,___aldiv@dividend+2
  6133  003BB4  C504  F510         	movff	?___lmul+3,___aldiv@dividend+3
  6134  003BB8  501F               	movf	map@in_min^(0+1280),w,c
  6135  003BBA  5C23               	subwf	map@in_max^(0+1280),w,c
  6136  003BBC  6E11               	movwf	___aldiv@divisor^(0+1280),c
  6137  003BBE  5020               	movf	(map@in_min+1)^(0+1280),w,c
  6138  003BC0  5824               	subwfb	(map@in_max+1)^(0+1280),w,c
  6139  003BC2  6E12               	movwf	(___aldiv@divisor+1)^(0+1280),c
  6140  003BC4  5021               	movf	(map@in_min+2)^(0+1280),w,c
  6141  003BC6  5825               	subwfb	(map@in_max+2)^(0+1280),w,c
  6142  003BC8  6E13               	movwf	(___aldiv@divisor+2)^(0+1280),c
  6143  003BCA  5022               	movf	(map@in_min+3)^(0+1280),w,c
  6144  003BCC  5826               	subwfb	(map@in_max+3)^(0+1280),w,c
  6145  003BCE  6E14               	movwf	(___aldiv@divisor+3)^(0+1280),c
  6146  003BD0  EC10  F01C         	call	___aldiv	;wreg free
  6147  003BD4  5027               	movf	map@out_min^(0+1280),w,c
  6148  003BD6  240D               	addwf	?___aldiv^(0+1280),w,c
  6149  003BD8  6E1B               	movwf	?_map^(0+1280),c
  6150  003BDA  5028               	movf	(map@out_min+1)^(0+1280),w,c
  6151  003BDC  200E               	addwfc	(?___aldiv+1)^(0+1280),w,c
  6152  003BDE  6E1C               	movwf	(?_map+1)^(0+1280),c
  6153  003BE0  5029               	movf	(map@out_min+2)^(0+1280),w,c
  6154  003BE2  200F               	addwfc	(?___aldiv+2)^(0+1280),w,c
  6155  003BE4  6E1D               	movwf	(?_map+2)^(0+1280),c
  6156  003BE6  502A               	movf	(map@out_min+3)^(0+1280),w,c
  6157  003BE8  2010               	addwfc	(?___aldiv+3)^(0+1280),w,c
  6158  003BEA  6E1E               	movwf	(?_map+3)^(0+1280),c
  6159  003BEC  0012               	return		;funcret
  6160  003BEE                     __end_of_map:
  6161                           	callstack 0
  6162                           
  6163 ;; *************** function ___lmul *****************
  6164 ;; Defined at:
  6165 ;;		line 15 in file "C:\Program Files\Microchip\xc8\v2.31\pic\sources\c99\common\Umul32.c"
  6166 ;; Parameters:    Size  Location     Type
  6167 ;;  multiplier      4    0[COMRAM] unsigned long 
  6168 ;;  multiplicand    4    4[COMRAM] unsigned long 
  6169 ;; Auto vars:     Size  Location     Type
  6170 ;;  product         4    8[COMRAM] unsigned long 
  6171 ;; Return value:  Size  Location     Type
  6172 ;;                  4    0[COMRAM] unsigned long 
  6173 ;; Registers used:
  6174 ;;		wreg, status,2, status,0
  6175 ;; Tracked objects:
  6176 ;;		On entry : 0/0
  6177 ;;		On exit  : 0/0
  6178 ;;		Unchanged: 0/0
  6179 ;; Data sizes:     COMRAM   BANK5   BANK6   BANK7   BANK8   BANK9  BANK10  BANK11  BANK12  BANK13  BANK14  BANK15  BANK1
      +6  BANK17  BANK18  BANK19  BANK20  BANK21
  6180 ;;      Params:         8       0       0       0       0       0       0       0       0       0       0       0       
      +0       0       0       0       0       0
  6181 ;;      Locals:         4       0       0       0       0       0       0       0       0       0       0       0       
      +0       0       0       0       0       0
  6182 ;;      Temps:          0       0       0       0       0       0       0       0       0       0       0       0       
      +0       0       0       0       0       0
  6183 ;;      Totals:        12       0       0       0       0       0       0       0       0       0       0       0       
      +0       0       0       0       0       0
  6184 ;;Total ram usage:       12 bytes
  6185 ;; Hardware stack levels used:    1
  6186 ;; Hardware stack levels required when called:    4
  6187 ;; This function calls:
  6188 ;;		Nothing
  6189 ;; This function is called by:
  6190 ;;		_map
  6191 ;; This function uses a non-reentrant model
  6192 ;;
  6193                           
  6194                           	psect	text2
  6195  003BEE                     __ptext2:
  6196                           	callstack 0
  6197  003BEE                     ___lmul:
  6198                           	callstack 122
  6199  003BEE  0E00               	movlw	0
  6200  003BF0  6E09               	movwf	___lmul@product^(0+1280),c
  6201  003BF2  0E00               	movlw	0
  6202  003BF4  6E0A               	movwf	(___lmul@product+1)^(0+1280),c
  6203  003BF6  0E00               	movlw	0
  6204  003BF8  6E0B               	movwf	(___lmul@product+2)^(0+1280),c
  6205  003BFA  0E00               	movlw	0
  6206  003BFC  6E0C               	movwf	(___lmul@product+3)^(0+1280),c
  6207  003BFE                     l3040:
  6208  003BFE  A001               	btfss	___lmul@multiplier^(0+1280),0,c
  6209  003C00  EF04  F01E         	goto	u2741
  6210  003C04  EF06  F01E         	goto	u2740
  6211  003C08                     u2741:
  6212  003C08  EF0E  F01E         	goto	l3044
  6213  003C0C                     u2740:
  6214  003C0C  5005               	movf	___lmul@multiplicand^(0+1280),w,c
  6215  003C0E  2609               	addwf	___lmul@product^(0+1280),f,c
  6216  003C10  5006               	movf	(___lmul@multiplicand+1)^(0+1280),w,c
  6217  003C12  220A               	addwfc	(___lmul@product+1)^(0+1280),f,c
  6218  003C14  5007               	movf	(___lmul@multiplicand+2)^(0+1280),w,c
  6219  003C16  220B               	addwfc	(___lmul@product+2)^(0+1280),f,c
  6220  003C18  5008               	movf	(___lmul@multiplicand+3)^(0+1280),w,c
  6221  003C1A  220C               	addwfc	(___lmul@product+3)^(0+1280),f,c
  6222  003C1C                     l3044:
  6223  003C1C  90D8               	bcf	status,0,c
  6224  003C1E  3605               	rlcf	___lmul@multiplicand^(0+1280),f,c
  6225  003C20  3606               	rlcf	(___lmul@multiplicand+1)^(0+1280),f,c
  6226  003C22  3607               	rlcf	(___lmul@multiplicand+2)^(0+1280),f,c
  6227  003C24  3608               	rlcf	(___lmul@multiplicand+3)^(0+1280),f,c
  6228  003C26  90D8               	bcf	status,0,c
  6229  003C28  3204               	rrcf	(___lmul@multiplier+3)^(0+1280),f,c
  6230  003C2A  3203               	rrcf	(___lmul@multiplier+2)^(0+1280),f,c
  6231  003C2C  3202               	rrcf	(___lmul@multiplier+1)^(0+1280),f,c
  6232  003C2E  3201               	rrcf	___lmul@multiplier^(0+1280),f,c
  6233  003C30  5001               	movf	___lmul@multiplier^(0+1280),w,c
  6234  003C32  1002               	iorwf	(___lmul@multiplier+1)^(0+1280),w,c
  6235  003C34  1003               	iorwf	(___lmul@multiplier+2)^(0+1280),w,c
  6236  003C36  1004               	iorwf	(___lmul@multiplier+3)^(0+1280),w,c
  6237  003C38  A4D8               	btfss	status,2,c
  6238  003C3A  EF21  F01E         	goto	u2751
  6239  003C3E  EF23  F01E         	goto	u2750
  6240  003C42                     u2751:
  6241  003C42  EFFF  F01D         	goto	l3040
  6242  003C46                     u2750:
  6243  003C46  C509  F501         	movff	___lmul@product,?___lmul
  6244  003C4A  C50A  F502         	movff	___lmul@product+1,?___lmul+1
  6245  003C4E  C50B  F503         	movff	___lmul@product+2,?___lmul+2
  6246  003C52  C50C  F504         	movff	___lmul@product+3,?___lmul+3
  6247  003C56  0012               	return		;funcret
  6248  003C58                     __end_of___lmul:
  6249                           	callstack 0
  6250                           
  6251 ;; *************** function ___aldiv *****************
  6252 ;; Defined at:
  6253 ;;		line 7 in file "C:\Program Files\Microchip\xc8\v2.31\pic\sources\c99\common\aldiv.c"
  6254 ;; Parameters:    Size  Location     Type
  6255 ;;  dividend        4   12[COMRAM] long 
  6256 ;;  divisor         4   16[COMRAM] long 
  6257 ;; Auto vars:     Size  Location     Type
  6258 ;;  quotient        4   22[COMRAM] long 
  6259 ;;  sign            1   21[COMRAM] unsigned char 
  6260 ;;  counter         1   20[COMRAM] unsigned char 
  6261 ;; Return value:  Size  Location     Type
  6262 ;;                  4   12[COMRAM] long 
  6263 ;; Registers used:
  6264 ;;		wreg, status,2, status,0
  6265 ;; Tracked objects:
  6266 ;;		On entry : 0/0
  6267 ;;		On exit  : 0/0
  6268 ;;		Unchanged: 0/0
  6269 ;; Data sizes:     COMRAM   BANK5   BANK6   BANK7   BANK8   BANK9  BANK10  BANK11  BANK12  BANK13  BANK14  BANK15  BANK1
      +6  BANK17  BANK18  BANK19  BANK20  BANK21
  6270 ;;      Params:         8       0       0       0       0       0       0       0       0       0       0       0       
      +0       0       0       0       0       0
  6271 ;;      Locals:         6       0       0       0       0       0       0       0       0       0       0       0       
      +0       0       0       0       0       0
  6272 ;;      Temps:          0       0       0       0       0       0       0       0       0       0       0       0       
      +0       0       0       0       0       0
  6273 ;;      Totals:        14       0       0       0       0       0       0       0       0       0       0       0       
      +0       0       0       0       0       0
  6274 ;;Total ram usage:       14 bytes
  6275 ;; Hardware stack levels used:    1
  6276 ;; Hardware stack levels required when called:    4
  6277 ;; This function calls:
  6278 ;;		Nothing
  6279 ;; This function is called by:
  6280 ;;		_map
  6281 ;; This function uses a non-reentrant model
  6282 ;;
  6283                           
  6284                           	psect	text3
  6285  003820                     __ptext3:
  6286                           	callstack 0
  6287  003820                     ___aldiv:
  6288                           	callstack 122
  6289  003820  0E00               	movlw	0
  6290  003822  6E16               	movwf	___aldiv@sign^(0+1280),c
  6291  003824  BE14               	btfsc	(___aldiv@divisor+3)^(0+1280),7,c
  6292  003826  EF19  F01C         	goto	u2760
  6293  00382A  EF17  F01C         	goto	u2761
  6294  00382E                     u2761:
  6295  00382E  EF23  F01C         	goto	l3056
  6296  003832                     u2760:
  6297  003832  1E14               	comf	(___aldiv@divisor+3)^(0+1280),f,c
  6298  003834  1E13               	comf	(___aldiv@divisor+2)^(0+1280),f,c
  6299  003836  1E12               	comf	(___aldiv@divisor+1)^(0+1280),f,c
  6300  003838  6C11               	negf	___aldiv@divisor^(0+1280),c
  6301  00383A  0E00               	movlw	0
  6302  00383C  2212               	addwfc	(___aldiv@divisor+1)^(0+1280),f,c
  6303  00383E  2213               	addwfc	(___aldiv@divisor+2)^(0+1280),f,c
  6304  003840  2214               	addwfc	(___aldiv@divisor+3)^(0+1280),f,c
  6305  003842  0E01               	movlw	1
  6306  003844  6E16               	movwf	___aldiv@sign^(0+1280),c
  6307  003846                     l3056:
  6308  003846  BE10               	btfsc	(___aldiv@dividend+3)^(0+1280),7,c
  6309  003848  EF2A  F01C         	goto	u2770
  6310  00384C  EF28  F01C         	goto	u2771
  6311  003850                     u2771:
  6312  003850  EF34  F01C         	goto	l3062
  6313  003854                     u2770:
  6314  003854  1E10               	comf	(___aldiv@dividend+3)^(0+1280),f,c
  6315  003856  1E0F               	comf	(___aldiv@dividend+2)^(0+1280),f,c
  6316  003858  1E0E               	comf	(___aldiv@dividend+1)^(0+1280),f,c
  6317  00385A  6C0D               	negf	___aldiv@dividend^(0+1280),c
  6318  00385C  0E00               	movlw	0
  6319  00385E  220E               	addwfc	(___aldiv@dividend+1)^(0+1280),f,c
  6320  003860  220F               	addwfc	(___aldiv@dividend+2)^(0+1280),f,c
  6321  003862  2210               	addwfc	(___aldiv@dividend+3)^(0+1280),f,c
  6322  003864  0E01               	movlw	1
  6323  003866  1A16               	xorwf	___aldiv@sign^(0+1280),f,c
  6324  003868                     l3062:
  6325  003868  0E00               	movlw	0
  6326  00386A  6E17               	movwf	___aldiv@quotient^(0+1280),c
  6327  00386C  0E00               	movlw	0
  6328  00386E  6E18               	movwf	(___aldiv@quotient+1)^(0+1280),c
  6329  003870  0E00               	movlw	0
  6330  003872  6E19               	movwf	(___aldiv@quotient+2)^(0+1280),c
  6331  003874  0E00               	movlw	0
  6332  003876  6E1A               	movwf	(___aldiv@quotient+3)^(0+1280),c
  6333  003878  5011               	movf	___aldiv@divisor^(0+1280),w,c
  6334  00387A  1012               	iorwf	(___aldiv@divisor+1)^(0+1280),w,c
  6335  00387C  1013               	iorwf	(___aldiv@divisor+2)^(0+1280),w,c
  6336  00387E  1014               	iorwf	(___aldiv@divisor+3)^(0+1280),w,c
  6337  003880  B4D8               	btfsc	status,2,c
  6338  003882  EF45  F01C         	goto	u2781
  6339  003886  EF47  F01C         	goto	u2780
  6340  00388A                     u2781:
  6341  00388A  EF7D  F01C         	goto	l3084
  6342  00388E                     u2780:
  6343  00388E  0E01               	movlw	1
  6344  003890  6E15               	movwf	___aldiv@counter^(0+1280),c
  6345  003892  EF51  F01C         	goto	l3070
  6346  003896                     l3068:
  6347  003896  90D8               	bcf	status,0,c
  6348  003898  3611               	rlcf	___aldiv@divisor^(0+1280),f,c
  6349  00389A  3612               	rlcf	(___aldiv@divisor+1)^(0+1280),f,c
  6350  00389C  3613               	rlcf	(___aldiv@divisor+2)^(0+1280),f,c
  6351  00389E  3614               	rlcf	(___aldiv@divisor+3)^(0+1280),f,c
  6352  0038A0  2A15               	incf	___aldiv@counter^(0+1280),f,c
  6353  0038A2                     l3070:
  6354  0038A2  AE14               	btfss	(___aldiv@divisor+3)^(0+1280),7,c
  6355  0038A4  EF56  F01C         	goto	u2791
  6356  0038A8  EF58  F01C         	goto	u2790
  6357  0038AC                     u2791:
  6358  0038AC  EF4B  F01C         	goto	l3068
  6359  0038B0                     u2790:
  6360  0038B0                     l3072:
  6361  0038B0  90D8               	bcf	status,0,c
  6362  0038B2  3617               	rlcf	___aldiv@quotient^(0+1280),f,c
  6363  0038B4  3618               	rlcf	(___aldiv@quotient+1)^(0+1280),f,c
  6364  0038B6  3619               	rlcf	(___aldiv@quotient+2)^(0+1280),f,c
  6365  0038B8  361A               	rlcf	(___aldiv@quotient+3)^(0+1280),f,c
  6366  0038BA  5011               	movf	___aldiv@divisor^(0+1280),w,c
  6367  0038BC  5C0D               	subwf	___aldiv@dividend^(0+1280),w,c
  6368  0038BE  5012               	movf	(___aldiv@divisor+1)^(0+1280),w,c
  6369  0038C0  580E               	subwfb	(___aldiv@dividend+1)^(0+1280),w,c
  6370  0038C2  5013               	movf	(___aldiv@divisor+2)^(0+1280),w,c
  6371  0038C4  580F               	subwfb	(___aldiv@dividend+2)^(0+1280),w,c
  6372  0038C6  5014               	movf	(___aldiv@divisor+3)^(0+1280),w,c
  6373  0038C8  5810               	subwfb	(___aldiv@dividend+3)^(0+1280),w,c
  6374  0038CA  A0D8               	btfss	status,0,c
  6375  0038CC  EF6A  F01C         	goto	u2801
  6376  0038D0  EF6C  F01C         	goto	u2800
  6377  0038D4                     u2801:
  6378  0038D4  EF75  F01C         	goto	l3080
  6379  0038D8                     u2800:
  6380  0038D8  5011               	movf	___aldiv@divisor^(0+1280),w,c
  6381  0038DA  5E0D               	subwf	___aldiv@dividend^(0+1280),f,c
  6382  0038DC  5012               	movf	(___aldiv@divisor+1)^(0+1280),w,c
  6383  0038DE  5A0E               	subwfb	(___aldiv@dividend+1)^(0+1280),f,c
  6384  0038E0  5013               	movf	(___aldiv@divisor+2)^(0+1280),w,c
  6385  0038E2  5A0F               	subwfb	(___aldiv@dividend+2)^(0+1280),f,c
  6386  0038E4  5014               	movf	(___aldiv@divisor+3)^(0+1280),w,c
  6387  0038E6  5A10               	subwfb	(___aldiv@dividend+3)^(0+1280),f,c
  6388  0038E8  8017               	bsf	___aldiv@quotient^(0+1280),0,c
  6389  0038EA                     l3080:
  6390  0038EA  90D8               	bcf	status,0,c
  6391  0038EC  3214               	rrcf	(___aldiv@divisor+3)^(0+1280),f,c
  6392  0038EE  3213               	rrcf	(___aldiv@divisor+2)^(0+1280),f,c
  6393  0038F0  3212               	rrcf	(___aldiv@divisor+1)^(0+1280),f,c
  6394  0038F2  3211               	rrcf	___aldiv@divisor^(0+1280),f,c
  6395  0038F4  2E15               	decfsz	___aldiv@counter^(0+1280),f,c
  6396  0038F6  EF58  F01C         	goto	l3072
  6397  0038FA                     l3084:
  6398  0038FA  5016               	movf	___aldiv@sign^(0+1280),w,c
  6399  0038FC  B4D8               	btfsc	status,2,c
  6400  0038FE  EF83  F01C         	goto	u2811
  6401  003902  EF85  F01C         	goto	u2810
  6402  003906                     u2811:
  6403  003906  EF8D  F01C         	goto	l3088
  6404  00390A                     u2810:
  6405  00390A  1E1A               	comf	(___aldiv@quotient+3)^(0+1280),f,c
  6406  00390C  1E19               	comf	(___aldiv@quotient+2)^(0+1280),f,c
  6407  00390E  1E18               	comf	(___aldiv@quotient+1)^(0+1280),f,c
  6408  003910  6C17               	negf	___aldiv@quotient^(0+1280),c
  6409  003912  0E00               	movlw	0
  6410  003914  2218               	addwfc	(___aldiv@quotient+1)^(0+1280),f,c
  6411  003916  2219               	addwfc	(___aldiv@quotient+2)^(0+1280),f,c
  6412  003918  221A               	addwfc	(___aldiv@quotient+3)^(0+1280),f,c
  6413  00391A                     l3088:
  6414  00391A  C517  F50D         	movff	___aldiv@quotient,?___aldiv
  6415  00391E  C518  F50E         	movff	___aldiv@quotient+1,?___aldiv+1
  6416  003922  C519  F50F         	movff	___aldiv@quotient+2,?___aldiv+2
  6417  003926  C51A  F510         	movff	___aldiv@quotient+3,?___aldiv+3
  6418  00392A  0012               	return		;funcret
  6419  00392C                     __end_of___aldiv:
  6420                           	callstack 0
  6421                           
  6422 ;; *************** function _SYSTEM_Initialize *****************
  6423 ;; Defined at:
  6424 ;;		line 50 in file "mcc_generated_files/mcc.c"
  6425 ;; Parameters:    Size  Location     Type
  6426 ;;		None
  6427 ;; Auto vars:     Size  Location     Type
  6428 ;;		None
  6429 ;; Return value:  Size  Location     Type
  6430 ;;                  1    wreg      void 
  6431 ;; Registers used:
  6432 ;;		wreg, status,2, status,0, cstack
  6433 ;; Tracked objects:
  6434 ;;		On entry : 0/0
  6435 ;;		On exit  : 0/0
  6436 ;;		Unchanged: 0/0
  6437 ;; Data sizes:     COMRAM   BANK5   BANK6   BANK7   BANK8   BANK9  BANK10  BANK11  BANK12  BANK13  BANK14  BANK15  BANK1
      +6  BANK17  BANK18  BANK19  BANK20  BANK21
  6438 ;;      Params:         0       0       0       0       0       0       0       0       0       0       0       0       
      +0       0       0       0       0       0
  6439 ;;      Locals:         0       0       0       0       0       0       0       0       0       0       0       0       
      +0       0       0       0       0       0
  6440 ;;      Temps:          0       0       0       0       0       0       0       0       0       0       0       0       
      +0       0       0       0       0       0
  6441 ;;      Totals:         0       0       0       0       0       0       0       0       0       0       0       0       
      +0       0       0       0       0       0
  6442 ;;Total ram usage:        0 bytes
  6443 ;; Hardware stack levels used:    1
  6444 ;; Hardware stack levels required when called:    6
  6445 ;; This function calls:
  6446 ;;		_ADCC_Initialize
  6447 ;;		_INTERRUPT_Initialize
  6448 ;;		_OSCILLATOR_Initialize
  6449 ;;		_PIN_MANAGER_Initialize
  6450 ;;		_PMD_Initialize
  6451 ;;		_SPI1_Initialize
  6452 ;;		_TMR2_Initialize
  6453 ;; This function is called by:
  6454 ;;		_main
  6455 ;; This function uses a non-reentrant model
  6456 ;;
  6457                           
  6458                           	psect	text4
  6459  003EBA                     __ptext4:
  6460                           	callstack 0
  6461  003EBA                     _SYSTEM_Initialize:
  6462                           	callstack 121
  6463  003EBA                     
  6464                           ;mcc_generated_files/mcc.c: 52:     INTERRUPT_Initialize();
  6465  003EBA  ECEF  F01F         	call	_INTERRUPT_Initialize	;wreg free
  6466  003EBE                     
  6467                           ;mcc_generated_files/mcc.c: 53:     PMD_Initialize();
  6468  003EBE  EC99  F01F         	call	_PMD_Initialize	;wreg free
  6469  003EC2                     
  6470                           ;mcc_generated_files/mcc.c: 54:     PIN_MANAGER_Initialize();
  6471  003EC2  EC2C  F01E         	call	_PIN_MANAGER_Initialize	;wreg free
  6472  003EC6                     
  6473                           ;mcc_generated_files/mcc.c: 55:     OSCILLATOR_Initialize();
  6474  003EC6  ECA7  F01F         	call	_OSCILLATOR_Initialize	;wreg free
  6475  003ECA                     
  6476                           ;mcc_generated_files/mcc.c: 56:     ADCC_Initialize();
  6477  003ECA  EC8F  F01E         	call	_ADCC_Initialize	;wreg free
  6478  003ECE                     
  6479                           ;mcc_generated_files/mcc.c: 57:     TMR2_Initialize();
  6480  003ECE  ECFF  F01E         	call	_TMR2_Initialize	;wreg free
  6481  003ED2                     
  6482                           ;mcc_generated_files/mcc.c: 58:     SPI1_Initialize();
  6483  003ED2  ECC3  F01F         	call	_SPI1_Initialize	;wreg free
  6484  003ED6  0012               	return		;funcret
  6485  003ED8                     __end_of_SYSTEM_Initialize:
  6486                           	callstack 0
  6487                           
  6488 ;; *************** function _TMR2_Initialize *****************
  6489 ;; Defined at:
  6490 ;;		line 64 in file "mcc_generated_files/tmr2.c"
  6491 ;; Parameters:    Size  Location     Type
  6492 ;;		None
  6493 ;; Auto vars:     Size  Location     Type
  6494 ;;		None
  6495 ;; Return value:  Size  Location     Type
  6496 ;;                  1    wreg      void 
  6497 ;; Registers used:
  6498 ;;		wreg, status,2, status,0, cstack
  6499 ;; Tracked objects:
  6500 ;;		On entry : 0/0
  6501 ;;		On exit  : 0/0
  6502 ;;		Unchanged: 0/0
  6503 ;; Data sizes:     COMRAM   BANK5   BANK6   BANK7   BANK8   BANK9  BANK10  BANK11  BANK12  BANK13  BANK14  BANK15  BANK1
      +6  BANK17  BANK18  BANK19  BANK20  BANK21
  6504 ;;      Params:         0       0       0       0       0       0       0       0       0       0       0       0       
      +0       0       0       0       0       0
  6505 ;;      Locals:         0       0       0       0       0       0       0       0       0       0       0       0       
      +0       0       0       0       0       0
  6506 ;;      Temps:          0       0       0       0       0       0       0       0       0       0       0       0       
      +0       0       0       0       0       0
  6507 ;;      Totals:         0       0       0       0       0       0       0       0       0       0       0       0       
      +0       0       0       0       0       0
  6508 ;;Total ram usage:        0 bytes
  6509 ;; Hardware stack levels used:    1
  6510 ;; Hardware stack levels required when called:    5
  6511 ;; This function calls:
  6512 ;;		_TMR2_SetInterruptHandler
  6513 ;; This function is called by:
  6514 ;;		_SYSTEM_Initialize
  6515 ;; This function uses a non-reentrant model
  6516 ;;
  6517                           
  6518                           	psect	text5
  6519  003DFE                     __ptext5:
  6520                           	callstack 0
  6521  003DFE                     _TMR2_Initialize:
  6522                           	callstack 121
  6523  003DFE                     
  6524                           ;mcc_generated_files/tmr2.c: 69:     T2CLKCON = 0x03;
  6525  003DFE  0E03               	movlw	3
  6526  003E00  0103               	movlb	3	; () banked
  6527  003E02  6F20               	movwf	32,b	;volatile
  6528                           
  6529                           ;mcc_generated_files/tmr2.c: 72:     T2HLT = 0x00;
  6530  003E04  0E00               	movlw	0
  6531  003E06  6F1F               	movwf	31,b	;volatile
  6532                           
  6533                           ;mcc_generated_files/tmr2.c: 75:     T2RST = 0x00;
  6534  003E08  0E00               	movlw	0
  6535  003E0A  6F21               	movwf	33,b	;volatile
  6536                           
  6537                           ;mcc_generated_files/tmr2.c: 78:     T2PR = 0xF9;
  6538  003E0C  0EF9               	movlw	249
  6539  003E0E  6F1D               	movwf	29,b	;volatile
  6540                           
  6541                           ;mcc_generated_files/tmr2.c: 81:     T2TMR = 0x00;
  6542  003E10  0E00               	movlw	0
  6543  003E12  6F1C               	movwf	28,b	;volatile
  6544  003E14                     
  6545                           ; BSR set to: 3
  6546                           ;mcc_generated_files/tmr2.c: 84:     PIR3bits.TMR2IF = 0;
  6547  003E14  96B6               	bcf	182,3,c	;volatile
  6548  003E16                     
  6549                           ; BSR set to: 3
  6550                           ;mcc_generated_files/tmr2.c: 87:     PIE3bits.TMR2IE = 1;
  6551  003E16  86AB               	bsf	171,3,c	;volatile
  6552  003E18                     
  6553                           ; BSR set to: 3
  6554                           ;mcc_generated_files/tmr2.c: 90:     TMR2_SetInterruptHandler(TMR2_DefaultInterruptHandl
      +                          er);
  6555  003E18  0EE2               	movlw	low _TMR2_DefaultInterruptHandler
  6556  003E1A  6E01               	movwf	TMR2_SetInterruptHandler@InterruptHandler^(0+1280),c
  6557  003E1C  0E3F               	movlw	high _TMR2_DefaultInterruptHandler
  6558  003E1E  6E02               	movwf	(TMR2_SetInterruptHandler@InterruptHandler+1)^(0+1280),c
  6559  003E20  ECDD  F01F         	call	_TMR2_SetInterruptHandler	;wreg free
  6560  003E24                     
  6561                           ;mcc_generated_files/tmr2.c: 93:     T2CON = 0xF1;
  6562  003E24  0EF1               	movlw	241
  6563  003E26  0103               	movlb	3	; () banked
  6564  003E28  6F1E               	movwf	30,b	;volatile
  6565  003E2A                     
  6566                           ; BSR set to: 3
  6567  003E2A  0012               	return		;funcret
  6568  003E2C                     __end_of_TMR2_Initialize:
  6569                           	callstack 0
  6570                           
  6571 ;; *************** function _TMR2_SetInterruptHandler *****************
  6572 ;; Defined at:
  6573 ;;		line 186 in file "mcc_generated_files/tmr2.c"
  6574 ;; Parameters:    Size  Location     Type
  6575 ;;  InterruptHan    2    0[COMRAM] PTR FTN()void 
  6576 ;;		 -> LOOPDELAY_TimerISR(1), TMR2_DefaultInterruptHandler(1), 
  6577 ;; Auto vars:     Size  Location     Type
  6578 ;;		None
  6579 ;; Return value:  Size  Location     Type
  6580 ;;                  1    wreg      void 
  6581 ;; Registers used:
  6582 ;;		wreg, status,2, status,0
  6583 ;; Tracked objects:
  6584 ;;		On entry : 0/0
  6585 ;;		On exit  : 0/0
  6586 ;;		Unchanged: 0/0
  6587 ;; Data sizes:     COMRAM   BANK5   BANK6   BANK7   BANK8   BANK9  BANK10  BANK11  BANK12  BANK13  BANK14  BANK15  BANK1
      +6  BANK17  BANK18  BANK19  BANK20  BANK21
  6588 ;;      Params:         2       0       0       0       0       0       0       0       0       0       0       0       
      +0       0       0       0       0       0
  6589 ;;      Locals:         0       0       0       0       0       0       0       0       0       0       0       0       
      +0       0       0       0       0       0
  6590 ;;      Temps:          0       0       0       0       0       0       0       0       0       0       0       0       
      +0       0       0       0       0       0
  6591 ;;      Totals:         2       0       0       0       0       0       0       0       0       0       0       0       
      +0       0       0       0       0       0
  6592 ;;Total ram usage:        2 bytes
  6593 ;; Hardware stack levels used:    1
  6594 ;; Hardware stack levels required when called:    4
  6595 ;; This function calls:
  6596 ;;		Nothing
  6597 ;; This function is called by:
  6598 ;;		_TMR2_Initialize
  6599 ;;		_main
  6600 ;; This function uses a non-reentrant model
  6601 ;;
  6602                           
  6603                           	psect	text6
  6604  003FBA                     __ptext6:
  6605                           	callstack 0
  6606  003FBA                     _TMR2_SetInterruptHandler:
  6607                           	callstack 123
  6608  003FBA                     
  6609                           ;mcc_generated_files/tmr2.c: 187:     TMR2_InterruptHandler = InterruptHandler;
  6610  003FBA  C501  F53F         	movff	TMR2_SetInterruptHandler@InterruptHandler,_TMR2_InterruptHandler
  6611  003FBE  C502  F540         	movff	TMR2_SetInterruptHandler@InterruptHandler+1,_TMR2_InterruptHandler+1
  6612  003FC2  0012               	return		;funcret
  6613  003FC4                     __end_of_TMR2_SetInterruptHandler:
  6614                           	callstack 0
  6615                           
  6616 ;; *************** function _SPI1_Initialize *****************
  6617 ;; Defined at:
  6618 ;;		line 64 in file "mcc_generated_files/spi1.c"
  6619 ;; Parameters:    Size  Location     Type
  6620 ;;		None
  6621 ;; Auto vars:     Size  Location     Type
  6622 ;;		None
  6623 ;; Return value:  Size  Location     Type
  6624 ;;                  1    wreg      void 
  6625 ;; Registers used:
  6626 ;;		wreg, status,2
  6627 ;; Tracked objects:
  6628 ;;		On entry : 0/0
  6629 ;;		On exit  : 0/0
  6630 ;;		Unchanged: 0/0
  6631 ;; Data sizes:     COMRAM   BANK5   BANK6   BANK7   BANK8   BANK9  BANK10  BANK11  BANK12  BANK13  BANK14  BANK15  BANK1
      +6  BANK17  BANK18  BANK19  BANK20  BANK21
  6632 ;;      Params:         0       0       0       0       0       0       0       0       0       0       0       0       
      +0       0       0       0       0       0
  6633 ;;      Locals:         0       0       0       0       0       0       0       0       0       0       0       0       
      +0       0       0       0       0       0
  6634 ;;      Temps:          0       0       0       0       0       0       0       0       0       0       0       0       
      +0       0       0       0       0       0
  6635 ;;      Totals:         0       0       0       0       0       0       0       0       0       0       0       0       
      +0       0       0       0       0       0
  6636 ;;Total ram usage:        0 bytes
  6637 ;; Hardware stack levels used:    1
  6638 ;; Hardware stack levels required when called:    4
  6639 ;; This function calls:
  6640 ;;		Nothing
  6641 ;; This function is called by:
  6642 ;;		_SYSTEM_Initialize
  6643 ;; This function uses a non-reentrant model
  6644 ;;
  6645                           
  6646                           	psect	text7
  6647  003F86                     __ptext7:
  6648                           	callstack 0
  6649  003F86                     _SPI1_Initialize:
  6650                           	callstack 122
  6651  003F86                     
  6652                           ;mcc_generated_files/spi1.c: 67:     SPI1CON0 = 0x02;
  6653  003F86  0E02               	movlw	2
  6654  003F88  0100               	movlb	0	; () banked
  6655  003F8A  6F84               	movwf	132,b	;volatile
  6656                           
  6657                           ;mcc_generated_files/spi1.c: 69:     SPI1CON1 = 0x40;
  6658  003F8C  0E40               	movlw	64
  6659  003F8E  6F85               	movwf	133,b	;volatile
  6660                           
  6661                           ;mcc_generated_files/spi1.c: 71:     SPI1CON2 = 0x00;
  6662  003F90  0E00               	movlw	0
  6663  003F92  6F86               	movwf	134,b	;volatile
  6664                           
  6665                           ;mcc_generated_files/spi1.c: 73:     SPI1CLK = 0x00;
  6666  003F94  0E00               	movlw	0
  6667  003F96  6F8C               	movwf	140,b	;volatile
  6668                           
  6669                           ;mcc_generated_files/spi1.c: 75:     SPI1BAUD = 0x03;
  6670  003F98  0E03               	movlw	3
  6671  003F9A  6F89               	movwf	137,b	;volatile
  6672  003F9C                     
  6673                           ; BSR set to: 0
  6674                           ;mcc_generated_files/spi1.c: 76:     TRISBbits.TRISB6 = 0;
  6675  003F9C  9CC7               	bcf	199,6,c	;volatile
  6676  003F9E                     
  6677                           ; BSR set to: 0
  6678  003F9E  0012               	return		;funcret
  6679  003FA0                     __end_of_SPI1_Initialize:
  6680                           	callstack 0
  6681                           
  6682 ;; *************** function _PMD_Initialize *****************
  6683 ;; Defined at:
  6684 ;;		line 77 in file "mcc_generated_files/mcc.c"
  6685 ;; Parameters:    Size  Location     Type
  6686 ;;		None
  6687 ;; Auto vars:     Size  Location     Type
  6688 ;;		None
  6689 ;; Return value:  Size  Location     Type
  6690 ;;                  1    wreg      void 
  6691 ;; Registers used:
  6692 ;;		wreg, status,2
  6693 ;; Tracked objects:
  6694 ;;		On entry : 0/0
  6695 ;;		On exit  : 0/0
  6696 ;;		Unchanged: 0/0
  6697 ;; Data sizes:     COMRAM   BANK5   BANK6   BANK7   BANK8   BANK9  BANK10  BANK11  BANK12  BANK13  BANK14  BANK15  BANK1
      +6  BANK17  BANK18  BANK19  BANK20  BANK21
  6698 ;;      Params:         0       0       0       0       0       0       0       0       0       0       0       0       
      +0       0       0       0       0       0
  6699 ;;      Locals:         0       0       0       0       0       0       0       0       0       0       0       0       
      +0       0       0       0       0       0
  6700 ;;      Temps:          0       0       0       0       0       0       0       0       0       0       0       0       
      +0       0       0       0       0       0
  6701 ;;      Totals:         0       0       0       0       0       0       0       0       0       0       0       0       
      +0       0       0       0       0       0
  6702 ;;Total ram usage:        0 bytes
  6703 ;; Hardware stack levels used:    1
  6704 ;; Hardware stack levels required when called:    4
  6705 ;; This function calls:
  6706 ;;		Nothing
  6707 ;; This function is called by:
  6708 ;;		_SYSTEM_Initialize
  6709 ;; This function uses a non-reentrant model
  6710 ;;
  6711                           
  6712                           	psect	text8
  6713  003F32                     __ptext8:
  6714                           	callstack 0
  6715  003F32                     _PMD_Initialize:
  6716                           	callstack 122
  6717  003F32                     
  6718                           ;mcc_generated_files/mcc.c: 80:     PMD0 = 0x00;
  6719  003F32  0E00               	movlw	0
  6720  003F34  0100               	movlb	0	; () banked
  6721  003F36  6F63               	movwf	99,b	;volatile
  6722                           
  6723                           ;mcc_generated_files/mcc.c: 82:     PMD1 = 0x00;
  6724  003F38  0E00               	movlw	0
  6725  003F3A  6F64               	movwf	100,b	;volatile
  6726                           
  6727                           ;mcc_generated_files/mcc.c: 84:     PMD2 = 0x00;
  6728  003F3C  0E00               	movlw	0
  6729  003F3E  6F65               	movwf	101,b	;volatile
  6730                           
  6731                           ;mcc_generated_files/mcc.c: 86:     PMD3 = 0x00;
  6732  003F40  0E00               	movlw	0
  6733  003F42  6F66               	movwf	102,b	;volatile
  6734                           
  6735                           ;mcc_generated_files/mcc.c: 88:     PMD4 = 0x00;
  6736  003F44  0E00               	movlw	0
  6737  003F46  6F67               	movwf	103,b	;volatile
  6738                           
  6739                           ;mcc_generated_files/mcc.c: 90:     PMD5 = 0x00;
  6740  003F48  0E00               	movlw	0
  6741  003F4A  6F68               	movwf	104,b	;volatile
  6742  003F4C                     
  6743                           ; BSR set to: 0
  6744  003F4C  0012               	return		;funcret
  6745  003F4E                     __end_of_PMD_Initialize:
  6746                           	callstack 0
  6747                           
  6748 ;; *************** function _PIN_MANAGER_Initialize *****************
  6749 ;; Defined at:
  6750 ;;		line 55 in file "mcc_generated_files/pin_manager.c"
  6751 ;; Parameters:    Size  Location     Type
  6752 ;;		None
  6753 ;; Auto vars:     Size  Location     Type
  6754 ;;		None
  6755 ;; Return value:  Size  Location     Type
  6756 ;;                  1    wreg      void 
  6757 ;; Registers used:
  6758 ;;		wreg, status,2
  6759 ;; Tracked objects:
  6760 ;;		On entry : 0/0
  6761 ;;		On exit  : 0/0
  6762 ;;		Unchanged: 0/0
  6763 ;; Data sizes:     COMRAM   BANK5   BANK6   BANK7   BANK8   BANK9  BANK10  BANK11  BANK12  BANK13  BANK14  BANK15  BANK1
      +6  BANK17  BANK18  BANK19  BANK20  BANK21
  6764 ;;      Params:         0       0       0       0       0       0       0       0       0       0       0       0       
      +0       0       0       0       0       0
  6765 ;;      Locals:         0       0       0       0       0       0       0       0       0       0       0       0       
      +0       0       0       0       0       0
  6766 ;;      Temps:          0       0       0       0       0       0       0       0       0       0       0       0       
      +0       0       0       0       0       0
  6767 ;;      Totals:         0       0       0       0       0       0       0       0       0       0       0       0       
      +0       0       0       0       0       0
  6768 ;;Total ram usage:        0 bytes
  6769 ;; Hardware stack levels used:    1
  6770 ;; Hardware stack levels required when called:    4
  6771 ;; This function calls:
  6772 ;;		Nothing
  6773 ;; This function is called by:
  6774 ;;		_SYSTEM_Initialize
  6775 ;; This function uses a non-reentrant model
  6776 ;;
  6777                           
  6778                           	psect	text9
  6779  003C58                     __ptext9:
  6780                           	callstack 0
  6781  003C58                     _PIN_MANAGER_Initialize:
  6782                           	callstack 122
  6783  003C58                     
  6784                           ;mcc_generated_files/pin_manager.c: 60:     LATA = 0x00;
  6785  003C58  0E00               	movlw	0
  6786  003C5A  6EBE               	movwf	190,c	;volatile
  6787                           
  6788                           ;mcc_generated_files/pin_manager.c: 61:     LATB = 0x00;
  6789  003C5C  0E00               	movlw	0
  6790  003C5E  6EBF               	movwf	191,c	;volatile
  6791                           
  6792                           ;mcc_generated_files/pin_manager.c: 62:     LATC = 0x00;
  6793  003C60  0E00               	movlw	0
  6794  003C62  6EC0               	movwf	192,c	;volatile
  6795                           
  6796                           ;mcc_generated_files/pin_manager.c: 67:     TRISA = 0x1F;
  6797  003C64  0E1F               	movlw	31
  6798  003C66  6EC6               	movwf	198,c	;volatile
  6799                           
  6800                           ;mcc_generated_files/pin_manager.c: 68:     TRISB = 0xA0;
  6801  003C68  0EA0               	movlw	160
  6802  003C6A  6EC7               	movwf	199,c	;volatile
  6803                           
  6804                           ;mcc_generated_files/pin_manager.c: 69:     TRISC = 0x57;
  6805  003C6C  0E57               	movlw	87
  6806  003C6E  6EC8               	movwf	200,c	;volatile
  6807                           
  6808                           ;mcc_generated_files/pin_manager.c: 74:     ANSELC = 0xAF;
  6809  003C70  0EAF               	movlw	175
  6810  003C72  0104               	movlb	4	; () banked
  6811  003C74  6F10               	movwf	16,b	;volatile
  6812                           
  6813                           ;mcc_generated_files/pin_manager.c: 75:     ANSELB = 0x00;
  6814  003C76  0E00               	movlw	0
  6815  003C78  6F08               	movwf	8,b	;volatile
  6816                           
  6817                           ;mcc_generated_files/pin_manager.c: 76:     ANSELA = 0x07;
  6818  003C7A  0E07               	movlw	7
  6819  003C7C  6F00               	movwf	0,b	;volatile
  6820                           
  6821                           ;mcc_generated_files/pin_manager.c: 81:     WPUB = 0x80;
  6822  003C7E  0E80               	movlw	128
  6823  003C80  6F09               	movwf	9,b	;volatile
  6824                           
  6825                           ;mcc_generated_files/pin_manager.c: 82:     WPUA = 0x10;
  6826  003C82  0E10               	movlw	16
  6827  003C84  6F01               	movwf	1,b	;volatile
  6828                           
  6829                           ;mcc_generated_files/pin_manager.c: 83:     WPUC = 0x50;
  6830  003C86  0E50               	movlw	80
  6831  003C88  6F11               	movwf	17,b	;volatile
  6832                           
  6833                           ;mcc_generated_files/pin_manager.c: 88:     ODCONA = 0x00;
  6834  003C8A  0E00               	movlw	0
  6835  003C8C  6F02               	movwf	2,b	;volatile
  6836                           
  6837                           ;mcc_generated_files/pin_manager.c: 89:     ODCONB = 0x00;
  6838  003C8E  0E00               	movlw	0
  6839  003C90  6F0A               	movwf	10,b	;volatile
  6840                           
  6841                           ;mcc_generated_files/pin_manager.c: 90:     ODCONC = 0x00;
  6842  003C92  0E00               	movlw	0
  6843  003C94  6F12               	movwf	18,b	;volatile
  6844                           
  6845                           ;mcc_generated_files/pin_manager.c: 95:     SLRCONA = 0x37;
  6846  003C96  0E37               	movlw	55
  6847  003C98  6F03               	movwf	3,b	;volatile
  6848                           
  6849                           ;mcc_generated_files/pin_manager.c: 96:     SLRCONB = 0xF0;
  6850  003C9A  0EF0               	movlw	240
  6851  003C9C  6F0B               	movwf	11,b	;volatile
  6852  003C9E                     
  6853                           ; BSR set to: 4
  6854                           ;mcc_generated_files/pin_manager.c: 97:     SLRCONC = 0xFF;
  6855  003C9E  6913               	setf	19,b	;volatile
  6856                           
  6857                           ;mcc_generated_files/pin_manager.c: 102:     INLVLA = 0x3F;
  6858  003CA0  0E3F               	movlw	63
  6859  003CA2  6F04               	movwf	4,b	;volatile
  6860                           
  6861                           ;mcc_generated_files/pin_manager.c: 103:     INLVLB = 0xF0;
  6862  003CA4  0EF0               	movlw	240
  6863  003CA6  6F0C               	movwf	12,b	;volatile
  6864  003CA8                     
  6865                           ; BSR set to: 4
  6866                           ;mcc_generated_files/pin_manager.c: 104:     INLVLC = 0xFF;
  6867  003CA8  6914               	setf	20,b	;volatile
  6868                           
  6869                           ;mcc_generated_files/pin_manager.c: 113:     SPI1SCKPPS = 0x0E;
  6870  003CAA  0E0E               	movlw	14
  6871  003CAC  0102               	movlb	2	; () banked
  6872  003CAE  6F6A               	movwf	106,b	;volatile
  6873                           
  6874                           ;mcc_generated_files/pin_manager.c: 114:     RB6PPS = 0x1B;
  6875  003CB0  0E1B               	movlw	27
  6876  003CB2  6F0F               	movwf	15,b	;volatile
  6877                           
  6878                           ;mcc_generated_files/pin_manager.c: 115:     RB4PPS = 0x1C;
  6879  003CB4  0E1C               	movlw	28
  6880  003CB6  6F0D               	movwf	13,b	;volatile
  6881                           
  6882                           ;mcc_generated_files/pin_manager.c: 116:     SPI1SDIPPS = 0x0D;
  6883  003CB8  0E0D               	movlw	13
  6884  003CBA  6F6B               	movwf	107,b	;volatile
  6885  003CBC                     
  6886                           ; BSR set to: 2
  6887  003CBC  0012               	return		;funcret
  6888  003CBE                     __end_of_PIN_MANAGER_Initialize:
  6889                           	callstack 0
  6890                           
  6891 ;; *************** function _OSCILLATOR_Initialize *****************
  6892 ;; Defined at:
  6893 ;;		line 61 in file "mcc_generated_files/mcc.c"
  6894 ;; Parameters:    Size  Location     Type
  6895 ;;		None
  6896 ;; Auto vars:     Size  Location     Type
  6897 ;;		None
  6898 ;; Return value:  Size  Location     Type
  6899 ;;                  1    wreg      void 
  6900 ;; Registers used:
  6901 ;;		wreg, status,2
  6902 ;; Tracked objects:
  6903 ;;		On entry : 0/0
  6904 ;;		On exit  : 0/0
  6905 ;;		Unchanged: 0/0
  6906 ;; Data sizes:     COMRAM   BANK5   BANK6   BANK7   BANK8   BANK9  BANK10  BANK11  BANK12  BANK13  BANK14  BANK15  BANK1
      +6  BANK17  BANK18  BANK19  BANK20  BANK21
  6907 ;;      Params:         0       0       0       0       0       0       0       0       0       0       0       0       
      +0       0       0       0       0       0
  6908 ;;      Locals:         0       0       0       0       0       0       0       0       0       0       0       0       
      +0       0       0       0       0       0
  6909 ;;      Temps:          0       0       0       0       0       0       0       0       0       0       0       0       
      +0       0       0       0       0       0
  6910 ;;      Totals:         0       0       0       0       0       0       0       0       0       0       0       0       
      +0       0       0       0       0       0
  6911 ;;Total ram usage:        0 bytes
  6912 ;; Hardware stack levels used:    1
  6913 ;; Hardware stack levels required when called:    4
  6914 ;; This function calls:
  6915 ;;		Nothing
  6916 ;; This function is called by:
  6917 ;;		_SYSTEM_Initialize
  6918 ;; This function uses a non-reentrant model
  6919 ;;
  6920                           
  6921                           	psect	text10
  6922  003F4E                     __ptext10:
  6923                           	callstack 0
  6924  003F4E                     _OSCILLATOR_Initialize:
  6925                           	callstack 122
  6926  003F4E                     
  6927                           ;mcc_generated_files/mcc.c: 64:     OSCCON1 = 0x60;
  6928  003F4E  0E60               	movlw	96
  6929  003F50  0100               	movlb	0	; () banked
  6930  003F52  6FAD               	movwf	173,b	;volatile
  6931                           
  6932                           ;mcc_generated_files/mcc.c: 66:     OSCCON3 = 0x00;
  6933  003F54  0E00               	movlw	0
  6934  003F56  6FAF               	movwf	175,b	;volatile
  6935                           
  6936                           ;mcc_generated_files/mcc.c: 68:     OSCEN = 0x00;
  6937  003F58  0E00               	movlw	0
  6938  003F5A  6FB3               	movwf	179,b	;volatile
  6939                           
  6940                           ;mcc_generated_files/mcc.c: 70:     OSCFRQ = 0x08;
  6941  003F5C  0E08               	movlw	8
  6942  003F5E  6FB1               	movwf	177,b	;volatile
  6943                           
  6944                           ;mcc_generated_files/mcc.c: 72:     OSCTUNE = 0x00;
  6945  003F60  0E00               	movlw	0
  6946  003F62  6FB0               	movwf	176,b	;volatile
  6947                           
  6948                           ;mcc_generated_files/mcc.c: 74:     ACTCON = 0x00;
  6949  003F64  0E00               	movlw	0
  6950  003F66  6FAC               	movwf	172,b	;volatile
  6951  003F68                     
  6952                           ; BSR set to: 0
  6953  003F68  0012               	return		;funcret
  6954  003F6A                     __end_of_OSCILLATOR_Initialize:
  6955                           	callstack 0
  6956                           
  6957 ;; *************** function _INTERRUPT_Initialize *****************
  6958 ;; Defined at:
  6959 ;;		line 52 in file "mcc_generated_files/interrupt_manager.c"
  6960 ;; Parameters:    Size  Location     Type
  6961 ;;		None
  6962 ;; Auto vars:     Size  Location     Type
  6963 ;;		None
  6964 ;; Return value:  Size  Location     Type
  6965 ;;                  1    wreg      void 
  6966 ;; Registers used:
  6967 ;;		None
  6968 ;; Tracked objects:
  6969 ;;		On entry : 0/0
  6970 ;;		On exit  : 0/0
  6971 ;;		Unchanged: 0/0
  6972 ;; Data sizes:     COMRAM   BANK5   BANK6   BANK7   BANK8   BANK9  BANK10  BANK11  BANK12  BANK13  BANK14  BANK15  BANK1
      +6  BANK17  BANK18  BANK19  BANK20  BANK21
  6973 ;;      Params:         0       0       0       0       0       0       0       0       0       0       0       0       
      +0       0       0       0       0       0
  6974 ;;      Locals:         0       0       0       0       0       0       0       0       0       0       0       0       
      +0       0       0       0       0       0
  6975 ;;      Temps:          0       0       0       0       0       0       0       0       0       0       0       0       
      +0       0       0       0       0       0
  6976 ;;      Totals:         0       0       0       0       0       0       0       0       0       0       0       0       
      +0       0       0       0       0       0
  6977 ;;Total ram usage:        0 bytes
  6978 ;; Hardware stack levels used:    1
  6979 ;; Hardware stack levels required when called:    4
  6980 ;; This function calls:
  6981 ;;		Nothing
  6982 ;; This function is called by:
  6983 ;;		_SYSTEM_Initialize
  6984 ;; This function uses a non-reentrant model
  6985 ;;
  6986                           
  6987                           	psect	text11
  6988  003FDE                     __ptext11:
  6989                           	callstack 0
  6990  003FDE                     _INTERRUPT_Initialize:
  6991                           	callstack 122
  6992  003FDE                     
  6993                           ;mcc_generated_files/interrupt_manager.c: 55:     INTCON0bits.IPEN = 0;
  6994  003FDE  9AD6               	bcf	214,5,c	;volatile
  6995  003FE0  0012               	return		;funcret
  6996  003FE2                     __end_of_INTERRUPT_Initialize:
  6997                           	callstack 0
  6998                           
  6999 ;; *************** function _ADCC_Initialize *****************
  7000 ;; Defined at:
  7001 ;;		line 62 in file "mcc_generated_files/adcc.c"
  7002 ;; Parameters:    Size  Location     Type
  7003 ;;		None
  7004 ;; Auto vars:     Size  Location     Type
  7005 ;;		None
  7006 ;; Return value:  Size  Location     Type
  7007 ;;                  1    wreg      void 
  7008 ;; Registers used:
  7009 ;;		wreg, status,2
  7010 ;; Tracked objects:
  7011 ;;		On entry : 0/0
  7012 ;;		On exit  : 0/0
  7013 ;;		Unchanged: 0/0
  7014 ;; Data sizes:     COMRAM   BANK5   BANK6   BANK7   BANK8   BANK9  BANK10  BANK11  BANK12  BANK13  BANK14  BANK15  BANK1
      +6  BANK17  BANK18  BANK19  BANK20  BANK21
  7015 ;;      Params:         0       0       0       0       0       0       0       0       0       0       0       0       
      +0       0       0       0       0       0
  7016 ;;      Locals:         0       0       0       0       0       0       0       0       0       0       0       0       
      +0       0       0       0       0       0
  7017 ;;      Temps:          0       0       0       0       0       0       0       0       0       0       0       0       
      +0       0       0       0       0       0
  7018 ;;      Totals:         0       0       0       0       0       0       0       0       0       0       0       0       
      +0       0       0       0       0       0
  7019 ;;Total ram usage:        0 bytes
  7020 ;; Hardware stack levels used:    1
  7021 ;; Hardware stack levels required when called:    4
  7022 ;; This function calls:
  7023 ;;		Nothing
  7024 ;; This function is called by:
  7025 ;;		_SYSTEM_Initialize
  7026 ;; This function uses a non-reentrant model
  7027 ;;
  7028                           
  7029                           	psect	text12
  7030  003D1E                     __ptext12:
  7031                           	callstack 0
  7032  003D1E                     _ADCC_Initialize:
  7033                           	callstack 122
  7034  003D1E                     
  7035                           ;mcc_generated_files/adcc.c: 66:     ADLTHL = 0x00;
  7036  003D1E  0E00               	movlw	0
  7037  003D20  0103               	movlb	3	; () banked
  7038  003D22  6FD9               	movwf	217,b	;volatile
  7039                           
  7040                           ;mcc_generated_files/adcc.c: 68:     ADLTHH = 0x00;
  7041  003D24  0E00               	movlw	0
  7042  003D26  6FDA               	movwf	218,b	;volatile
  7043                           
  7044                           ;mcc_generated_files/adcc.c: 70:     ADUTHL = 0x00;
  7045  003D28  0E00               	movlw	0
  7046  003D2A  6FDB               	movwf	219,b	;volatile
  7047                           
  7048                           ;mcc_generated_files/adcc.c: 72:     ADUTHH = 0x00;
  7049  003D2C  0E00               	movlw	0
  7050  003D2E  6FDC               	movwf	220,b	;volatile
  7051                           
  7052                           ;mcc_generated_files/adcc.c: 74:     ADSTPTL = 0x00;
  7053  003D30  0E00               	movlw	0
  7054  003D32  6FDF               	movwf	223,b	;volatile
  7055                           
  7056                           ;mcc_generated_files/adcc.c: 76:     ADSTPTH = 0x00;
  7057  003D34  0E00               	movlw	0
  7058  003D36  6FE0               	movwf	224,b	;volatile
  7059                           
  7060                           ;mcc_generated_files/adcc.c: 78:     ADACCU = 0x00;
  7061  003D38  0E00               	movlw	0
  7062  003D3A  6FE5               	movwf	229,b	;volatile
  7063                           
  7064                           ;mcc_generated_files/adcc.c: 80:     ADRPT = 0x00;
  7065  003D3C  0E00               	movlw	0
  7066  003D3E  6FE7               	movwf	231,b	;volatile
  7067                           
  7068                           ;mcc_generated_files/adcc.c: 82:     ADPCH = 0x00;
  7069  003D40  0E00               	movlw	0
  7070  003D42  6FEC               	movwf	236,b	;volatile
  7071                           
  7072                           ;mcc_generated_files/adcc.c: 84:     ADACQL = 0x00;
  7073  003D44  0E00               	movlw	0
  7074  003D46  6FEE               	movwf	238,b	;volatile
  7075                           
  7076                           ;mcc_generated_files/adcc.c: 86:     ADACQH = 0x00;
  7077  003D48  0E00               	movlw	0
  7078  003D4A  6FEF               	movwf	239,b	;volatile
  7079                           
  7080                           ;mcc_generated_files/adcc.c: 88:     ADCAP = 0x00;
  7081  003D4C  0E00               	movlw	0
  7082  003D4E  6FF0               	movwf	240,b	;volatile
  7083                           
  7084                           ;mcc_generated_files/adcc.c: 90:     ADPREL = 0x00;
  7085  003D50  0E00               	movlw	0
  7086  003D52  6FF1               	movwf	241,b	;volatile
  7087                           
  7088                           ;mcc_generated_files/adcc.c: 92:     ADPREH = 0x00;
  7089  003D54  0E00               	movlw	0
  7090  003D56  6FF2               	movwf	242,b	;volatile
  7091                           
  7092                           ;mcc_generated_files/adcc.c: 94:     ADCON1 = 0x00;
  7093  003D58  0E00               	movlw	0
  7094  003D5A  6FF4               	movwf	244,b	;volatile
  7095                           
  7096                           ;mcc_generated_files/adcc.c: 96:     ADCON2 = 0x10;
  7097  003D5C  0E10               	movlw	16
  7098  003D5E  6FF5               	movwf	245,b	;volatile
  7099                           
  7100                           ;mcc_generated_files/adcc.c: 98:     ADCON3 = 0x00;
  7101  003D60  0E00               	movlw	0
  7102  003D62  6FF6               	movwf	246,b	;volatile
  7103                           
  7104                           ;mcc_generated_files/adcc.c: 100:     ADSTAT = 0x00;
  7105  003D64  0E00               	movlw	0
  7106  003D66  6FF7               	movwf	247,b	;volatile
  7107                           
  7108                           ;mcc_generated_files/adcc.c: 102:     ADREF = 0x00;
  7109  003D68  0E00               	movlw	0
  7110  003D6A  6FF8               	movwf	248,b	;volatile
  7111                           
  7112                           ;mcc_generated_files/adcc.c: 104:     ADACT = 0x00;
  7113  003D6C  0E00               	movlw	0
  7114  003D6E  6FF9               	movwf	249,b	;volatile
  7115                           
  7116                           ;mcc_generated_files/adcc.c: 106:     ADCLK = 0x1F;
  7117  003D70  0E1F               	movlw	31
  7118  003D72  6FFA               	movwf	250,b	;volatile
  7119                           
  7120                           ;mcc_generated_files/adcc.c: 108:     ADCON0 = 0x84;
  7121  003D74  0E84               	movlw	132
  7122  003D76  6FF3               	movwf	243,b	;volatile
  7123  003D78                     
  7124                           ; BSR set to: 3
  7125  003D78  0012               	return		;funcret
  7126  003D7A                     __end_of_ADCC_Initialize:
  7127                           	callstack 0
  7128                           
  7129 ;; *************** function _SPI1_Open *****************
  7130 ;; Defined at:
  7131 ;;		line 79 in file "mcc_generated_files/spi1.c"
  7132 ;; Parameters:    Size  Location     Type
  7133 ;;  spi1UniqueCo    1    wreg     enum E355
  7134 ;; Auto vars:     Size  Location     Type
  7135 ;;  spi1UniqueCo    1    1[COMRAM] enum E355
  7136 ;; Return value:  Size  Location     Type
  7137 ;;                  1    wreg      _Bool 
  7138 ;; Registers used:
  7139 ;;		wreg, status,2, status,0, tblptrl, tblptrh, tblptru, prodl, prodh
  7140 ;; Tracked objects:
  7141 ;;		On entry : 0/0
  7142 ;;		On exit  : 0/0
  7143 ;;		Unchanged: 0/0
  7144 ;; Data sizes:     COMRAM   BANK5   BANK6   BANK7   BANK8   BANK9  BANK10  BANK11  BANK12  BANK13  BANK14  BANK15  BANK1
      +6  BANK17  BANK18  BANK19  BANK20  BANK21
  7145 ;;      Params:         0       0       0       0       0       0       0       0       0       0       0       0       
      +0       0       0       0       0       0
  7146 ;;      Locals:         1       0       0       0       0       0       0       0       0       0       0       0       
      +0       0       0       0       0       0
  7147 ;;      Temps:          1       0       0       0       0       0       0       0       0       0       0       0       
      +0       0       0       0       0       0
  7148 ;;      Totals:         2       0       0       0       0       0       0       0       0       0       0       0       
      +0       0       0       0       0       0
  7149 ;;Total ram usage:        2 bytes
  7150 ;; Hardware stack levels used:    1
  7151 ;; Hardware stack levels required when called:    4
  7152 ;; This function calls:
  7153 ;;		Nothing
  7154 ;; This function is called by:
  7155 ;;		_main
  7156 ;; This function uses a non-reentrant model
  7157 ;;
  7158                           
  7159                           	psect	text13
  7160  00392C                     __ptext13:
  7161                           	callstack 0
  7162  00392C                     _SPI1_Open:
  7163                           	callstack 123
  7164                           
  7165                           ; BSR set to: 3
  7166                           ;incstack = 0
  7167                           ;SPI1_Open@spi1UniqueConfiguration stored from wreg
  7168  00392C  6E02               	movwf	SPI1_Open@spi1UniqueConfiguration^(0+1280),c
  7169  00392E                     
  7170                           ;mcc_generated_files/spi1.c: 79: _Bool SPI1_Open(spi1_modes_t spi1UniqueConfiguration);m
      +                          cc_generated_files/spi1.c: 80: {;mcc_generated_files/spi1.c: 81:     if(!SPI1CON0bits.EN
      +                          )
  7171  00392E  0100               	movlb	0	; () banked
  7172  003930  BF84               	btfsc	132,7,b	;volatile
  7173  003932  EF9D  F01C         	goto	u2831
  7174  003936  EF9F  F01C         	goto	u2830
  7175  00393A                     u2831:
  7176  00393A  EF02  F01D         	goto	l294
  7177  00393E                     u2830:
  7178  00393E                     
  7179                           ; BSR set to: 0
  7180                           ;mcc_generated_files/spi1.c: 82:     {;mcc_generated_files/spi1.c: 83:         SPI1CON0 
      +                          = spi1_configuration[spi1UniqueConfiguration].con0;
  7181  00393E  5002               	movf	SPI1_Open@spi1UniqueConfiguration^(0+1280),w,c
  7182  003940  0D05               	mullw	5
  7183  003942  0E01               	movlw	low _spi1_configuration
  7184  003944  24F3               	addwf	243,w,c
  7185  003946  6EF6               	movwf	tblptrl,c
  7186  003948  0E16               	movlw	high _spi1_configuration
  7187  00394A  20F4               	addwfc	244,w,c
  7188  00394C  6EF7               	movwf	tblptrh,c
  7189  00394E                     	if	1	;There are 3 active tblptr bytes
  7190  00394E  6AF8               	clrf	tblptru,c
  7191  003950  0E00               	movlw	low (__mediumconst shr (0+16))
  7192  003952  22F8               	addwfc	tblptru,f,c
  7193  003954                     	endif
  7194  003954  0008               	tblrd		*
  7195  003956  C4F5 F084          	movff	tablat,132	;volatile
  7196                           
  7197                           ;mcc_generated_files/spi1.c: 84:         SPI1CON1 = spi1_configuration[spi1UniqueConfigu
      +                          ration].con1;
  7198  00395A  5002               	movf	SPI1_Open@spi1UniqueConfiguration^(0+1280),w,c
  7199  00395C  0D05               	mullw	5
  7200  00395E  0E01               	movlw	1
  7201  003960  26F3               	addwf	243,f,c
  7202  003962  0E00               	movlw	0
  7203  003964  22F4               	addwfc	244,f,c
  7204  003966  0E01               	movlw	low _spi1_configuration
  7205  003968  24F3               	addwf	243,w,c
  7206  00396A  6EF6               	movwf	tblptrl,c
  7207  00396C  0E16               	movlw	high _spi1_configuration
  7208  00396E  20F4               	addwfc	244,w,c
  7209  003970  6EF7               	movwf	tblptrh,c
  7210  003972                     	if	1	;There are 3 active tblptr bytes
  7211  003972  6AF8               	clrf	tblptru,c
  7212  003974  0E00               	movlw	low (__mediumconst shr (0+16))
  7213  003976  22F8               	addwfc	tblptru,f,c
  7214  003978                     	endif
  7215  003978  0008               	tblrd		*
  7216  00397A  C4F5 F085          	movff	tablat,133	;volatile
  7217                           
  7218                           ;mcc_generated_files/spi1.c: 85:         SPI1CON2 = spi1_configuration[spi1UniqueConfigu
      +                          ration].con2 | (0x1 | 0x2);
  7219  00397E  5002               	movf	SPI1_Open@spi1UniqueConfiguration^(0+1280),w,c
  7220  003980  0D05               	mullw	5
  7221  003982  0E02               	movlw	2
  7222  003984  26F3               	addwf	243,f,c
  7223  003986  0E00               	movlw	0
  7224  003988  22F4               	addwfc	244,f,c
  7225  00398A  0E01               	movlw	low _spi1_configuration
  7226  00398C  24F3               	addwf	243,w,c
  7227  00398E  6EF6               	movwf	tblptrl,c
  7228  003990  0E16               	movlw	high _spi1_configuration
  7229  003992  20F4               	addwfc	244,w,c
  7230  003994  6EF7               	movwf	tblptrh,c
  7231  003996                     	if	1	;There are 3 active tblptr bytes
  7232  003996  6AF8               	clrf	tblptru,c
  7233  003998  0E00               	movlw	low (__mediumconst shr (0+16))
  7234  00399A  22F8               	addwfc	tblptru,f,c
  7235  00399C                     	endif
  7236  00399C  0008               	tblrd		*
  7237  00399E  50F5               	movf	tablat,w,c
  7238  0039A0  0903               	iorlw	3
  7239  0039A2  6F86               	movwf	134,b	;volatile
  7240  0039A4                     
  7241                           ; BSR set to: 0
  7242                           ;mcc_generated_files/spi1.c: 86:         SPI1CLK = 0x00;
  7243  0039A4  0E00               	movlw	0
  7244  0039A6  6F8C               	movwf	140,b	;volatile
  7245  0039A8                     
  7246                           ; BSR set to: 0
  7247                           ;mcc_generated_files/spi1.c: 87:         SPI1BAUD = spi1_configuration[spi1UniqueConfigu
      +                          ration].baud;
  7248  0039A8  5002               	movf	SPI1_Open@spi1UniqueConfiguration^(0+1280),w,c
  7249  0039AA  0D05               	mullw	5
  7250  0039AC  0E03               	movlw	3
  7251  0039AE  26F3               	addwf	243,f,c
  7252  0039B0  0E00               	movlw	0
  7253  0039B2  22F4               	addwfc	244,f,c
  7254  0039B4  0E01               	movlw	low _spi1_configuration
  7255  0039B6  24F3               	addwf	243,w,c
  7256  0039B8  6EF6               	movwf	tblptrl,c
  7257  0039BA  0E16               	movlw	high _spi1_configuration
  7258  0039BC  20F4               	addwfc	244,w,c
  7259  0039BE  6EF7               	movwf	tblptrh,c
  7260  0039C0                     	if	1	;There are 3 active tblptr bytes
  7261  0039C0  6AF8               	clrf	tblptru,c
  7262  0039C2  0E00               	movlw	low (__mediumconst shr (0+16))
  7263  0039C4  22F8               	addwfc	tblptru,f,c
  7264  0039C6                     	endif
  7265  0039C6  0008               	tblrd		*
  7266  0039C8  C4F5 F089          	movff	tablat,137	;volatile
  7267  0039CC                     
  7268                           ; BSR set to: 0
  7269                           ;mcc_generated_files/spi1.c: 88:         TRISBbits.TRISB6 = spi1_configuration[spi1Uniqu
      +                          eConfiguration].operation;
  7270  0039CC  5002               	movf	SPI1_Open@spi1UniqueConfiguration^(0+1280),w,c
  7271  0039CE  0D05               	mullw	5
  7272  0039D0  0E04               	movlw	4
  7273  0039D2  26F3               	addwf	243,f,c
  7274  0039D4  0E00               	movlw	0
  7275  0039D6  22F4               	addwfc	244,f,c
  7276  0039D8  0E01               	movlw	low _spi1_configuration
  7277  0039DA  24F3               	addwf	243,w,c
  7278  0039DC  6EF6               	movwf	tblptrl,c
  7279  0039DE  0E16               	movlw	high _spi1_configuration
  7280  0039E0  20F4               	addwfc	244,w,c
  7281  0039E2  6EF7               	movwf	tblptrh,c
  7282  0039E4                     	if	1	;There are 3 active tblptr bytes
  7283  0039E4  6AF8               	clrf	tblptru,c
  7284  0039E6  0E00               	movlw	low (__mediumconst shr (0+16))
  7285  0039E8  22F8               	addwfc	tblptru,f,c
  7286  0039EA                     	endif
  7287  0039EA  0008               	tblrd		*
  7288  0039EC  0061 F3D4  F501    	movff	tablat,??_SPI1_Open
  7289  0039F2  3A01               	swapf	??_SPI1_Open^(0+1280),f,c
  7290  0039F4  4601               	rlncf	??_SPI1_Open^(0+1280),f,c
  7291  0039F6  4601               	rlncf	??_SPI1_Open^(0+1280),f,c
  7292  0039F8  50C7               	movf	199,w,c	;volatile
  7293  0039FA  1801               	xorwf	??_SPI1_Open^(0+1280),w,c
  7294  0039FC  0BBF               	andlw	-65
  7295  0039FE  1801               	xorwf	??_SPI1_Open^(0+1280),w,c
  7296  003A00  6EC7               	movwf	199,c	;volatile
  7297  003A02                     
  7298                           ; BSR set to: 0
  7299                           ;mcc_generated_files/spi1.c: 89:         SPI1CON0bits.EN = 1;
  7300  003A02  8F84               	bsf	132,7,b	;volatile
  7301  003A04                     l294:
  7302                           
  7303                           ; BSR set to: 0
  7304  003A04  0012               	return		;funcret
  7305  003A06                     __end_of_SPI1_Open:
  7306                           	callstack 0
  7307                           
  7308 ;; *************** function _LOOPDELAY_Wait *****************
  7309 ;; Defined at:
  7310 ;;		line 17 in file "Loopdelay.c"
  7311 ;; Parameters:    Size  Location     Type
  7312 ;;		None
  7313 ;; Auto vars:     Size  Location     Type
  7314 ;;		None
  7315 ;; Return value:  Size  Location     Type
  7316 ;;                  1    wreg      void 
  7317 ;; Registers used:
  7318 ;;		wreg, status,2, status,0
  7319 ;; Tracked objects:
  7320 ;;		On entry : 0/0
  7321 ;;		On exit  : 0/0
  7322 ;;		Unchanged: 0/0
  7323 ;; Data sizes:     COMRAM   BANK5   BANK6   BANK7   BANK8   BANK9  BANK10  BANK11  BANK12  BANK13  BANK14  BANK15  BANK1
      +6  BANK17  BANK18  BANK19  BANK20  BANK21
  7324 ;;      Params:         0       0       0       0       0       0       0       0       0       0       0       0       
      +0       0       0       0       0       0
  7325 ;;      Locals:         0       0       0       0       0       0       0       0       0       0       0       0       
      +0       0       0       0       0       0
  7326 ;;      Temps:          0       0       0       0       0       0       0       0       0       0       0       0       
      +0       0       0       0       0       0
  7327 ;;      Totals:         0       0       0       0       0       0       0       0       0       0       0       0       
      +0       0       0       0       0       0
  7328 ;;Total ram usage:        0 bytes
  7329 ;; Hardware stack levels used:    1
  7330 ;; Hardware stack levels required when called:    4
  7331 ;; This function calls:
  7332 ;;		Nothing
  7333 ;; This function is called by:
  7334 ;;		_main
  7335 ;; This function uses a non-reentrant model
  7336 ;;
  7337                           
  7338                           	psect	text14
  7339  003E9A                     __ptext14:
  7340                           	callstack 0
  7341  003E9A                     _LOOPDELAY_Wait:
  7342                           	callstack 123
  7343  003E9A                     l3172:
  7344  003E9A  503A               	movf	_loopTimeMS^(0+1280),w,c
  7345  003E9C  5C3C               	subwf	_loopTimeCnt^(0+1280),w,c	;volatile
  7346  003E9E  503B               	movf	(_loopTimeMS+1)^(0+1280),w,c
  7347  003EA0  583D               	subwfb	(_loopTimeCnt+1)^(0+1280),w,c	;volatile
  7348  003EA2  A0D8               	btfss	status,0,c
  7349  003EA4  EF56  F01F         	goto	u2861
  7350  003EA8  EF58  F01F         	goto	u2860
  7351  003EAC                     u2861:
  7352  003EAC  EF4D  F01F         	goto	l3172
  7353  003EB0                     u2860:
  7354  003EB0                     
  7355                           ;Loopdelay.c: 20:     loopTimeCnt = 0;
  7356  003EB0  0E00               	movlw	0
  7357  003EB2  6E3D               	movwf	(_loopTimeCnt+1)^(0+1280),c	;volatile
  7358  003EB4  0E00               	movlw	0
  7359  003EB6  6E3C               	movwf	_loopTimeCnt^(0+1280),c	;volatile
  7360  003EB8  0012               	return		;funcret
  7361  003EBA                     __end_of_LOOPDELAY_Wait:
  7362                           	callstack 0
  7363                           
  7364 ;; *************** function _LOOPDELAY_Init *****************
  7365 ;; Defined at:
  7366 ;;		line 23 in file "Loopdelay.c"
  7367 ;; Parameters:    Size  Location     Type
  7368 ;;  newLoopTimeM    2    0[COMRAM] unsigned short 
  7369 ;; Auto vars:     Size  Location     Type
  7370 ;;		None
  7371 ;; Return value:  Size  Location     Type
  7372 ;;                  1    wreg      void 
  7373 ;; Registers used:
  7374 ;;		None
  7375 ;; Tracked objects:
  7376 ;;		On entry : 0/0
  7377 ;;		On exit  : 0/0
  7378 ;;		Unchanged: 0/0
  7379 ;; Data sizes:     COMRAM   BANK5   BANK6   BANK7   BANK8   BANK9  BANK10  BANK11  BANK12  BANK13  BANK14  BANK15  BANK1
      +6  BANK17  BANK18  BANK19  BANK20  BANK21
  7380 ;;      Params:         2       0       0       0       0       0       0       0       0       0       0       0       
      +0       0       0       0       0       0
  7381 ;;      Locals:         0       0       0       0       0       0       0       0       0       0       0       0       
      +0       0       0       0       0       0
  7382 ;;      Temps:          0       0       0       0       0       0       0       0       0       0       0       0       
      +0       0       0       0       0       0
  7383 ;;      Totals:         2       0       0       0       0       0       0       0       0       0       0       0       
      +0       0       0       0       0       0
  7384 ;;Total ram usage:        2 bytes
  7385 ;; Hardware stack levels used:    1
  7386 ;; Hardware stack levels required when called:    4
  7387 ;; This function calls:
  7388 ;;		Nothing
  7389 ;; This function is called by:
  7390 ;;		_main
  7391 ;; This function uses a non-reentrant model
  7392 ;;
  7393                           
  7394                           	psect	text15
  7395  003FC4                     __ptext15:
  7396                           	callstack 0
  7397  003FC4                     _LOOPDELAY_Init:
  7398                           	callstack 123
  7399  003FC4                     
  7400                           ;Loopdelay.c: 23: void LOOPDELAY_Init(uint16_t newLoopTimeMS);Loopdelay.c: 24: {;Loopdel
      +                          ay.c: 25:     loopTimeMS = newLoopTimeMS;
  7401  003FC4  C501  F53A         	movff	LOOPDELAY_Init@newLoopTimeMS,_loopTimeMS
  7402  003FC8  C502  F53B         	movff	LOOPDELAY_Init@newLoopTimeMS+1,_loopTimeMS+1
  7403  003FCC  0012               	return		;funcret
  7404  003FCE                     __end_of_LOOPDELAY_Init:
  7405                           	callstack 0
  7406                           
  7407 ;; *************** function _LED_WriteFull *****************
  7408 ;; Defined at:
  7409 ;;		line 55 in file "DivFunctions.c"
  7410 ;; Parameters:    Size  Location     Type
  7411 ;;  red             1    wreg     unsigned char 
  7412 ;;  green           1    6[COMRAM] unsigned char 
  7413 ;;  blue            1    7[COMRAM] unsigned char 
  7414 ;;  white           1    8[COMRAM] unsigned char 
  7415 ;;  ledcount        3    9[COMRAM] unsigned um
  7416 ;; Auto vars:     Size  Location     Type
  7417 ;;  red             1   12[COMRAM] unsigned char 
  7418 ;;  i               3   13[COMRAM] unsigned um
  7419 ;;  sizeArr         1   16[COMRAM] unsigned char 
  7420 ;; Return value:  Size  Location     Type
  7421 ;;                  1    wreg      void 
  7422 ;; Registers used:
  7423 ;;		wreg, fsr2l, fsr2h, status,2, status,0, prodl, prodh, cstack
  7424 ;; Tracked objects:
  7425 ;;		On entry : 0/0
  7426 ;;		On exit  : 0/0
  7427 ;;		Unchanged: 0/0
  7428 ;; Data sizes:     COMRAM   BANK5   BANK6   BANK7   BANK8   BANK9  BANK10  BANK11  BANK12  BANK13  BANK14  BANK15  BANK1
      +6  BANK17  BANK18  BANK19  BANK20  BANK21
  7429 ;;      Params:         6       0       0       0       0       0       0       0       0       0       0       0       
      +0       0       0       0       0       0
  7430 ;;      Locals:         5       0       0       0       0       0       0       0       0       0       0       0       
      +0       0       0       0       0       0
  7431 ;;      Temps:          0       0       0       0       0       0       0       0       0       0       0       0       
      +0       0       0       0       0       0
  7432 ;;      Totals:        11       0       0       0       0       0       0       0       0       0       0       0       
      +0       0       0       0       0       0
  7433 ;;Total ram usage:       11 bytes
  7434 ;; Hardware stack levels used:    1
  7435 ;; Hardware stack levels required when called:    7
  7436 ;; This function calls:
  7437 ;;		_SPI1_ExchangeBlock
  7438 ;;		_WS2812B_Write
  7439 ;; This function is called by:
  7440 ;;		_main
  7441 ;; This function uses a non-reentrant model
  7442 ;;
  7443                           
  7444                           	psect	text16
  7445  003ADA                     __ptext16:
  7446                           	callstack 0
  7447  003ADA                     _LED_WriteFull:
  7448                           	callstack 120
  7449                           
  7450                           ;incstack = 0
  7451                           ;LED_WriteFull@red stored from wreg
  7452  003ADA  6E0D               	movwf	LED_WriteFull@red^(0+1280),c
  7453  003ADC                     
  7454                           ;DivFunctions.c: 55: void LED_WriteFull(uint8_t red, uint8_t green, uint8_t blue, uint8_
      +                          t white, uint24_t ledcount);DivFunctions.c: 56: {;DivFunctions.c: 57:     for(uint24_t i
      +                          =0; i <= ledcount; i++)
  7455  003ADC  0E00               	movlw	0
  7456  003ADE  6E0E               	movwf	LED_WriteFull@i^(0+1280),c
  7457  003AE0  0E00               	movlw	0
  7458  003AE2  6E0F               	movwf	(LED_WriteFull@i+1)^(0+1280),c
  7459  003AE4  0E00               	movlw	0
  7460  003AE6  6E10               	movwf	(LED_WriteFull@i+2)^(0+1280),c
  7461  003AE8  EF85  F01D         	goto	l3182
  7462  003AEC                     l3178:
  7463                           
  7464                           ;DivFunctions.c: 58:     {;DivFunctions.c: 59:         WS2812B_Write(red, green, blue, w
      +                          hite);
  7465  003AEC  C507  F502         	movff	LED_WriteFull@green,WS2812B_Write@G
  7466  003AF0  C508  F503         	movff	LED_WriteFull@blue,WS2812B_Write@B
  7467  003AF4  C509  F504         	movff	LED_WriteFull@white,WS2812B_Write@W
  7468  003AF8  500D               	movf	LED_WriteFull@red^(0+1280),w,c
  7469  003AFA  ECB5  F01F         	call	_WS2812B_Write
  7470  003AFE                     
  7471                           ;DivFunctions.c: 60:     }
  7472  003AFE  0E01               	movlw	1
  7473  003B00  260E               	addwf	LED_WriteFull@i^(0+1280),f,c
  7474  003B02  0E00               	movlw	0
  7475  003B04  220F               	addwfc	(LED_WriteFull@i+1)^(0+1280),f,c
  7476  003B06  0E00               	movlw	0
  7477  003B08  2210               	addwfc	(LED_WriteFull@i+2)^(0+1280),f,c
  7478  003B0A                     l3182:
  7479  003B0A  500E               	movf	LED_WriteFull@i^(0+1280),w,c
  7480  003B0C  5C0A               	subwf	LED_WriteFull@ledcount^(0+1280),w,c
  7481  003B0E  500F               	movf	(LED_WriteFull@i+1)^(0+1280),w,c
  7482  003B10  580B               	subwfb	(LED_WriteFull@ledcount+1)^(0+1280),w,c
  7483  003B12  5010               	movf	(LED_WriteFull@i+2)^(0+1280),w,c
  7484  003B14  580C               	subwfb	(LED_WriteFull@ledcount+2)^(0+1280),w,c
  7485  003B16  B0D8               	btfsc	status,0,c
  7486  003B18  EF90  F01D         	goto	u2871
  7487  003B1C  EF92  F01D         	goto	u2870
  7488  003B20                     u2871:
  7489  003B20  EF76  F01D         	goto	l3178
  7490  003B24                     u2870:
  7491  003B24                     
  7492                           ;DivFunctions.c: 62:     uint8_t sizeArr = (ledcount*192);
  7493  003B24  500A               	movf	LED_WriteFull@ledcount^(0+1280),w,c
  7494  003B26  0D40               	mullw	64
  7495  003B28  50F3               	movf	243,w,c
  7496  003B2A  0800               	sublw	0
  7497  003B2C  6E11               	movwf	LED_WriteFull@sizeArr^(0+1280),c
  7498  003B2E                     
  7499                           ;DivFunctions.c: 63:     SPI1_ExchangeBlock(ledOutput, sizeArr);
  7500  003B2E  0E3E               	movlw	low _ledOutput
  7501  003B30  6E01               	movwf	SPI1_ExchangeBlock@block^(0+1280),c
  7502  003B32  0E05               	movlw	high _ledOutput
  7503  003B34  6E02               	movwf	(SPI1_ExchangeBlock@block+1)^(0+1280),c
  7504  003B36  C511  F503         	movff	LED_WriteFull@sizeArr,SPI1_ExchangeBlock@blockSize
  7505  003B3A  6A04               	clrf	(SPI1_ExchangeBlock@blockSize+1)^(0+1280),c
  7506  003B3C  EC5F  F01E         	call	_SPI1_ExchangeBlock	;wreg free
  7507                           
  7508                           ;DivFunctions.c: 64:     for(;arrayPlace >= 0; arrayPlace--)
  7509  003B40  EFB2  F01D         	goto	l3192
  7510  003B44                     l3188:
  7511                           
  7512                           ;DivFunctions.c: 65:     {;DivFunctions.c: 66:         ledOutput[arrayPlace] = 0;
  7513  003B44  0E3E               	movlw	low _ledOutput
  7514  003B46  2436               	addwf	_arrayPlace^(0+1280),w,c
  7515  003B48  6ED9               	movwf	fsr2l,c
  7516  003B4A  0E05               	movlw	high _ledOutput
  7517  003B4C  2037               	addwfc	(_arrayPlace+1)^(0+1280),w,c
  7518  003B4E  6EDA               	movwf	fsr2h,c
  7519  003B50  0E00               	movlw	0
  7520  003B52  6EDF               	movwf	indf2,c
  7521  003B54                     
  7522                           ;DivFunctions.c: 67:     }
  7523  003B54  0EFF               	movlw	255
  7524  003B56  2636               	addwf	_arrayPlace^(0+1280),f,c
  7525  003B58  0EFF               	movlw	255
  7526  003B5A  2237               	addwfc	(_arrayPlace+1)^(0+1280),f,c
  7527  003B5C  0EFF               	movlw	255
  7528  003B5E  2238               	addwfc	(_arrayPlace+2)^(0+1280),f,c
  7529  003B60  0EFF               	movlw	255
  7530  003B62  2239               	addwfc	(_arrayPlace+3)^(0+1280),f,c
  7531  003B64                     l3192:
  7532  003B64  BE39               	btfsc	(_arrayPlace+3)^(0+1280),7,c
  7533  003B66  EFB9  F01D         	goto	u2880
  7534  003B6A  EFB7  F01D         	goto	u2881
  7535  003B6E                     u2881:
  7536  003B6E  EFA2  F01D         	goto	l3188
  7537  003B72                     u2880:
  7538  003B72  0012               	return		;funcret
  7539  003B74                     __end_of_LED_WriteFull:
  7540                           	callstack 0
  7541                           
  7542 ;; *************** function _WS2812B_Write *****************
  7543 ;; Defined at:
  7544 ;;		line 3 in file "DivFunctions.c"
  7545 ;; Parameters:    Size  Location     Type
  7546 ;;  R               1    wreg     unsigned char 
  7547 ;;  G               1    1[COMRAM] unsigned char 
  7548 ;;  B               1    2[COMRAM] unsigned char 
  7549 ;;  W               1    3[COMRAM] unsigned char 
  7550 ;; Auto vars:     Size  Location     Type
  7551 ;;  R               1    4[COMRAM] unsigned char 
  7552 ;; Return value:  Size  Location     Type
  7553 ;;                  1    wreg      void 
  7554 ;; Registers used:
  7555 ;;		wreg, fsr2l, fsr2h, status,2, status,0, cstack
  7556 ;; Tracked objects:
  7557 ;;		On entry : 0/0
  7558 ;;		On exit  : 0/0
  7559 ;;		Unchanged: 0/0
  7560 ;; Data sizes:     COMRAM   BANK5   BANK6   BANK7   BANK8   BANK9  BANK10  BANK11  BANK12  BANK13  BANK14  BANK15  BANK1
      +6  BANK17  BANK18  BANK19  BANK20  BANK21
  7561 ;;      Params:         3       0       0       0       0       0       0       0       0       0       0       0       
      +0       0       0       0       0       0
  7562 ;;      Locals:         1       0       0       0       0       0       0       0       0       0       0       0       
      +0       0       0       0       0       0
  7563 ;;      Temps:          0       0       0       0       0       0       0       0       0       0       0       0       
      +0       0       0       0       0       0
  7564 ;;      Totals:         4       0       0       0       0       0       0       0       0       0       0       0       
      +0       0       0       0       0       0
  7565 ;;Total ram usage:        4 bytes
  7566 ;; Hardware stack levels used:    1
  7567 ;; Hardware stack levels required when called:    6
  7568 ;; This function calls:
  7569 ;;		_ws_send_byte
  7570 ;; This function is called by:
  7571 ;;		_LED_WriteFull
  7572 ;; This function uses a non-reentrant model
  7573 ;;
  7574                           
  7575                           	psect	text17
  7576  003F6A                     __ptext17:
  7577                           	callstack 0
  7578  003F6A                     _WS2812B_Write:
  7579                           	callstack 120
  7580                           
  7581                           ;incstack = 0
  7582                           ;WS2812B_Write@R stored from wreg
  7583  003F6A  6E05               	movwf	WS2812B_Write@R^(0+1280),c
  7584  003F6C                     
  7585                           ;DivFunctions.c: 3: void WS2812B_Write(uint8_t R, uint8_t G, uint8_t B, uint8_t W);DivFu
      +                          nctions.c: 4: {;DivFunctions.c: 5:     ws_send_byte(G);
  7586  003F6C  5002               	movf	WS2812B_Write@G^(0+1280),w,c
  7587  003F6E  EC03  F01D         	call	_ws_send_byte
  7588                           
  7589                           ;DivFunctions.c: 6:     ws_send_byte(R);
  7590  003F72  5005               	movf	WS2812B_Write@R^(0+1280),w,c
  7591  003F74  EC03  F01D         	call	_ws_send_byte
  7592                           
  7593                           ;DivFunctions.c: 7:     ws_send_byte(B);
  7594  003F78  5003               	movf	WS2812B_Write@B^(0+1280),w,c
  7595  003F7A  EC03  F01D         	call	_ws_send_byte
  7596                           
  7597                           ;DivFunctions.c: 8:     ws_send_byte(W);
  7598  003F7E  5004               	movf	WS2812B_Write@W^(0+1280),w,c
  7599  003F80  EC03  F01D         	call	_ws_send_byte
  7600  003F84  0012               	return		;funcret
  7601  003F86                     __end_of_WS2812B_Write:
  7602                           	callstack 0
  7603                           
  7604 ;; *************** function _ws_send_byte *****************
  7605 ;; Defined at:
  7606 ;;		line 28 in file "DivFunctions.c"
  7607 ;; Parameters:    Size  Location     Type
  7608 ;;  K               1    wreg     unsigned char 
  7609 ;; Auto vars:     Size  Location     Type
  7610 ;;  K               1    0[COMRAM] unsigned char 
  7611 ;; Return value:  Size  Location     Type
  7612 ;;                  1    wreg      void 
  7613 ;; Registers used:
  7614 ;;		wreg, fsr2l, fsr2h, status,2, status,0, cstack
  7615 ;; Tracked objects:
  7616 ;;		On entry : 0/0
  7617 ;;		On exit  : 0/0
  7618 ;;		Unchanged: 0/0
  7619 ;; Data sizes:     COMRAM   BANK5   BANK6   BANK7   BANK8   BANK9  BANK10  BANK11  BANK12  BANK13  BANK14  BANK15  BANK1
      +6  BANK17  BANK18  BANK19  BANK20  BANK21
  7620 ;;      Params:         0       0       0       0       0       0       0       0       0       0       0       0       
      +0       0       0       0       0       0
  7621 ;;      Locals:         1       0       0       0       0       0       0       0       0       0       0       0       
      +0       0       0       0       0       0
  7622 ;;      Temps:          0       0       0       0       0       0       0       0       0       0       0       0       
      +0       0       0       0       0       0
  7623 ;;      Totals:         1       0       0       0       0       0       0       0       0       0       0       0       
      +0       0       0       0       0       0
  7624 ;;Total ram usage:        1 bytes
  7625 ;; Hardware stack levels used:    1
  7626 ;; Hardware stack levels required when called:    5
  7627 ;; This function calls:
  7628 ;;		_onePulse
  7629 ;;		_zeroPulse
  7630 ;; This function is called by:
  7631 ;;		_WS2812B_Write
  7632 ;; This function uses a non-reentrant model
  7633 ;;
  7634                           
  7635                           	psect	text18
  7636  003A06                     __ptext18:
  7637                           	callstack 0
  7638  003A06                     _ws_send_byte:
  7639                           	callstack 120
  7640                           
  7641                           ;incstack = 0
  7642                           ;ws_send_byte@K stored from wreg
  7643  003A06  6E01               	movwf	ws_send_byte@K^(0+1280),c
  7644  003A08                     
  7645                           ;DivFunctions.c: 28: void ws_send_byte(uint8_t K);DivFunctions.c: 29: {;DivFunctions.c: 
      +                          30:     if(K & 0b10000000) {onePulse();}
  7646  003A08  AE01               	btfss	ws_send_byte@K^(0+1280),7,c
  7647  003A0A  EF09  F01D         	goto	u2641
  7648  003A0E  EF0B  F01D         	goto	u2640
  7649  003A12                     u2641:
  7650  003A12  EF0F  F01D         	goto	l2952
  7651  003A16                     u2640:
  7652  003A16  EC7B  F01F         	call	_onePulse	;wreg free
  7653  003A1A  EF11  F01D         	goto	l2954
  7654  003A1E                     l2952:
  7655  003A1E  EC6C  F01F         	call	_zeroPulse	;wreg free
  7656  003A22                     l2954:
  7657                           
  7658                           ;DivFunctions.c: 33:     if(K & 0b01000000) {onePulse();}
  7659  003A22  AC01               	btfss	ws_send_byte@K^(0+1280),6,c
  7660  003A24  EF16  F01D         	goto	u2651
  7661  003A28  EF18  F01D         	goto	u2650
  7662  003A2C                     u2651:
  7663  003A2C  EF1C  F01D         	goto	l2958
  7664  003A30                     u2650:
  7665  003A30  EC7B  F01F         	call	_onePulse	;wreg free
  7666  003A34  EF1E  F01D         	goto	l2960
  7667  003A38                     l2958:
  7668  003A38  EC6C  F01F         	call	_zeroPulse	;wreg free
  7669  003A3C                     l2960:
  7670                           
  7671                           ;DivFunctions.c: 36:     if(K & 0b00100000) {onePulse();}
  7672  003A3C  AA01               	btfss	ws_send_byte@K^(0+1280),5,c
  7673  003A3E  EF23  F01D         	goto	u2661
  7674  003A42  EF25  F01D         	goto	u2660
  7675  003A46                     u2661:
  7676  003A46  EF29  F01D         	goto	l2964
  7677  003A4A                     u2660:
  7678  003A4A  EC7B  F01F         	call	_onePulse	;wreg free
  7679  003A4E  EF2B  F01D         	goto	l2966
  7680  003A52                     l2964:
  7681  003A52  EC6C  F01F         	call	_zeroPulse	;wreg free
  7682  003A56                     l2966:
  7683                           
  7684                           ;DivFunctions.c: 39:     if(K & 0b00010000) {onePulse();}
  7685  003A56  A801               	btfss	ws_send_byte@K^(0+1280),4,c
  7686  003A58  EF30  F01D         	goto	u2671
  7687  003A5C  EF32  F01D         	goto	u2670
  7688  003A60                     u2671:
  7689  003A60  EF36  F01D         	goto	l2970
  7690  003A64                     u2670:
  7691  003A64  EC7B  F01F         	call	_onePulse	;wreg free
  7692  003A68  EF38  F01D         	goto	l2972
  7693  003A6C                     l2970:
  7694  003A6C  EC6C  F01F         	call	_zeroPulse	;wreg free
  7695  003A70                     l2972:
  7696                           
  7697                           ;DivFunctions.c: 42:     if(K & 0b00001000) {onePulse();}
  7698  003A70  A601               	btfss	ws_send_byte@K^(0+1280),3,c
  7699  003A72  EF3D  F01D         	goto	u2681
  7700  003A76  EF3F  F01D         	goto	u2680
  7701  003A7A                     u2681:
  7702  003A7A  EF43  F01D         	goto	l2976
  7703  003A7E                     u2680:
  7704  003A7E  EC7B  F01F         	call	_onePulse	;wreg free
  7705  003A82  EF45  F01D         	goto	l2978
  7706  003A86                     l2976:
  7707  003A86  EC6C  F01F         	call	_zeroPulse	;wreg free
  7708  003A8A                     l2978:
  7709                           
  7710                           ;DivFunctions.c: 45:     if(K & 0b00000100) {onePulse();}
  7711  003A8A  A401               	btfss	ws_send_byte@K^(0+1280),2,c
  7712  003A8C  EF4A  F01D         	goto	u2691
  7713  003A90  EF4C  F01D         	goto	u2690
  7714  003A94                     u2691:
  7715  003A94  EF50  F01D         	goto	l2982
  7716  003A98                     u2690:
  7717  003A98  EC7B  F01F         	call	_onePulse	;wreg free
  7718  003A9C  EF52  F01D         	goto	l2984
  7719  003AA0                     l2982:
  7720  003AA0  EC6C  F01F         	call	_zeroPulse	;wreg free
  7721  003AA4                     l2984:
  7722                           
  7723                           ;DivFunctions.c: 48:     if(K & 0b00000010) {onePulse();}
  7724  003AA4  A201               	btfss	ws_send_byte@K^(0+1280),1,c
  7725  003AA6  EF57  F01D         	goto	u2701
  7726  003AAA  EF59  F01D         	goto	u2700
  7727  003AAE                     u2701:
  7728  003AAE  EF5D  F01D         	goto	l2988
  7729  003AB2                     u2700:
  7730  003AB2  EC7B  F01F         	call	_onePulse	;wreg free
  7731  003AB6  EF5F  F01D         	goto	l2990
  7732  003ABA                     l2988:
  7733  003ABA  EC6C  F01F         	call	_zeroPulse	;wreg free
  7734  003ABE                     l2990:
  7735                           
  7736                           ;DivFunctions.c: 51:     if(K & 0b00000001) {onePulse();}
  7737  003ABE  A001               	btfss	ws_send_byte@K^(0+1280),0,c
  7738  003AC0  EF64  F01D         	goto	u2711
  7739  003AC4  EF66  F01D         	goto	u2710
  7740  003AC8                     u2711:
  7741  003AC8  EF6A  F01D         	goto	l2994
  7742  003ACC                     u2710:
  7743  003ACC  EC7B  F01F         	call	_onePulse	;wreg free
  7744  003AD0  EF6C  F01D         	goto	l726
  7745  003AD4                     l2994:
  7746  003AD4  EC6C  F01F         	call	_zeroPulse	;wreg free
  7747  003AD8                     l726:
  7748  003AD8  0012               	return		;funcret
  7749  003ADA                     __end_of_ws_send_byte:
  7750                           	callstack 0
  7751                           
  7752 ;; *************** function _zeroPulse *****************
  7753 ;; Defined at:
  7754 ;;		line 22 in file "DivFunctions.c"
  7755 ;; Parameters:    Size  Location     Type
  7756 ;;		None
  7757 ;; Auto vars:     Size  Location     Type
  7758 ;;		None
  7759 ;; Return value:  Size  Location     Type
  7760 ;;                  1    wreg      void 
  7761 ;; Registers used:
  7762 ;;		wreg, fsr2l, fsr2h, status,2, status,0
  7763 ;; Tracked objects:
  7764 ;;		On entry : 0/0
  7765 ;;		On exit  : 0/0
  7766 ;;		Unchanged: 0/0
  7767 ;; Data sizes:     COMRAM   BANK5   BANK6   BANK7   BANK8   BANK9  BANK10  BANK11  BANK12  BANK13  BANK14  BANK15  BANK1
      +6  BANK17  BANK18  BANK19  BANK20  BANK21
  7768 ;;      Params:         0       0       0       0       0       0       0       0       0       0       0       0       
      +0       0       0       0       0       0
  7769 ;;      Locals:         0       0       0       0       0       0       0       0       0       0       0       0       
      +0       0       0       0       0       0
  7770 ;;      Temps:          0       0       0       0       0       0       0       0       0       0       0       0       
      +0       0       0       0       0       0
  7771 ;;      Totals:         0       0       0       0       0       0       0       0       0       0       0       0       
      +0       0       0       0       0       0
  7772 ;;Total ram usage:        0 bytes
  7773 ;; Hardware stack levels used:    1
  7774 ;; Hardware stack levels required when called:    4
  7775 ;; This function calls:
  7776 ;;		Nothing
  7777 ;; This function is called by:
  7778 ;;		_ws_send_byte
  7779 ;; This function uses a non-reentrant model
  7780 ;;
  7781                           
  7782                           	psect	text19
  7783  003ED8                     __ptext19:
  7784                           	callstack 0
  7785  003ED8                     _zeroPulse:
  7786                           	callstack 120
  7787  003ED8                     
  7788                           ;DivFunctions.c: 25:     ledOutput[arrayPlace] = 0xC0;
  7789  003ED8  0E3E               	movlw	low _ledOutput
  7790  003EDA  2436               	addwf	_arrayPlace^(0+1280),w,c
  7791  003EDC  6ED9               	movwf	fsr2l,c
  7792  003EDE  0E05               	movlw	high _ledOutput
  7793  003EE0  2037               	addwfc	(_arrayPlace+1)^(0+1280),w,c
  7794  003EE2  6EDA               	movwf	fsr2h,c
  7795  003EE4  0EC0               	movlw	192
  7796  003EE6  6EDF               	movwf	indf2,c
  7797  003EE8                     
  7798                           ;DivFunctions.c: 26:     arrayPlace++;
  7799  003EE8  0E01               	movlw	1
  7800  003EEA  2636               	addwf	_arrayPlace^(0+1280),f,c
  7801  003EEC  0E00               	movlw	0
  7802  003EEE  2237               	addwfc	(_arrayPlace+1)^(0+1280),f,c
  7803  003EF0  2238               	addwfc	(_arrayPlace+2)^(0+1280),f,c
  7804  003EF2  2239               	addwfc	(_arrayPlace+3)^(0+1280),f,c
  7805  003EF4  0012               	return		;funcret
  7806  003EF6                     __end_of_zeroPulse:
  7807                           	callstack 0
  7808                           
  7809 ;; *************** function _onePulse *****************
  7810 ;; Defined at:
  7811 ;;		line 15 in file "DivFunctions.c"
  7812 ;; Parameters:    Size  Location     Type
  7813 ;;		None
  7814 ;; Auto vars:     Size  Location     Type
  7815 ;;		None
  7816 ;; Return value:  Size  Location     Type
  7817 ;;                  1    wreg      void 
  7818 ;; Registers used:
  7819 ;;		wreg, fsr2l, fsr2h, status,2, status,0
  7820 ;; Tracked objects:
  7821 ;;		On entry : 0/0
  7822 ;;		On exit  : 0/0
  7823 ;;		Unchanged: 0/0
  7824 ;; Data sizes:     COMRAM   BANK5   BANK6   BANK7   BANK8   BANK9  BANK10  BANK11  BANK12  BANK13  BANK14  BANK15  BANK1
      +6  BANK17  BANK18  BANK19  BANK20  BANK21
  7825 ;;      Params:         0       0       0       0       0       0       0       0       0       0       0       0       
      +0       0       0       0       0       0
  7826 ;;      Locals:         0       0       0       0       0       0       0       0       0       0       0       0       
      +0       0       0       0       0       0
  7827 ;;      Temps:          0       0       0       0       0       0       0       0       0       0       0       0       
      +0       0       0       0       0       0
  7828 ;;      Totals:         0       0       0       0       0       0       0       0       0       0       0       0       
      +0       0       0       0       0       0
  7829 ;;Total ram usage:        0 bytes
  7830 ;; Hardware stack levels used:    1
  7831 ;; Hardware stack levels required when called:    4
  7832 ;; This function calls:
  7833 ;;		Nothing
  7834 ;; This function is called by:
  7835 ;;		_ws_send_byte
  7836 ;; This function uses a non-reentrant model
  7837 ;;
  7838                           
  7839                           	psect	text20
  7840  003EF6                     __ptext20:
  7841                           	callstack 0
  7842  003EF6                     _onePulse:
  7843                           	callstack 120
  7844  003EF6                     
  7845                           ;DivFunctions.c: 18:     ledOutput[arrayPlace] = 0xF0;
  7846  003EF6  0E3E               	movlw	low _ledOutput
  7847  003EF8  2436               	addwf	_arrayPlace^(0+1280),w,c
  7848  003EFA  6ED9               	movwf	fsr2l,c
  7849  003EFC  0E05               	movlw	high _ledOutput
  7850  003EFE  2037               	addwfc	(_arrayPlace+1)^(0+1280),w,c
  7851  003F00  6EDA               	movwf	fsr2h,c
  7852  003F02  0EF0               	movlw	240
  7853  003F04  6EDF               	movwf	indf2,c
  7854  003F06                     
  7855                           ;DivFunctions.c: 19:     arrayPlace++;
  7856  003F06  0E01               	movlw	1
  7857  003F08  2636               	addwf	_arrayPlace^(0+1280),f,c
  7858  003F0A  0E00               	movlw	0
  7859  003F0C  2237               	addwfc	(_arrayPlace+1)^(0+1280),f,c
  7860  003F0E  2238               	addwfc	(_arrayPlace+2)^(0+1280),f,c
  7861  003F10  2239               	addwfc	(_arrayPlace+3)^(0+1280),f,c
  7862  003F12  0012               	return		;funcret
  7863  003F14                     __end_of_onePulse:
  7864                           	callstack 0
  7865                           
  7866 ;; *************** function _SPI1_ExchangeBlock *****************
  7867 ;; Defined at:
  7868 ;;		line 108 in file "mcc_generated_files/spi1.c"
  7869 ;; Parameters:    Size  Location     Type
  7870 ;;  block           2    0[COMRAM] PTR void 
  7871 ;;		 -> ledOutput(1), 
  7872 ;;  blockSize       2    2[COMRAM] unsigned int 
  7873 ;; Auto vars:     Size  Location     Type
  7874 ;;  data            2    4[COMRAM] PTR unsigned char 
  7875 ;;		 -> ledOutput(1), 
  7876 ;; Return value:  Size  Location     Type
  7877 ;;                  1    wreg      void 
  7878 ;; Registers used:
  7879 ;;		wreg, fsr2l, fsr2h, status,2, status,0
  7880 ;; Tracked objects:
  7881 ;;		On entry : 0/0
  7882 ;;		On exit  : 0/0
  7883 ;;		Unchanged: 0/0
  7884 ;; Data sizes:     COMRAM   BANK5   BANK6   BANK7   BANK8   BANK9  BANK10  BANK11  BANK12  BANK13  BANK14  BANK15  BANK1
      +6  BANK17  BANK18  BANK19  BANK20  BANK21
  7885 ;;      Params:         4       0       0       0       0       0       0       0       0       0       0       0       
      +0       0       0       0       0       0
  7886 ;;      Locals:         2       0       0       0       0       0       0       0       0       0       0       0       
      +0       0       0       0       0       0
  7887 ;;      Temps:          0       0       0       0       0       0       0       0       0       0       0       0       
      +0       0       0       0       0       0
  7888 ;;      Totals:         6       0       0       0       0       0       0       0       0       0       0       0       
      +0       0       0       0       0       0
  7889 ;;Total ram usage:        6 bytes
  7890 ;; Hardware stack levels used:    1
  7891 ;; Hardware stack levels required when called:    4
  7892 ;; This function calls:
  7893 ;;		Nothing
  7894 ;; This function is called by:
  7895 ;;		_LED_WriteFull
  7896 ;; This function uses a non-reentrant model
  7897 ;;
  7898                           
  7899                           	psect	text21
  7900  003CBE                     __ptext21:
  7901                           	callstack 0
  7902  003CBE                     _SPI1_ExchangeBlock:
  7903                           	callstack 122
  7904  003CBE                     
  7905                           ;mcc_generated_files/spi1.c: 108: void SPI1_ExchangeBlock(void *block, size_t blockSize)
      +                          ;mcc_generated_files/spi1.c: 109: {;mcc_generated_files/spi1.c: 110:     uint8_t *data =
      +                           block;
  7906  003CBE  C501  F505         	movff	SPI1_ExchangeBlock@block,SPI1_ExchangeBlock@data
  7907  003CC2  C502  F506         	movff	SPI1_ExchangeBlock@block+1,SPI1_ExchangeBlock@data+1
  7908                           
  7909                           ;mcc_generated_files/spi1.c: 111:     while(blockSize--)
  7910  003CC6  EF81  F01E         	goto	l3034
  7911  003CCA                     l3026:
  7912                           
  7913                           ;mcc_generated_files/spi1.c: 112:     {;mcc_generated_files/spi1.c: 113:         SPI1TCN
      +                          TL = 1;
  7914  003CCA  0E01               	movlw	1
  7915  003CCC  0100               	movlb	0	; () banked
  7916  003CCE  6F82               	movwf	130,b	;volatile
  7917  003CD0                     
  7918                           ; BSR set to: 0
  7919                           ;mcc_generated_files/spi1.c: 114:         SPI1TXB = *data;
  7920  003CD0  0061  F414  F4D9   	movff	SPI1_ExchangeBlock@data,fsr2l
  7921  003CD6  0061  F418  F4DA   	movff	SPI1_ExchangeBlock@data+1,fsr2h
  7922  003CDC  50DF               	movf	indf2,w,c
  7923  003CDE  6F81               	movwf	129,b	;volatile
  7924  003CE0                     l308:
  7925  003CE0  A0B6               	btfss	182,0,c	;volatile
  7926  003CE2  EF75  F01E         	goto	u2721
  7927  003CE6  EF77  F01E         	goto	u2720
  7928  003CEA                     u2721:
  7929  003CEA  EF70  F01E         	goto	l308
  7930  003CEE                     u2720:
  7931  003CEE                     
  7932                           ;mcc_generated_files/spi1.c: 116:         *data++ = SPI1RXB;
  7933  003CEE  0061  F414  F4D9   	movff	SPI1_ExchangeBlock@data,fsr2l
  7934  003CF4  0061  F418  F4DA   	movff	SPI1_ExchangeBlock@data+1,fsr2h
  7935  003CFA  C080 F4DF          	movff	128,indf2	;volatile
  7936  003CFE  4A05               	infsnz	SPI1_ExchangeBlock@data^(0+1280),f,c
  7937  003D00  2A06               	incf	(SPI1_ExchangeBlock@data+1)^(0+1280),f,c
  7938  003D02                     l3034:
  7939                           
  7940                           ;mcc_generated_files/spi1.c: 111:     while(blockSize--)
  7941  003D02  0603               	decf	SPI1_ExchangeBlock@blockSize^(0+1280),f,c
  7942  003D04  A0D8               	btfss	status,0,c
  7943  003D06  0604               	decf	(SPI1_ExchangeBlock@blockSize+1)^(0+1280),f,c
  7944  003D08  2803               	incf	SPI1_ExchangeBlock@blockSize^(0+1280),w,c
  7945  003D0A  E106               	bnz	u2731
  7946  003D0C  2804               	incf	(SPI1_ExchangeBlock@blockSize+1)^(0+1280),w,c
  7947  003D0E  A4D8               	btfss	status,2,c
  7948  003D10  EF8C  F01E         	goto	u2731
  7949  003D14  EF8E  F01E         	goto	u2730
  7950  003D18                     u2731:
  7951  003D18  EF65  F01E         	goto	l3026
  7952  003D1C                     u2730:
  7953  003D1C  0012               	return		;funcret
  7954  003D1E                     __end_of_SPI1_ExchangeBlock:
  7955                           	callstack 0
  7956                           
  7957 ;; *************** function _DATAEE_WriteByte *****************
  7958 ;; Defined at:
  7959 ;;		line 231 in file "mcc_generated_files/memory.c"
  7960 ;; Parameters:    Size  Location     Type
  7961 ;;  bAdd            2    0[COMRAM] unsigned short 
  7962 ;;  bData           1    2[COMRAM] unsigned char 
  7963 ;; Auto vars:     Size  Location     Type
  7964 ;;  GIEBitValue     1    3[COMRAM] unsigned char 
  7965 ;; Return value:  Size  Location     Type
  7966 ;;                  1    wreg      void 
  7967 ;; Registers used:
  7968 ;;		wreg, status,2
  7969 ;; Tracked objects:
  7970 ;;		On entry : 0/0
  7971 ;;		On exit  : 0/0
  7972 ;;		Unchanged: 0/0
  7973 ;; Data sizes:     COMRAM   BANK5   BANK6   BANK7   BANK8   BANK9  BANK10  BANK11  BANK12  BANK13  BANK14  BANK15  BANK1
      +6  BANK17  BANK18  BANK19  BANK20  BANK21
  7974 ;;      Params:         3       0       0       0       0       0       0       0       0       0       0       0       
      +0       0       0       0       0       0
  7975 ;;      Locals:         1       0       0       0       0       0       0       0       0       0       0       0       
      +0       0       0       0       0       0
  7976 ;;      Temps:          0       0       0       0       0       0       0       0       0       0       0       0       
      +0       0       0       0       0       0
  7977 ;;      Totals:         4       0       0       0       0       0       0       0       0       0       0       0       
      +0       0       0       0       0       0
  7978 ;;Total ram usage:        4 bytes
  7979 ;; Hardware stack levels used:    1
  7980 ;; Hardware stack levels required when called:    4
  7981 ;; This function calls:
  7982 ;;		Nothing
  7983 ;; This function is called by:
  7984 ;;		_main
  7985 ;; This function uses a non-reentrant model
  7986 ;;
  7987                           
  7988                           	psect	text22
  7989  003D7A                     __ptext22:
  7990                           	callstack 0
  7991  003D7A                     _DATAEE_WriteByte:
  7992                           	callstack 123
  7993  003D7A                     
  7994                           ;mcc_generated_files/memory.c: 231: void DATAEE_WriteByte(uint16_t bAdd, uint8_t bData);
      +                          mcc_generated_files/memory.c: 232: {;mcc_generated_files/memory.c: 233:     uint8_t GIEB
      +                          itValue = INTCON0bits.GIE;
  7995  003D7A  0E00               	movlw	0
  7996  003D7C  BED6               	btfsc	214,7,c	;volatile
  7997  003D7E  0E01               	movlw	1
  7998  003D80  6E04               	movwf	DATAEE_WriteByte@GIEBitValue^(0+1280),c
  7999  003D82                     
  8000                           ;mcc_generated_files/memory.c: 236:     NVMADRU = 0x38;
  8001  003D82  0E38               	movlw	56
  8002  003D84  0100               	movlb	0	; () banked
  8003  003D86  6F45               	movwf	69,b	;volatile
  8004  003D88                     
  8005                           ; BSR set to: 0
  8006                           ;mcc_generated_files/memory.c: 237:     NVMADRH = (uint8_t) ((bAdd & 0xFF00) >> 8);
  8007  003D88  5002               	movf	(DATAEE_WriteByte@bAdd+1)^(0+1280),w,c
  8008  003D8A  6F44               	movwf	68,b	;volatile
  8009  003D8C                     
  8010                           ; BSR set to: 0
  8011                           ;mcc_generated_files/memory.c: 238:     NVMADRL = (uint8_t) (bAdd & 0x00FF);
  8012  003D8C  0061  F404  F043   	movff	DATAEE_WriteByte@bAdd,67	;volatile
  8013  003D92                     
  8014                           ; BSR set to: 0
  8015                           ;mcc_generated_files/memory.c: 241:     NVMDATL = bData;
  8016  003D92  0061  F40C  F046   	movff	DATAEE_WriteByte@bData,70	;volatile
  8017  003D98                     
  8018                           ; BSR set to: 0
  8019                           ;mcc_generated_files/memory.c: 244:     NVMCON1bits.NVMCMD = 0b011;
  8020  003D98  5141               	movf	65,w,b	;volsfr
  8021  003D9A  0BF8               	andlw	-8
  8022  003D9C  0903               	iorlw	3
  8023  003D9E  6F41               	movwf	65,b	;volsfr
  8024  003DA0                     
  8025                           ; BSR set to: 0
  8026                           ;mcc_generated_files/memory.c: 247:     INTCON0bits.GIE = 0;
  8027  003DA0  9ED6               	bcf	214,7,c	;volatile
  8028  003DA2                     
  8029                           ; BSR set to: 0
  8030                           ;mcc_generated_files/memory.c: 250:     NVMLOCK = 0x55;
  8031  003DA2  0E55               	movlw	85
  8032  003DA4  6F42               	movwf	66,b	;volatile
  8033  003DA6                     
  8034                           ; BSR set to: 0
  8035                           ;mcc_generated_files/memory.c: 251:     NVMLOCK = 0xAA;
  8036  003DA6  0EAA               	movlw	170
  8037  003DA8  6F42               	movwf	66,b	;volatile
  8038  003DAA                     
  8039                           ; BSR set to: 0
  8040                           ;mcc_generated_files/memory.c: 254:     NVMCON0bits.GO = 1;
  8041  003DAA  8140               	bsf	64,0,b	;volatile
  8042  003DAC                     l396:
  8043                           
  8044                           ; BSR set to: 0
  8045  003DAC  B140               	btfsc	64,0,b	;volatile
  8046  003DAE  EFDB  F01E         	goto	u2841
  8047  003DB2  EFDD  F01E         	goto	u2840
  8048  003DB6                     u2841:
  8049  003DB6  EFD6  F01E         	goto	l396
  8050  003DBA                     u2840:
  8051  003DBA                     
  8052                           ; BSR set to: 0
  8053                           ;mcc_generated_files/memory.c: 258:     INTCON0bits.GIE = GIEBitValue;
  8054  003DBA  B004               	btfsc	DATAEE_WriteByte@GIEBitValue^(0+1280),0,c
  8055  003DBC  D002               	bra	u2855
  8056  003DBE  9ED6               	bcf	214,7,c	;volatile
  8057  003DC0  D001               	bra	u2856
  8058  003DC2                     u2855:
  8059  003DC2  8ED6               	bsf	214,7,c	;volatile
  8060  003DC4                     u2856:
  8061  003DC4                     
  8062                           ;mcc_generated_files/memory.c: 261:     NVMCON1bits.NVMCMD = 0b000;
  8063  003DC4  0EF8               	movlw	-8
  8064  003DC6  0100               	movlb	0	; () banked
  8065  003DC8  1741               	andwf	65,f,b	;volsfr
  8066  003DCA                     
  8067                           ; BSR set to: 0
  8068  003DCA  0012               	return		;funcret
  8069  003DCC                     __end_of_DATAEE_WriteByte:
  8070                           	callstack 0
  8071                           
  8072 ;; *************** function _DATAEE_ReadByte *****************
  8073 ;; Defined at:
  8074 ;;		line 264 in file "mcc_generated_files/memory.c"
  8075 ;; Parameters:    Size  Location     Type
  8076 ;;  bAdd            2    0[COMRAM] unsigned short 
  8077 ;; Auto vars:     Size  Location     Type
  8078 ;;		None
  8079 ;; Return value:  Size  Location     Type
  8080 ;;                  1    wreg      unsigned char 
  8081 ;; Registers used:
  8082 ;;		wreg, status,2
  8083 ;; Tracked objects:
  8084 ;;		On entry : 0/0
  8085 ;;		On exit  : 0/0
  8086 ;;		Unchanged: 0/0
  8087 ;; Data sizes:     COMRAM   BANK5   BANK6   BANK7   BANK8   BANK9  BANK10  BANK11  BANK12  BANK13  BANK14  BANK15  BANK1
      +6  BANK17  BANK18  BANK19  BANK20  BANK21
  8088 ;;      Params:         2       0       0       0       0       0       0       0       0       0       0       0       
      +0       0       0       0       0       0
  8089 ;;      Locals:         0       0       0       0       0       0       0       0       0       0       0       0       
      +0       0       0       0       0       0
  8090 ;;      Temps:          0       0       0       0       0       0       0       0       0       0       0       0       
      +0       0       0       0       0       0
  8091 ;;      Totals:         2       0       0       0       0       0       0       0       0       0       0       0       
      +0       0       0       0       0       0
  8092 ;;Total ram usage:        2 bytes
  8093 ;; Hardware stack levels used:    1
  8094 ;; Hardware stack levels required when called:    4
  8095 ;; This function calls:
  8096 ;;		Nothing
  8097 ;; This function is called by:
  8098 ;;		_main
  8099 ;; This function uses a non-reentrant model
  8100 ;;
  8101                           
  8102                           	psect	text23
  8103  003FA0                     __ptext23:
  8104                           	callstack 0
  8105  003FA0                     _DATAEE_ReadByte:
  8106                           	callstack 123
  8107  003FA0                     
  8108                           ;mcc_generated_files/memory.c: 264: uint8_t DATAEE_ReadByte(uint16_t bAdd);mcc_generated
      +                          _files/memory.c: 265: {;mcc_generated_files/memory.c: 267:     NVMADRU = 0x38;
  8109  003FA0  0E38               	movlw	56
  8110  003FA2  0100               	movlb	0	; () banked
  8111  003FA4  6F45               	movwf	69,b	;volatile
  8112                           
  8113                           ;mcc_generated_files/memory.c: 268:     NVMADRH = (uint8_t) ((bAdd & 0xFF00) >> 8);
  8114  003FA6  5002               	movf	(DATAEE_ReadByte@bAdd+1)^(0+1280),w,c
  8115  003FA8  6F44               	movwf	68,b	;volatile
  8116  003FAA                     
  8117                           ; BSR set to: 0
  8118                           ;mcc_generated_files/memory.c: 269:     NVMADRL = (uint8_t) (bAdd & 0x00FF);
  8119  003FAA  0061  F404  F043   	movff	DATAEE_ReadByte@bAdd,67	;volatile
  8120                           
  8121                           ;mcc_generated_files/memory.c: 272:     NVMCON1bits.NVMCMD = 0b000;
  8122  003FB0  0EF8               	movlw	-8
  8123  003FB2  1741               	andwf	65,f,b	;volsfr
  8124  003FB4                     
  8125                           ; BSR set to: 0
  8126                           ;mcc_generated_files/memory.c: 273:     NVMCON0bits.GO = 1;
  8127  003FB4  8140               	bsf	64,0,b	;volatile
  8128                           
  8129                           ;mcc_generated_files/memory.c: 275:     return NVMDATL;
  8130  003FB6  5146               	movf	70,w,b	;volatile
  8131  003FB8                     
  8132                           ; BSR set to: 0
  8133  003FB8  0012               	return		;funcret
  8134  003FBA                     __end_of_DATAEE_ReadByte:
  8135                           	callstack 0
  8136                           
  8137 ;; *************** function _ADCC_GetSingleConversion *****************
  8138 ;; Defined at:
  8139 ;;		line 137 in file "mcc_generated_files/adcc.c"
  8140 ;; Parameters:    Size  Location     Type
  8141 ;;  channel         1    wreg     enum E12898
  8142 ;; Auto vars:     Size  Location     Type
  8143 ;;  channel         1    4[COMRAM] enum E12898
  8144 ;; Return value:  Size  Location     Type
  8145 ;;                  2    0[COMRAM] unsigned short 
  8146 ;; Registers used:
  8147 ;;		wreg, status,2, status,0
  8148 ;; Tracked objects:
  8149 ;;		On entry : 0/0
  8150 ;;		On exit  : 0/0
  8151 ;;		Unchanged: 0/0
  8152 ;; Data sizes:     COMRAM   BANK5   BANK6   BANK7   BANK8   BANK9  BANK10  BANK11  BANK12  BANK13  BANK14  BANK15  BANK1
      +6  BANK17  BANK18  BANK19  BANK20  BANK21
  8153 ;;      Params:         2       0       0       0       0       0       0       0       0       0       0       0       
      +0       0       0       0       0       0
  8154 ;;      Locals:         1       0       0       0       0       0       0       0       0       0       0       0       
      +0       0       0       0       0       0
  8155 ;;      Temps:          2       0       0       0       0       0       0       0       0       0       0       0       
      +0       0       0       0       0       0
  8156 ;;      Totals:         5       0       0       0       0       0       0       0       0       0       0       0       
      +0       0       0       0       0       0
  8157 ;;Total ram usage:        5 bytes
  8158 ;; Hardware stack levels used:    1
  8159 ;; Hardware stack levels required when called:    4
  8160 ;; This function calls:
  8161 ;;		Nothing
  8162 ;; This function is called by:
  8163 ;;		_main
  8164 ;; This function uses a non-reentrant model
  8165 ;;
  8166                           
  8167                           	psect	text24
  8168  003DCC                     __ptext24:
  8169                           	callstack 0
  8170  003DCC                     _ADCC_GetSingleConversion:
  8171                           	callstack 123
  8172                           
  8173                           ; BSR set to: 0
  8174                           ;incstack = 0
  8175                           ;ADCC_GetSingleConversion@channel stored from wreg
  8176  003DCC  6E05               	movwf	ADCC_GetSingleConversion@channel^(0+1280),c
  8177  003DCE                     
  8178                           ;mcc_generated_files/adcc.c: 137: adc_result_t ADCC_GetSingleConversion(adcc_channel_t c
      +                          hannel);mcc_generated_files/adcc.c: 138: {;mcc_generated_files/adcc.c: 140:     ADPCH = 
      +                          channel;
  8179  003DCE  0061  F414  F3EC   	movff	ADCC_GetSingleConversion@channel,1004	;volatile
  8180  003DD4                     
  8181                           ;mcc_generated_files/adcc.c: 143:     ADCON0bits.ADON = 1;
  8182  003DD4  0103               	movlb	3	; () banked
  8183  003DD6  8FF3               	bsf	243,7,b	;volatile
  8184  003DD8                     
  8185                           ; BSR set to: 3
  8186                           ;mcc_generated_files/adcc.c: 146:     ADCON0bits.ADCONT = 0;
  8187  003DD8  9DF3               	bcf	243,6,b	;volatile
  8188  003DDA                     
  8189                           ; BSR set to: 3
  8190                           ;mcc_generated_files/adcc.c: 149:     ADCON0bits.ADGO = 1;
  8191  003DDA  81F3               	bsf	243,0,b	;volatile
  8192  003DDC                     l147:
  8193                           
  8194                           ; BSR set to: 3
  8195                           ;mcc_generated_files/adcc.c: 153:     while (ADCON0bits.ADGO)
  8196  003DDC  B1F3               	btfsc	243,0,b	;volatile
  8197  003DDE  EFF3  F01E         	goto	u2821
  8198  003DE2  EFF5  F01E         	goto	u2820
  8199  003DE6                     u2821:
  8200  003DE6  EFEE  F01E         	goto	l147
  8201  003DEA                     u2820:
  8202  003DEA                     
  8203                           ; BSR set to: 3
  8204                           ;mcc_generated_files/adcc.c: 159:     return ((adc_result_t)((ADRESH << 8) + ADRESL));
  8205  003DEA  51EB               	movf	235,w,b	;volatile
  8206  003DEC  6E04               	movwf	(??_ADCC_GetSingleConversion+1)^(0+1280),c
  8207  003DEE  6A03               	clrf	??_ADCC_GetSingleConversion^(0+1280),c
  8208  003DF0  51EA               	movf	234,w,b	;volatile
  8209  003DF2  2403               	addwf	??_ADCC_GetSingleConversion^(0+1280),w,c
  8210  003DF4  6E01               	movwf	?_ADCC_GetSingleConversion^(0+1280),c
  8211  003DF6  0E00               	movlw	0
  8212  003DF8  2004               	addwfc	(??_ADCC_GetSingleConversion+1)^(0+1280),w,c
  8213  003DFA  6E02               	movwf	(?_ADCC_GetSingleConversion+1)^(0+1280),c
  8214  003DFC                     
  8215                           ; BSR set to: 3
  8216  003DFC  0012               	return		;funcret
  8217  003DFE                     __end_of_ADCC_GetSingleConversion:
  8218                           	callstack 0
  8219                           
  8220 ;; *************** function _ADCC_DischargeSampleCapacitor *****************
  8221 ;; Defined at:
  8222 ;;		line 174 in file "mcc_generated_files/adcc.c"
  8223 ;; Parameters:    Size  Location     Type
  8224 ;;		None
  8225 ;; Auto vars:     Size  Location     Type
  8226 ;;		None
  8227 ;; Return value:  Size  Location     Type
  8228 ;;                  1    wreg      void 
  8229 ;; Registers used:
  8230 ;;		wreg, status,2
  8231 ;; Tracked objects:
  8232 ;;		On entry : 0/0
  8233 ;;		On exit  : 0/0
  8234 ;;		Unchanged: 0/0
  8235 ;; Data sizes:     COMRAM   BANK5   BANK6   BANK7   BANK8   BANK9  BANK10  BANK11  BANK12  BANK13  BANK14  BANK15  BANK1
      +6  BANK17  BANK18  BANK19  BANK20  BANK21
  8236 ;;      Params:         0       0       0       0       0       0       0       0       0       0       0       0       
      +0       0       0       0       0       0
  8237 ;;      Locals:         0       0       0       0       0       0       0       0       0       0       0       0       
      +0       0       0       0       0       0
  8238 ;;      Temps:          0       0       0       0       0       0       0       0       0       0       0       0       
      +0       0       0       0       0       0
  8239 ;;      Totals:         0       0       0       0       0       0       0       0       0       0       0       0       
      +0       0       0       0       0       0
  8240 ;;Total ram usage:        0 bytes
  8241 ;; Hardware stack levels used:    1
  8242 ;; Hardware stack levels required when called:    4
  8243 ;; This function calls:
  8244 ;;		Nothing
  8245 ;; This function is called by:
  8246 ;;		_main
  8247 ;; This function uses a non-reentrant model
  8248 ;;
  8249                           
  8250                           	psect	text25
  8251  003FCE                     __ptext25:
  8252                           	callstack 0
  8253  003FCE                     _ADCC_DischargeSampleCapacitor:
  8254                           	callstack 123
  8255  003FCE                     
  8256                           ;mcc_generated_files/adcc.c: 177:     ADPCH = 0x3b;
  8257  003FCE  0E3B               	movlw	59
  8258  003FD0  0103               	movlb	3	; () banked
  8259  003FD2  6FEC               	movwf	236,b	;volatile
  8260  003FD4                     
  8261                           ; BSR set to: 3
  8262  003FD4  0012               	return		;funcret
  8263  003FD6                     __end_of_ADCC_DischargeSampleCapacitor:
  8264                           	callstack 0
  8265                           
  8266 ;; *************** function _INTERRUPT_InterruptManager *****************
  8267 ;; Defined at:
  8268 ;;		line 58 in file "mcc_generated_files/interrupt_manager.c"
  8269 ;; Parameters:    Size  Location     Type
  8270 ;;		None
  8271 ;; Auto vars:     Size  Location     Type
  8272 ;;		None
  8273 ;; Return value:  Size  Location     Type
  8274 ;;                  1    wreg      void 
  8275 ;; Registers used:
  8276 ;;		wreg, status,2, status,0, pclath, tosl, cstack
  8277 ;; Tracked objects:
  8278 ;;		On entry : 0/0
  8279 ;;		On exit  : 0/0
  8280 ;;		Unchanged: 0/0
  8281 ;; Data sizes:     COMRAM   BANK5   BANK6   BANK7   BANK8   BANK9  BANK10  BANK11  BANK12  BANK13  BANK14  BANK15  BANK1
      +6  BANK17  BANK18  BANK19  BANK20  BANK21
  8282 ;;      Params:         0       0       0       0       0       0       0       0       0       0       0       0       
      +0       0       0       0       0       0
  8283 ;;      Locals:         0       0       0       0       0       0       0       0       0       0       0       0       
      +0       0       0       0       0       0
  8284 ;;      Temps:          0       0       0       0       0       0       0       0       0       0       0       0       
      +0       0       0       0       0       0
  8285 ;;      Totals:         0       0       0       0       0       0       0       0       0       0       0       0       
      +0       0       0       0       0       0
  8286 ;;Total ram usage:        0 bytes
  8287 ;; Hardware stack levels used:    1
  8288 ;; Hardware stack levels required when called:    3
  8289 ;; This function calls:
  8290 ;;		_TMR2_ISR
  8291 ;; This function is called by:
  8292 ;;		Interrupt level 2
  8293 ;; This function uses a non-reentrant model
  8294 ;;
  8295                           
  8296                           	psect	text26
  8297  003E58                     __ptext26:
  8298                           	callstack 0
  8299  003E58                     _INTERRUPT_InterruptManager:
  8300                           	callstack 120
  8301  003E58                     
  8302                           ;mcc_generated_files/interrupt_manager.c: 61:     if(PIE3bits.TMR2IE == 1 && PIR3bits.TM
      +                          R2IF == 1)
  8303  003E58  A6AB               	btfss	171,3,c	;volatile
  8304  003E5A  EF31  F01F         	goto	i2u40_41
  8305  003E5E  EF33  F01F         	goto	i2u40_40
  8306  003E62                     i2u40_41:
  8307  003E62  EF3C  F01F         	goto	i2l423
  8308  003E66                     i2u40_40:
  8309  003E66  A6B6               	btfss	182,3,c	;volatile
  8310  003E68  EF38  F01F         	goto	i2u41_41
  8311  003E6C  EF3A  F01F         	goto	i2u41_40
  8312  003E70                     i2u41_41:
  8313  003E70  EF3C  F01F         	goto	i2l423
  8314  003E74                     i2u41_40:
  8315  003E74                     
  8316                           ;mcc_generated_files/interrupt_manager.c: 62:     {;mcc_generated_files/interrupt_manage
      +                          r.c: 63:         TMR2_ISR();
  8317  003E74  ECEB  F01F         	call	_TMR2_ISR	;wreg free
  8318  003E78                     i2l423:
  8319  003E78  0011               	retfie		f
  8320  003E7A                     __end_of_INTERRUPT_InterruptManager:
  8321                           	callstack 0
  8322                           
  8323 ;; *************** function _TMR2_ISR *****************
  8324 ;; Defined at:
  8325 ;;		line 165 in file "mcc_generated_files/tmr2.c"
  8326 ;; Parameters:    Size  Location     Type
  8327 ;;		None
  8328 ;; Auto vars:     Size  Location     Type
  8329 ;;		None
  8330 ;; Return value:  Size  Location     Type
  8331 ;;                  1    wreg      void 
  8332 ;; Registers used:
  8333 ;;		wreg, status,2, status,0, pclath, tosl, cstack
  8334 ;; Tracked objects:
  8335 ;;		On entry : 0/0
  8336 ;;		On exit  : 0/0
  8337 ;;		Unchanged: 0/0
  8338 ;; Data sizes:     COMRAM   BANK5   BANK6   BANK7   BANK8   BANK9  BANK10  BANK11  BANK12  BANK13  BANK14  BANK15  BANK1
      +6  BANK17  BANK18  BANK19  BANK20  BANK21
  8339 ;;      Params:         0       0       0       0       0       0       0       0       0       0       0       0       
      +0       0       0       0       0       0
  8340 ;;      Locals:         0       0       0       0       0       0       0       0       0       0       0       0       
      +0       0       0       0       0       0
  8341 ;;      Temps:          0       0       0       0       0       0       0       0       0       0       0       0       
      +0       0       0       0       0       0
  8342 ;;      Totals:         0       0       0       0       0       0       0       0       0       0       0       0       
      +0       0       0       0       0       0
  8343 ;;Total ram usage:        0 bytes
  8344 ;; Hardware stack levels used:    1
  8345 ;; Hardware stack levels required when called:    2
  8346 ;; This function calls:
  8347 ;;		_TMR2_CallBack
  8348 ;; This function is called by:
  8349 ;;		_INTERRUPT_InterruptManager
  8350 ;; This function uses a non-reentrant model
  8351 ;;
  8352                           
  8353                           	psect	text27
  8354  003FD6                     __ptext27:
  8355                           	callstack 0
  8356  003FD6                     _TMR2_ISR:
  8357                           	callstack 120
  8358  003FD6                     
  8359                           ;mcc_generated_files/tmr2.c: 169:     PIR3bits.TMR2IF = 0;
  8360  003FD6  96B6               	bcf	182,3,c	;volatile
  8361  003FD8                     
  8362                           ;mcc_generated_files/tmr2.c: 173:     TMR2_CallBack();
  8363  003FD8  EC16  F01F         	call	_TMR2_CallBack	;wreg free
  8364  003FDC  0012               	return		;funcret
  8365  003FDE                     __end_of_TMR2_ISR:
  8366                           	callstack 0
  8367                           
  8368 ;; *************** function _TMR2_CallBack *****************
  8369 ;; Defined at:
  8370 ;;		line 176 in file "mcc_generated_files/tmr2.c"
  8371 ;; Parameters:    Size  Location     Type
  8372 ;;		None
  8373 ;; Auto vars:     Size  Location     Type
  8374 ;;		None
  8375 ;; Return value:  Size  Location     Type
  8376 ;;                  1    wreg      void 
  8377 ;; Registers used:
  8378 ;;		wreg, status,2, status,0, pclath, tosl, cstack
  8379 ;; Tracked objects:
  8380 ;;		On entry : 0/0
  8381 ;;		On exit  : 0/0
  8382 ;;		Unchanged: 0/0
  8383 ;; Data sizes:     COMRAM   BANK5   BANK6   BANK7   BANK8   BANK9  BANK10  BANK11  BANK12  BANK13  BANK14  BANK15  BANK1
      +6  BANK17  BANK18  BANK19  BANK20  BANK21
  8384 ;;      Params:         0       0       0       0       0       0       0       0       0       0       0       0       
      +0       0       0       0       0       0
  8385 ;;      Locals:         0       0       0       0       0       0       0       0       0       0       0       0       
      +0       0       0       0       0       0
  8386 ;;      Temps:          0       0       0       0       0       0       0       0       0       0       0       0       
      +0       0       0       0       0       0
  8387 ;;      Totals:         0       0       0       0       0       0       0       0       0       0       0       0       
      +0       0       0       0       0       0
  8388 ;;Total ram usage:        0 bytes
  8389 ;; Hardware stack levels used:    1
  8390 ;; Hardware stack levels required when called:    1
  8391 ;; This function calls:
  8392 ;;		Absolute function
  8393 ;;		_LOOPDELAY_TimerISR
  8394 ;;		_TMR2_DefaultInterruptHandler
  8395 ;; This function is called by:
  8396 ;;		_TMR2_ISR
  8397 ;; This function uses a non-reentrant model
  8398 ;;
  8399                           
  8400                           	psect	text28
  8401  003E2C                     __ptext28:
  8402                           	callstack 0
  8403  003E2C                     _TMR2_CallBack:
  8404                           	callstack 120
  8405  003E2C                     
  8406                           ;mcc_generated_files/tmr2.c: 180:     if(TMR2_InterruptHandler)
  8407  003E2C  503F               	movf	_TMR2_InterruptHandler^(0+1280),w,c
  8408  003E2E  1040               	iorwf	(_TMR2_InterruptHandler+1)^(0+1280),w,c
  8409  003E30  B4D8               	btfsc	status,2,c
  8410  003E32  EF1D  F01F         	goto	i2u12_41
  8411  003E36  EF1F  F01F         	goto	i2u12_40
  8412  003E3A                     i2u12_41:
  8413  003E3A  EF2B  F01F         	goto	i2l503
  8414  003E3E                     i2u12_40:
  8415  003E3E                     
  8416                           ;mcc_generated_files/tmr2.c: 181:     {;mcc_generated_files/tmr2.c: 182:         TMR2_In
      +                          terruptHandler();
  8417  003E3E  D802               	call	i2u13_48
  8418  003E40  EF2B  F01F         	goto	i2u13_49
  8419  003E44                     i2u13_48:
  8420  003E44  0005               	push	
  8421  003E46  6EFA               	movwf	pclath,c
  8422  003E48  503F               	movf	_TMR2_InterruptHandler^(0+1280),w,c
  8423  003E4A  6EFD               	movwf	tosl,c
  8424  003E4C  5040               	movf	(_TMR2_InterruptHandler+1)^(0+1280),w,c
  8425  003E4E  6EFE               	movwf	tosh,c
  8426  003E50  6AFF               	clrf	tosu,c
  8427  003E52  50FA               	movf	pclath,w,c
  8428  003E54  0012               	return		;indir
  8429  003E56                     i2u13_49:
  8430  003E56                     i2l503:
  8431  003E56  0012               	return		;funcret
  8432  003E58                     __end_of_TMR2_CallBack:
  8433                           	callstack 0
  8434                           
  8435 ;; *************** function _LOOPDELAY_TimerISR *****************
  8436 ;; Defined at:
  8437 ;;		line 9 in file "Loopdelay.c"
  8438 ;; Parameters:    Size  Location     Type
  8439 ;;		None
  8440 ;; Auto vars:     Size  Location     Type
  8441 ;;		None
  8442 ;; Return value:  Size  Location     Type
  8443 ;;                  1    wreg      void 
  8444 ;; Registers used:
  8445 ;;		wreg, status,2, status,0
  8446 ;; Tracked objects:
  8447 ;;		On entry : 0/0
  8448 ;;		On exit  : 0/0
  8449 ;;		Unchanged: 0/0
  8450 ;; Data sizes:     COMRAM   BANK5   BANK6   BANK7   BANK8   BANK9  BANK10  BANK11  BANK12  BANK13  BANK14  BANK15  BANK1
      +6  BANK17  BANK18  BANK19  BANK20  BANK21
  8451 ;;      Params:         0       0       0       0       0       0       0       0       0       0       0       0       
      +0       0       0       0       0       0
  8452 ;;      Locals:         0       0       0       0       0       0       0       0       0       0       0       0       
      +0       0       0       0       0       0
  8453 ;;      Temps:          0       0       0       0       0       0       0       0       0       0       0       0       
      +0       0       0       0       0       0
  8454 ;;      Totals:         0       0       0       0       0       0       0       0       0       0       0       0       
      +0       0       0       0       0       0
  8455 ;;Total ram usage:        0 bytes
  8456 ;; Hardware stack levels used:    1
  8457 ;; This function calls:
  8458 ;;		Nothing
  8459 ;; This function is called by:
  8460 ;;		_main
  8461 ;;		_TMR2_CallBack
  8462 ;; This function uses a non-reentrant model
  8463 ;;
  8464                           
  8465                           	psect	text29
  8466  003F14                     __ptext29:
  8467                           	callstack 0
  8468  003F14                     _LOOPDELAY_TimerISR:
  8469                           	callstack 120
  8470  003F14                     
  8471                           ;Loopdelay.c: 11:     if(loopTimeCnt != 10000)
  8472  003F14  0E10               	movlw	16
  8473  003F16  183C               	xorwf	_loopTimeCnt^(0+1280),w,c	;volatile
  8474  003F18  E109               	bnz	i2u9_40
  8475  003F1A  0E27               	movlw	39
  8476  003F1C  183D               	xorwf	(_loopTimeCnt+1)^(0+1280),w,c	;volatile
  8477  003F1E  B4D8               	btfsc	status,2,c
  8478  003F20  EF94  F01F         	goto	i2u9_41
  8479  003F24  EF96  F01F         	goto	i2u9_40
  8480  003F28                     i2u9_41:
  8481  003F28  EF98  F01F         	goto	i2l743
  8482  003F2C                     i2u9_40:
  8483  003F2C                     
  8484                           ;Loopdelay.c: 12:     {;Loopdelay.c: 13:         loopTimeCnt += 1;
  8485  003F2C  4A3C               	infsnz	_loopTimeCnt^(0+1280),f,c	;volatile
  8486  003F2E  2A3D               	incf	(_loopTimeCnt+1)^(0+1280),f,c	;volatile
  8487  003F30                     i2l743:
  8488  003F30  0012               	return		;funcret
  8489  003F32                     __end_of_LOOPDELAY_TimerISR:
  8490                           	callstack 0
  8491                           
  8492 ;; *************** function _TMR2_DefaultInterruptHandler *****************
  8493 ;; Defined at:
  8494 ;;		line 190 in file "mcc_generated_files/tmr2.c"
  8495 ;; Parameters:    Size  Location     Type
  8496 ;;		None
  8497 ;; Auto vars:     Size  Location     Type
  8498 ;;		None
  8499 ;; Return value:  Size  Location     Type
  8500 ;;                  1    wreg      void 
  8501 ;; Registers used:
  8502 ;;		None
  8503 ;; Tracked objects:
  8504 ;;		On entry : 0/0
  8505 ;;		On exit  : 0/0
  8506 ;;		Unchanged: 0/0
  8507 ;; Data sizes:     COMRAM   BANK5   BANK6   BANK7   BANK8   BANK9  BANK10  BANK11  BANK12  BANK13  BANK14  BANK15  BANK1
      +6  BANK17  BANK18  BANK19  BANK20  BANK21
  8508 ;;      Params:         0       0       0       0       0       0       0       0       0       0       0       0       
      +0       0       0       0       0       0
  8509 ;;      Locals:         0       0       0       0       0       0       0       0       0       0       0       0       
      +0       0       0       0       0       0
  8510 ;;      Temps:          0       0       0       0       0       0       0       0       0       0       0       0       
      +0       0       0       0       0       0
  8511 ;;      Totals:         0       0       0       0       0       0       0       0       0       0       0       0       
      +0       0       0       0       0       0
  8512 ;;Total ram usage:        0 bytes
  8513 ;; Hardware stack levels used:    1
  8514 ;; This function calls:
  8515 ;;		Nothing
  8516 ;; This function is called by:
  8517 ;;		_TMR2_Initialize
  8518 ;;		_TMR2_CallBack
  8519 ;; This function uses a non-reentrant model
  8520 ;;
  8521                           
  8522                           	psect	text30
  8523  003FE2                     __ptext30:
  8524                           	callstack 0
  8525  003FE2                     _TMR2_DefaultInterruptHandler:
  8526                           	callstack 120
  8527  003FE2  0012               	return		;funcret
  8528  003FE4                     __end_of_TMR2_DefaultInterruptHandler:
  8529                           	callstack 0
  8530                           
  8531                           ;
  8532                           ; Interrupt Vector Table @ 0x8
  8533                           ;
  8534                           
  8535                           	psect	ivt0x8
  8536  000008                     __pivt0x8:
  8537                           	callstack 0
  8538  000008                     ivt0x8_base:
  8539                           	callstack 0
  8540                           
  8541                           ; high-priority vector
  8542  000008  EF2C  F01F         	goto	_INTERRUPT_InterruptManager
  8543  000018                     	org	16
  8544                           
  8545                           ; low-priority vector
  8546  000018  00FF               	reset	
  8547                           
  8548                           	psect	text31
  8549  000000                     __ptext31:
  8550                           	callstack 0
  8551  000000                     
  8552                           	psect	rparam
  8553  0000                     
  8554                           	psect	idloc
  8555                           
  8556                           ;Config register IDLOC0 @ 0x200000
  8557                           ;	unspecified, using default values
  8558  200000                     	org	2097152
  8559  200000  0FFF               	dw	4095
  8560                           
  8561                           ;Config register IDLOC1 @ 0x200002
  8562                           ;	unspecified, using default values
  8563  200002                     	org	2097154
  8564  200002  0FFF               	dw	4095
  8565                           
  8566                           ;Config register IDLOC2 @ 0x200004
  8567                           ;	unspecified, using default values
  8568  200004                     	org	2097156
  8569  200004  0FFF               	dw	4095
  8570                           
  8571                           ;Config register IDLOC3 @ 0x200006
  8572                           ;	unspecified, using default values
  8573  200006                     	org	2097158
  8574  200006  0FFF               	dw	4095
  8575                           
  8576                           ;Config register IDLOC4 @ 0x200008
  8577                           ;	unspecified, using default values
  8578  200008                     	org	2097160
  8579  200008  0FFF               	dw	4095
  8580                           
  8581                           ;Config register IDLOC5 @ 0x20000A
  8582                           ;	unspecified, using default values
  8583  20000A                     	org	2097162
  8584  20000A  0FFF               	dw	4095
  8585                           
  8586                           ;Config register IDLOC6 @ 0x20000C
  8587                           ;	unspecified, using default values
  8588  20000C                     	org	2097164
  8589  20000C  0FFF               	dw	4095
  8590                           
  8591                           ;Config register IDLOC7 @ 0x20000E
  8592                           ;	unspecified, using default values
  8593  20000E                     	org	2097166
  8594  20000E  0FFF               	dw	4095
  8595                           
  8596                           ;Config register IDLOC8 @ 0x200010
  8597                           ;	unspecified, using default values
  8598  200010                     	org	2097168
  8599  200010  0FFF               	dw	4095
  8600                           
  8601                           ;Config register IDLOC9 @ 0x200012
  8602                           ;	unspecified, using default values
  8603  200012                     	org	2097170
  8604  200012  0FFF               	dw	4095
  8605                           
  8606                           ;Config register IDLOC10 @ 0x200014
  8607                           ;	unspecified, using default values
  8608  200014                     	org	2097172
  8609  200014  0FFF               	dw	4095
  8610                           
  8611                           ;Config register IDLOC11 @ 0x200016
  8612                           ;	unspecified, using default values
  8613  200016                     	org	2097174
  8614  200016  0FFF               	dw	4095
  8615                           
  8616                           ;Config register IDLOC12 @ 0x200018
  8617                           ;	unspecified, using default values
  8618  200018                     	org	2097176
  8619  200018  0FFF               	dw	4095
  8620                           
  8621                           ;Config register IDLOC13 @ 0x20001A
  8622                           ;	unspecified, using default values
  8623  20001A                     	org	2097178
  8624  20001A  0FFF               	dw	4095
  8625                           
  8626                           ;Config register IDLOC14 @ 0x20001C
  8627                           ;	unspecified, using default values
  8628  20001C                     	org	2097180
  8629  20001C  0FFF               	dw	4095
  8630                           
  8631                           ;Config register IDLOC15 @ 0x20001E
  8632                           ;	unspecified, using default values
  8633  20001E                     	org	2097182
  8634  20001E  0FFF               	dw	4095
  8635                           
  8636                           	psect	config
  8637                           
  8638                           ;Config register CONFIG1 @ 0x300000
  8639                           ;	External Oscillator Selection
  8640                           ;	FEXTOSC = OFF, Oscillator not enabled
  8641                           ;	Reset Oscillator Selection
  8642                           ;	RSTOSC = HFINTOSC_64MHZ, HFINTOSC with HFFRQ = 64 MHz and CDIV = 1:1
  8643  300000                     	org	3145728
  8644  300000  8C                 	db	140
  8645                           
  8646                           ;Config register CONFIG2 @ 0x300001
  8647                           ;	Clock out Enable bit
  8648                           ;	CLKOUTEN = OFF, CLKOUT function is disabled
  8649                           ;	PRLOCKED One-Way Set Enable bit
  8650                           ;	PR1WAY = ON, PRLOCKED bit can be cleared and set only once
  8651                           ;	Clock Switch Enable bit
  8652                           ;	CSWEN = ON, Writing to NOSC and NDIV is allowed
  8653                           ;	Fail-Safe Clock Monitor Enable bit
  8654                           ;	FCMEN = ON, Fail-Safe Clock Monitor enabled
  8655                           ;	Fail-Safe Clock Monitor - Primary XTAL Enable bit
  8656                           ;	FCMENP = ON, Fail-Safe Clock Monitor enabled; timer will flag FSCMP bit and OSFIF inte
      +                          rrupt on EXTOSC failure.
  8657                           ;	Fail-Safe Clock Monitor - Secondary XTAL Enable bit
  8658                           ;	FCMENS = ON, Fail-Safe Clock Monitor enabled; timer will flag FSCMP bit and OSFIF inte
      +                          rrupt on SOSC failure.
  8659  300001                     	org	3145729
  8660  300001  FF                 	db	255
  8661                           
  8662                           ;Config register CONFIG3 @ 0x300002
  8663                           ;	MCLR Enable bit
  8664                           ;	MCLRE = EXTMCLR, If LVP = 0, MCLR pin is MCLR; If LVP = 1, RE3 pin function is MCLR
  8665                           ;	Power-up timer selection bits
  8666                           ;	PWRTS = PWRT_OFF, PWRT is disabled
  8667                           ;	Multi-vector enable bit
  8668                           ;	MVECEN = OFF, Interrupt contoller does not use vector table to prioritze interrupts
  8669                           ;	IVTLOCK bit One-way set enable bit
  8670                           ;	IVT1WAY = ON, IVTLOCKED bit can be cleared and set only once
  8671                           ;	Low Power BOR Enable bit
  8672                           ;	LPBOREN = OFF, Low-Power BOR disabled
  8673                           ;	Brown-out Reset Enable bits
  8674                           ;	BOREN = SBORDIS, Brown-out Reset enabled , SBOREN bit is ignored
  8675  300002                     	org	3145730
  8676  300002  F7                 	db	247
  8677                           
  8678                           ;Config register CONFIG4 @ 0x300003
  8679                           ;	Brown-out Reset Voltage Selection bits
  8680                           ;	BORV = VBOR_1P9, Brown-out Reset Voltage (VBOR) set to 1.9V
  8681                           ;	ZCD Disable bit
  8682                           ;	ZCD = OFF, ZCD module is disabled. ZCD can be enabled by setting the ZCDSEN bit of ZCD
      +                          CON
  8683                           ;	PPSLOCK bit One-Way Set Enable bit
  8684                           ;	PPS1WAY = ON, PPSLOCKED bit can be cleared and set only once; PPS registers remain loc
      +                          ked after one clear/set cycle
  8685                           ;	Stack Full/Underflow Reset Enable bit
  8686                           ;	STVREN = ON, Stack full/underflow will cause Reset
  8687                           ;	Low Voltage Programming Enable bit
  8688                           ;	LVP = ON, Low voltage programming enabled. MCLR/VPP pin function is MCLR. MCLRE config
      +                          uration bit is ignored
  8689                           ;	Extended Instruction Set Enable bit
  8690                           ;	XINST = OFF, Extended Instruction Set and Indexed Addressing Mode disabled
  8691  300003                     	org	3145731
  8692  300003  FF                 	db	255
  8693                           
  8694                           ;Config register CONFIG5 @ 0x300004
  8695                           ;	WDT Period selection bits
  8696                           ;	WDTCPS = WDTCPS_31, Divider ratio 1:65536; software control of WDTPS
  8697                           ;	WDT operating mode
  8698                           ;	WDTE = OFF, WDT Disabled; SWDTEN is ignored
  8699  300004                     	org	3145732
  8700  300004  9F                 	db	159
  8701                           
  8702                           ;Config register CONFIG6 @ 0x300005
  8703                           ;	WDT Window Select bits
  8704                           ;	WDTCWS = WDTCWS_7, window always open (100%); software control; keyed access not requi
      +                          red
  8705                           ;	WDT input clock selector
  8706                           ;	WDTCCS = SC, Software Control
  8707  300005                     	org	3145733
  8708  300005  FF                 	db	255
  8709                           
  8710                           ;Config register CONFIG7 @ 0x300006
  8711                           ;	Boot Block Size selection bits
  8712                           ;	BBSIZE = BBSIZE_512, Boot Block size is 512 words
  8713                           ;	Boot Block enable bit
  8714                           ;	BBEN = OFF, Boot block disabled
  8715                           ;	Storage Area Flash enable bit
  8716                           ;	SAFEN = OFF, SAF disabled
  8717                           ;	Background Debugger
  8718                           ;	DEBUG = OFF, Background Debugger disabled
  8719  300006                     	org	3145734
  8720  300006  FF                 	db	255
  8721                           
  8722                           ;Config register CONFIG8 @ 0x300007
  8723                           ;	Boot Block Write Protection bit
  8724                           ;	WRTB = OFF, Boot Block not Write protected
  8725                           ;	Configuration Register Write Protection bit
  8726                           ;	WRTC = OFF, Configuration registers not Write protected
  8727                           ;	Data EEPROM Write Protection bit
  8728                           ;	WRTD = OFF, Data EEPROM not Write protected
  8729                           ;	SAF Write protection bit
  8730                           ;	WRTSAF = OFF, SAF not Write Protected
  8731                           ;	Application Block write protection bit
  8732                           ;	WRTAPP = OFF, Application Block not write protected
  8733  300007                     	org	3145735
  8734  300007  FF                 	db	255
  8735                           
  8736                           ;Config register CONFIG9 @ 0x300008
  8737                           ;	PFM and Data EEPROM Code Protection bit
  8738                           ;	CP = OFF, PFM and Data EEPROM code protection disabled
  8739  300008                     	org	3145736
  8740  300008  FF                 	db	255
  8741                           
  8742                           ; Padding undefined space
  8743  300009                     	org	3145737
  8744  300009  FF                 	db	255
  8745                           tosu	equ	0x4FF
  8746                           tosh	equ	0x4FE
  8747                           tosl	equ	0x4FD
  8748                           stkptr	equ	0x4FC
  8749                           pclatu	equ	0x4FB
  8750                           pclath	equ	0x4FA
  8751                           pcl	equ	0x4F9
  8752                           tblptru	equ	0x4F8
  8753                           tblptrh	equ	0x4F7
  8754                           tblptrl	equ	0x4F6
  8755                           tablat	equ	0x4F5
  8756                           prodh	equ	0x4F4
  8757                           prodl	equ	0x4F3
  8758                           indf0	equ	0x4EF
  8759                           postinc0	equ	0x4EE
  8760                           postdec0	equ	0x4ED
  8761                           preinc0	equ	0x4EC
  8762                           plusw0	equ	0x4EB
  8763                           fsr0h	equ	0x4EA
  8764                           fsr0l	equ	0x4E9
  8765                           wreg	equ	0x4E8
  8766                           indf1	equ	0x4E7
  8767                           postinc1	equ	0x4E6
  8768                           postdec1	equ	0x4E5
  8769                           preinc1	equ	0x4E4
  8770                           plusw1	equ	0x4E3
  8771                           fsr1h	equ	0x4E2
  8772                           fsr1l	equ	0x4E1
  8773                           bsr	equ	0x4E0
  8774                           indf2	equ	0x4DF
  8775                           postinc2	equ	0x4DE
  8776                           postdec2	equ	0x4DD
  8777                           preinc2	equ	0x4DC
  8778                           plusw2	equ	0x4DB
  8779                           fsr2h	equ	0x4DA
  8780                           fsr2l	equ	0x4D9
  8781                           status	equ	0x4D8

Data Sizes:
    Strings     0
    Constant    5
    Data        0
    BSS         9
    Persistent  2
    Stack       0

Auto Spaces:
    Space          Size  Autos    Used
    COMRAM           95     53      64
    BANK5           160     52      52
    BANK6           256      0       0
    BANK7           256      0       0
    BANK8           256      0       0
    BANK9           256      0       0
    BANK10          256      0       0
    BANK11          256      0       0
    BANK12          256      0       0
    BANK13          256      0       0
    BANK14          256      0       0
    BANK15          256      0       0
    BANK16          256      0       0
    BANK17          256      0       0
    BANK18          256      0       0
    BANK19          256      0       0
    BANK20          256      0       0
    BANK21          254      0       0

Pointer List with Targets:

    TMR2_SetInterruptHandler@InterruptHandler	PTR FTN()void  size(2) Largest target is 1
		 -> LOOPDELAY_TimerISR(), TMR2_DefaultInterruptHandler(), 

    TMR2_InterruptHandler	PTR FTN()void  size(2) Largest target is 1
		 -> LOOPDELAY_TimerISR(), Absolute function(), TMR2_DefaultInterruptHandler(), 

    SPI1_ExchangeBlock@block	PTR void  size(2) Largest target is 1
		 -> ledOutput(COMRAM[1]), 

    SPI1_ExchangeBlock@data	PTR unsigned char  size(2) Largest target is 1
		 -> ledOutput(COMRAM[1]), 


Critical Paths under _main in COMRAM

    _main->_map
    _map->___aldiv
    ___aldiv->___lmul
    _TMR2_Initialize->_TMR2_SetInterruptHandler
    _LED_WriteFull->_SPI1_ExchangeBlock
    _WS2812B_Write->_ws_send_byte

Critical Paths under _INTERRUPT_InterruptManager in COMRAM

    None.

Critical Paths under _main in BANK5

    None.

Critical Paths under _INTERRUPT_InterruptManager in BANK5

    None.

Critical Paths under _main in BANK6

    None.

Critical Paths under _INTERRUPT_InterruptManager in BANK6

    None.

Critical Paths under _main in BANK7

    None.

Critical Paths under _INTERRUPT_InterruptManager in BANK7

    None.

Critical Paths under _main in BANK8

    None.

Critical Paths under _INTERRUPT_InterruptManager in BANK8

    None.

Critical Paths under _main in BANK9

    None.

Critical Paths under _INTERRUPT_InterruptManager in BANK9

    None.

Critical Paths under _main in BANK10

    None.

Critical Paths under _INTERRUPT_InterruptManager in BANK10

    None.

Critical Paths under _main in BANK11

    None.

Critical Paths under _INTERRUPT_InterruptManager in BANK11

    None.

Critical Paths under _main in BANK12

    None.

Critical Paths under _INTERRUPT_InterruptManager in BANK12

    None.

Critical Paths under _main in BANK13

    None.

Critical Paths under _INTERRUPT_InterruptManager in BANK13

    None.

Critical Paths under _main in BANK14

    None.

Critical Paths under _INTERRUPT_InterruptManager in BANK14

    None.

Critical Paths under _main in BANK15

    None.

Critical Paths under _INTERRUPT_InterruptManager in BANK15

    None.

Critical Paths under _main in BANK16

    None.

Critical Paths under _INTERRUPT_InterruptManager in BANK16

    None.

Critical Paths under _main in BANK17

    None.

Critical Paths under _INTERRUPT_InterruptManager in BANK17

    None.

Critical Paths under _main in BANK18

    None.

Critical Paths under _INTERRUPT_InterruptManager in BANK18

    None.

Critical Paths under _main in BANK19

    None.

Critical Paths under _INTERRUPT_InterruptManager in BANK19

    None.

Critical Paths under _main in BANK20

    None.

Critical Paths under _INTERRUPT_InterruptManager in BANK20

    None.

Critical Paths under _main in BANK21

    None.

Critical Paths under _INTERRUPT_InterruptManager in BANK21

    None.

Call Graph Tables:

 ---------------------------------------------------------------------------------
 (Depth) Function   	        Calls       Base Space   Used Autos Params    Refs
 ---------------------------------------------------------------------------------
 (0) _main                                                60    60      0   33455
                                             46 COMRAM     7     7      0
                                              0 BANK5     52    52      0
      _ADCC_DischargeSampleCapacitor
           _ADCC_GetSingleConversion
                    _DATAEE_ReadByte
                   _DATAEE_WriteByte
                      _LED_WriteFull
                     _LOOPDELAY_Init
                     _LOOPDELAY_Wait
                          _SPI1_Open
                  _SYSTEM_Initialize
           _TMR2_SetInterruptHandler
                                _map
 ---------------------------------------------------------------------------------
 (1) _map                                                 20     0     20    2496
                                             26 COMRAM    20     0     20
           _ADCC_GetSingleConversion (ARG)
                            ___aldiv
                             ___lmul
 ---------------------------------------------------------------------------------
 (2) ___lmul                                              12     4      8     370
                                              0 COMRAM    12     4      8
 ---------------------------------------------------------------------------------
 (2) ___aldiv                                             14     6      8     452
                                             12 COMRAM    14     6      8
                             ___lmul (ARG)
 ---------------------------------------------------------------------------------
 (1) _SYSTEM_Initialize                                    0     0      0     174
                    _ADCC_Initialize
               _INTERRUPT_Initialize
              _OSCILLATOR_Initialize
             _PIN_MANAGER_Initialize
                     _PMD_Initialize
                    _SPI1_Initialize
                    _TMR2_Initialize
 ---------------------------------------------------------------------------------
 (2) _TMR2_Initialize                                      0     0      0     174
           _TMR2_SetInterruptHandler
 ---------------------------------------------------------------------------------
 (1) _TMR2_SetInterruptHandler                             2     0      2     174
                                              0 COMRAM     2     0      2
 ---------------------------------------------------------------------------------
 (2) _SPI1_Initialize                                      0     0      0       0
 ---------------------------------------------------------------------------------
 (2) _PMD_Initialize                                       0     0      0       0
 ---------------------------------------------------------------------------------
 (2) _PIN_MANAGER_Initialize                               0     0      0       0
 ---------------------------------------------------------------------------------
 (2) _OSCILLATOR_Initialize                                0     0      0       0
 ---------------------------------------------------------------------------------
 (2) _INTERRUPT_Initialize                                 0     0      0       0
 ---------------------------------------------------------------------------------
 (2) _ADCC_Initialize                                      0     0      0       0
 ---------------------------------------------------------------------------------
 (1) _SPI1_Open                                            2     2      0     110
                                              0 COMRAM     2     2      0
 ---------------------------------------------------------------------------------
 (1) _LOOPDELAY_Wait                                       0     0      0       0
 ---------------------------------------------------------------------------------
 (1) _LOOPDELAY_Init                                       2     0      2      98
                                              0 COMRAM     2     0      2
 ---------------------------------------------------------------------------------
 (1) _LED_WriteFull                                       11     5      6    6993
                                              6 COMRAM    11     5      6
                 _SPI1_ExchangeBlock
                      _WS2812B_Write
 ---------------------------------------------------------------------------------
 (2) _WS2812B_Write                                        4     1      3     492
                                              1 COMRAM     4     1      3
                       _ws_send_byte
 ---------------------------------------------------------------------------------
 (3) _ws_send_byte                                         1     1      0     176
                                              0 COMRAM     1     1      0
                           _onePulse
                          _zeroPulse
 ---------------------------------------------------------------------------------
 (4) _zeroPulse                                            0     0      0       0
 ---------------------------------------------------------------------------------
 (4) _onePulse                                             0     0      0       0
 ---------------------------------------------------------------------------------
 (2) _SPI1_ExchangeBlock                                   6     2      4     242
                                              0 COMRAM     6     2      4
 ---------------------------------------------------------------------------------
 (1) _DATAEE_WriteByte                                     4     1      3   13465
                                              0 COMRAM     4     1      3
 ---------------------------------------------------------------------------------
 (1) _DATAEE_ReadByte                                      2     0      2    2020
                                              0 COMRAM     2     0      2
 ---------------------------------------------------------------------------------
 (1) _ADCC_GetSingleConversion                             5     3      2      22
                                              0 COMRAM     5     3      2
 ---------------------------------------------------------------------------------
 (1) _ADCC_DischargeSampleCapacitor                        0     0      0       0
 ---------------------------------------------------------------------------------
 Estimated maximum stack depth 4
 ---------------------------------------------------------------------------------
 (Depth) Function   	        Calls       Base Space   Used Autos Params    Refs
 ---------------------------------------------------------------------------------
 (5) _INTERRUPT_InterruptManager                           0     0      0       0
                           _TMR2_ISR
 ---------------------------------------------------------------------------------
 (6) _TMR2_ISR                                             0     0      0       0
                      _TMR2_CallBack
 ---------------------------------------------------------------------------------
 (7) _TMR2_CallBack                                        0     0      0       0
                   Absolute function *
                 _LOOPDELAY_TimerISR *
       _TMR2_DefaultInterruptHandler *
 ---------------------------------------------------------------------------------
 (8) _TMR2_DefaultInterruptHandler                         0     0      0       0
 ---------------------------------------------------------------------------------
 (8) _LOOPDELAY_TimerISR                                   0     0      0       0
 ---------------------------------------------------------------------------------
 (8) Absolute function(Fake)                               0     0      0       0
 ---------------------------------------------------------------------------------
 Estimated maximum stack depth 8
 ---------------------------------------------------------------------------------

 Call Graph Graphs:

 _main (ROOT)
   _ADCC_DischargeSampleCapacitor
   _ADCC_GetSingleConversion
   _DATAEE_ReadByte
   _DATAEE_WriteByte
   _LED_WriteFull
     _SPI1_ExchangeBlock
     _WS2812B_Write
       _ws_send_byte
         _onePulse
         _zeroPulse
   _LOOPDELAY_Init
   _LOOPDELAY_Wait
   _SPI1_Open
   _SYSTEM_Initialize
     _ADCC_Initialize
     _INTERRUPT_Initialize
     _OSCILLATOR_Initialize
     _PIN_MANAGER_Initialize
     _PMD_Initialize
     _SPI1_Initialize
     _TMR2_Initialize
       _TMR2_SetInterruptHandler
   _TMR2_SetInterruptHandler
   _map
     _ADCC_GetSingleConversion (ARG)
     ___aldiv (ARG)
       ___lmul (ARG)
     ___lmul (ARG)

 _INTERRUPT_InterruptManager (ROOT)
   _TMR2_ISR
     _TMR2_CallBack
       Absolute function(Fake) *
       _LOOPDELAY_TimerISR *
       _TMR2_DefaultInterruptHandler *

 Address spaces:
Name               Size   Autos  Total    Cost      Usage
BIGRAMl            FFF      0       0      40        0.0%
EEDATA             400      0       0       0        0.0%
BITBANK20          100      0       0      35        0.0%
BANK20             100      0       0      36        0.0%
BITBANK19          100      0       0      33        0.0%
BANK19             100      0       0      34        0.0%
BITBANK18          100      0       0      31        0.0%
BANK18             100      0       0      32        0.0%
BITBANK17          100      0       0      29        0.0%
BANK17             100      0       0      30        0.0%
BITBANK16          100      0       0      26        0.0%
BANK16             100      0       0      27        0.0%
BITBANK15          100      0       0      24        0.0%
BANK15             100      0       0      25        0.0%
BITBANK14          100      0       0      22        0.0%
BANK14             100      0       0      23        0.0%
BITBANK13          100      0       0      20        0.0%
BANK13             100      0       0      21        0.0%
BITBANK12          100      0       0      18        0.0%
BANK12             100      0       0      19        0.0%
BITBANK11          100      0       0      16        0.0%
BANK11             100      0       0      17        0.0%
BITBANK10          100      0       0      14        0.0%
BANK10             100      0       0      15        0.0%
BITBANK9           100      0       0      12        0.0%
BANK9              100      0       0      13        0.0%
BITBANK8           100      0       0      10        0.0%
BANK8              100      0       0      11        0.0%
BITBANK7           100      0       0       8        0.0%
BANK7              100      0       0       9        0.0%
BITBANK6           100      0       0       6        0.0%
BANK6              100      0       0       7        0.0%
BIGRAMh             FE      0       0      39        0.0%
BITBANK21           FE      0       0      37        0.0%
BANK21              FE      0       0      38        0.0%
BITBANK5            A0      0       0       4        0.0%
BANK5               A0     34      34       5       32.5%
BITCOMRAM           5F      0       0       0        0.0%
COMRAM              5F     35      40       1       67.4%
BITSFR_5             0      0       0     200        0.0%
SFR_5                0      0       0     200        0.0%
BITSFR_4             0      0       0     200        0.0%
SFR_4                0      0       0     200        0.0%
BITSFR_3             0      0       0     200        0.0%
SFR_3                0      0       0     200        0.0%
BITSFR_2             0      0       0     200        0.0%
SFR_2                0      0       0     200        0.0%
BITSFR_1             0      0       0     200        0.0%
SFR_1                0      0       0     200        0.0%
BITSFR               0      0       0     200        0.0%
SFR                  0      0       0     200        0.0%
STACK                0      0       0       2        0.0%
NULL                 0      0       0       0        0.0%
ABS                  0      0      74      28        0.0%
DATA                 0      0      74       3        0.0%
CODE                 0      0       0       0        0.0%


Microchip Technology PIC18 Macro Assembler V2.31 build 20201012212115 
Symbol Table                                                                                   Thu Jul 21 23:50:04 2022

        __end_of_TMR2_SetInterruptHandler 3FC4                        _SPI1_ExchangeBlock 3CBE  
                                      l53 3CBC                                       l150 3DFC  
                                     l135 3D78                                       l312 3D1C  
                                     l402 3FB8                                       l147 3DDC  
                                     l308 3CE0                                       l260 3F68  
                                     l159 3FD4                                       l263 3F4C  
                                     l416 3FE0                                       l600 2266  
                                     l257 3ED6                                       l290 3F9E  
                                     l506 3FC2                                       l603 22F6  
                                     l460 3E2A                                       l612 2486  
                                     l701 3BEC                                       l294 3A04  
                                     l630 2894                                       l606 2386  
                                     l615 24F6                                       l704 3F12  
                                     l632 2918                                       l641 2D9C  
                                     l625 292C                                       l609 2416  
                                     l642 2BFC                                       l626 278C  
                                     l618 2566                                       l707 3EF4  
                                     l396 3DAC                                       l660 30F2  
                                     l644 2C80                                       l628 2810  
                                     l580 1D86                                       l556 1714  
                                     l557 1770                                       l398 3DBA  
                                     l726 3AD8                                       l662 3176  
                                     l646 2D04                                       l558 17CC  
                                     l399 3DCA                                       l735 3B72  
                                     l559 1828                                       l752 3FCC  
                                     l680 368A                                       l664 31FA  
                                     l648 2D88                                       l673 369E  
                                     l657 320E                                       l834 392A  
                                     l674 34FE                                       l658 306E  
                                     l587 1F04                                       l579 1D12  
                                     l676 3582                                       l749 3EB8  
                                     l597 21B6                                       l766 3C46  
                                     l678 3606                                       l767 3C56  
                                     l698 3F84                                       _PR2 00031D  
                     ?_SPI1_ExchangeBlock 0501                            WS2812B_Write@B 0503  
                          WS2812B_Write@G 0502                            WS2812B_Write@R 0505  
                          WS2812B_Write@W 0504                                       _map 3B74  
                 __size_of_PMD_Initialize 001C                           _TMR2_Initialize 3DFE  
                                     tosl 0004FD                                       wreg 0004E8  
                 SPI1_ExchangeBlock@block 0501                    __size_of_LED_WriteFull 009A  
                             main@blueAdj 0575                                      l3000 3CA8  
                                    l3002 3D1E                                      l3010 3DFE  
                                    l3100 3DEA                                      l3004 3FDE  
                                    l3020 3F86                                      l3012 3E14  
                                    l3030 3CEE                                      l3006 3F32  
                                    l3022 3F9C                                      l3014 3E16  
                                    l3110 3EC2                                      l3104 3FCE  
                                    l3032 3CFE                                      l3024 3CBE  
                                    l3120 392E                                      l3008 3F4E  
                                    l3016 3E18                                      l3112 3EC6  
                                    l3040 3BFE                                      l4000 31C4  
                                    l3200 1614                                      l3026 3CCA  
                                    l3034 3D02                                      l3130 3A02  
                                    l3122 393E                                      l3018 3E24  
                                    l3114 3ECA                                      l3106 3EBA  
                                    l3050 3824                                      l3042 3C0C  
                                    l4010 3230                                      l4002 31F6  
                                    l3210 162C                                      l3202 1620  
                                    l3140 3D8C                                      l3028 3CD0  
                                    l3036 3F6C                                      l3124 39A4  
                                    l3116 3ECE                                      l3108 3EBE  
                                    l3060 3864                                      l3052 3832  
                                    l3044 3C1C                                      l4100 3596  
                                    l4020 3282                                      l4012 324E  
                                    l4004 320A                                      l3300 18D4  
                                    l3220 1640                                      l3212 1630  
                                    l3204 1620                                      l3150 3DA6  
                                    l3142 3D92                                      l3134 3D7A  
                                    l3126 39A8                                      l3118 3ED2  
                                    l3070 38A2                                      l3062 3868  
                                    l3054 3842                                      l3046 3C26  
                                    l3038 3BEE                                      l4110 3654  
                                    l4102 35D0                                      l4030 32CC  
                                    l4022 3294                                      l4014 3254  
                                    l4006 321C                                      l3310 190E  
                                    l3302 18D6                                      l3230 1654  
                                    l3222 1644                                      l3214 1634  
                                    l3206 1626                                      l3160 3FB4  
                                    l3152 3DAA                                      l3144 3D98  
                                    l3136 3D82                                      l3128 39CC  
                                    l3080 38EA                                      l3072 38B0  
                                    l3064 3878                                      l3056 3846  
                                    l3048 3820                                      l4120 36C0  
                                    l4112 3686                                      l4104 3602  
                                    l4040 331E                                      l4024 3298  
                                    l4032 32DC                                      l4016 3264  
                                    l4008 322C                                      l3400 1C8A  
                                    l3320 1950                                      l3312 192A  
                                    l3304 18E2                                      l3240 1668  
                                    l3232 1658                                      l3224 1648  
                                    l3216 1638                                      l3208 1628  
                                    l3154 3DC4                                      l3146 3DA0  
                                    l3138 3D88                                      l3170 3E9A  
                                    l3082 38F4                                      l3074 38BA  
                                    l3066 388E                                      l3058 3854  
                                    l4130 3704                                      l4122 36C4  
                                    l4114 369A                                      l4106 3616  
                                    l4050 338A                                      l4042 3324  
                                    l4034 32EA                                      l4026 32B6  
                                    l4018 3274                                      l3410 1CCE  
                                    l3402 1C9A                                      l3330 19A2  
                                    l3322 1964                                      l3314 192C  
                                    l3306 18F6                                      l3250 1684  
                                    l3242 166C                                      l3234 165C  
                                    l3226 164C                                      l3218 163C  
         ??_ADCC_DischargeSampleCapacitor 0501                                      l3092 3DCE  
                                    l3156 3FA0                                      l3148 3DA2  
                                    l3180 3AFE                                      l3164 3FC4  
                                    l3172 3E9A                                      l3076 38D8  
                                    l3068 3896                                      l3084 38FA  
                                    l4132 3708                                      l4140 374C  
                                    l4124 36D4                                      l4116 36AC  
                                    l4108 361A                                      l4060 33E2  
                                    l4052 338E                                      l4044 3334  
                                    l4036 32FC                                      l4028 32BC  
                                    l3500 1FB6                                      l3420 1D24  
                                    l3412 1CDE                                      l3404 1CAA  
                                    l3340 19CC                                      l3324 1980  
                                    l3316 1938                                      l3308 18FA  
                                    l3332 19A6                                      l3260 16A8  
                                    l3252 168C                                      l3244 1670  
                                    l3236 1660                                      l3228 1650  
                                    l3094 3DD4                                      l3158 3FAA  
                                    l3190 3B54                                      l3182 3B0A  
                                    l3174 3EB0                                      l3086 390A  
                                    l3078 38E8                                      l3166 3B74  
                                    l4142 375A                                      l4134 3726  
                                    l4118 36BC                                      l4126 36E4  
                                    l4070 3418                                      l4062 33E6  
                                    l4054 33B2                                      l4038 3300  
                                    l4046 3344                                      l3510 1FFA  
                                    l3502 1FC6                                      l3430 1D96  
                                    l3422 1D34                                      l3414 1CEE  
                                    l3406 1CAE                                      l3350 1A94  
                                    l3342 19D4                                      l3334 19B2  
                                    l3326 1982                                      l3318 194C  
                                    l3270 16B4                                      l3262 16AC  
                                    l3254 1694                                      l3246 1674  
                                    l3238 1664                                      l3096 3DD8  
                                    l3192 3B64                                      l3184 3B24  
                                    l3176 3ADC                                      l3088 391A  
                                    l4144 376C                                      l4136 372C  
                                    l4128 36F2                                      l4080 346C  
                                    l4072 342C                                      l4064 33F4  
                                    l4056 33C0                                      l4048 3376  
                                    l3600 22AA                                      l3520 204A  
                                    l3512 200A                                      l3504 1FD6  
                                    l3440 1DF6                                      l3432 1DAA  
                                    l3424 1D44                                      l3416 1CFE  
                                    l3408 1CBC                                      l3360 1B5C  
                                    l3352 1A98                                      l3344 19D8  
                                    l3336 19BC                                      l3328 198E  
                                    l3280 17E8                                      l3272 16B8  
                                    l3264 16AE                                      l3256 169C  
                                    l3248 167C                                      l3098 3DDA  
                                    l3186 3B2E                                      l3178 3AEC  
                                    l4146 3770                                      l4138 373C  
                                    l4090 350E                                      l4074 343C  
                                    l4066 3406                                      l4082 347C  
                                    l4058 33D2                                      l3602 22BA  
                                    l3530 208E                                      l3522 205A  
                                    l3514 201A                                      l3506 1FDA  
                                    l3450 1E46                                      l3442 1DFA  
                                    l3434 1DAE                                      l3426 1D54  
                                    l3418 1D0E                                      l3370 1BB2  
                                    l3362 1B7A                                      l3354 1AF4  
                                    l3346 1A34                                      l3338 19C4  
                                    l3290 1882                                      l3282 1844  
                                    l3274 16D4                                      l3266 16B0  
                                    l3258 16A4                                      l3194 1608  
                                    l3188 3B44                                      l4148 378E  
                                    l4092 3512                                      l4084 348E  
                                    l4076 344C                                      l4068 3416  
                                    l3700 258A                                      l3620 233A  
                                    l3612 2304                                      l3604 22C8  
                                    l3540 20DE                                      l3532 209E  
                                    l3524 206A                                      l3508 1FEA  
                                    l3516 202A                                      l3460 1EB6  
                                    l3452 1E68                                      l3444 1E1C  
                                    l3436 1DD0                                      l3428 1D6E  
                                    l3380 1BF4                                      l3372 1BC2  
                                    l3364 1B82                                      l4156 3798  
                                    l3356 1AF8                                      l3348 1A38  
                                    l3292 188E                                      l3284 1854  
                                    l3276 1730                                      l3268 16B2  
                                    l3196 160C                                      l4094 354C  
                                    l4086 34C8                                      l4078 345C  
                                    l3710 25F4                                      l3702 259A  
                                    l3614 2306                                      l3622 234A  
                                    l3606 22E2                                      l3550 2122  
                                    l3542 20EE                                      l3534 20AE  
                                    l3526 206E                                      l3518 203C  
                                    l3470 1EFC                                      l3462 1EC8  
                                    l3454 1E7A                                      l3446 1E2E  
                                    l3438 1DE2                                      l3390 1C46  
                                    l3382 1C06                                      l3374 1BD2  
                                    l3366 1B90                                      l3358 1B54  
                                    l3294 18A0                                      l3286 1864  
                                    l3278 178C                                      l3198 1612  
                                    l4096 357E                                      l4088 34FA  
                                    l3800 29D4                                      l3720 264E  
                                    l3712 2606                                      l3704 25A8  
                                    l3640 23CA                                      l3632 2394  
                                    l3624 2358                                      l3616 2324  
                                    l3560 216A                                      l3552 2132  
                                    l3544 20FE                                      l3528 207E  
                                    l3536 20BE                                      l3480 1F22  
                                    l3472 1EFE                                      l3464 1ED8  
                                    l3456 1E8E                                      l3448 1E42  
                                    l3384 1C16                                      l3392 1C4A  
                                    l3376 1BE2                                      l3368 1BA2  
                                    l3296 18A4                                      l3288 1880  
                                    l4194 37AE                                      l4098 3592  
                                    l3810 2A1A                                      l3802 29DA  
                                    l3730 2694                                      l3722 2660  
                                    l3714 261A                                      l3706 25C2  
                                    l3634 2396                                      l3642 23DA  
                                    l3626 2372                                      l3618 232A  
                                    l3570 21A8                                      l3562 2178  
                                    l3554 2142                                      l3546 2102  
                                    l3538 20D0                                      l3490 1F66  
                                    l3482 1F32                                      l3474 1F00  
                                    l3466 1EE8                                      l3458 1E92  
                                    l3394 1C58                                      l3386 1C26  
                                    l3378 1BE6                                      l3298 18B8  
                                    l2940 3F06                                      l3900 2DE2  
                                    l3820 2A46                                      l3812 2A1E  
                                    l3804 29EA                                      l3740 26DA  
                                    l3732 26A4                                      l3724 2670  
                                    l3716 261E                                      l3708 25D6  
                                    l3652 2424                                      l3660 244A  
                                    l3644 23E8                                      l3636 23B4  
                                    l3580 21FA                                      l3572 21C4  
                                    l3564 2182                                      l3548 2112  
                                    l3556 2152                                      l3492 1F76  
                                    l3484 1F42                                      l3476 1F02  
                                    l3468 1EF8                                      l3396 1C6A  
                                    l3388 1C36                                      l2942 3ED8  
                                    l2950 3A16                                      l3910 2E26  
                                    l3902 2DF2                                      l3830 2AB0  
                                    l3822 2A64                                      l3814 2A3C  
                                    l3806 29FA                                      l3750 2756  
                                    l3742 26EA                                      l3734 26A6  
                                    l3726 2674                                      l3718 2640  
                                    l3670 249A                                      l3662 2458  
                                    l3654 2426                                      l3646 2402  
                                    l3638 23BA                                      l3590 2252  
                                    l3574 21C6                                      l3582 220A  
                                    l3566 2190                                      l3558 2160  
                                    l3494 1F86                                      l3486 1F46  
                                    l3478 1F14                                      l3398 1C7A  
                                    ?_map 051B                                      l2944 3EE8  
                                    l2960 3A3C                                      l2952 3A1E  
                                    l3920 2E78                                      l3912 2E44  
                                    l3904 2E02                                      l3840 2AF2  
                                    l3832 2ABE                                      l3824 2A76  
                                    l3808 2A08                                      l3760 280C  
                                    l3752 2788                                      l3744 26FA  
                                    l3736 26BA                                      l3728 2682  
                                    l3680 2504                                      l3672 24AA  
                                    l3664 2472                                      l3656 242A  
                                    l3592 2274                                      l3584 2218  
                                    l3576 21E4                                      l3568 219A  
                                    l3488 1F56                                      l3496 1F96  
                                    l2938 3EF6                                      l2970 3A6C  
                                    l2962 3A4A                                      l2954 3A22  
                                    l2946 3FBA                                      l3922 2E8A  
                                    l3914 2E4A                                      l3906 2E10  
                                    l3850 2B3A                                      l3842 2B04  
                                    l3834 2AD0                                      l3826 2A8A  
                                    l3770 28A4                                      l3762 2820  
                                    l3754 279C                                      l3738 26CA  
                                    l3746 270A                                      l3690 2538  
                                    l3682 2506                                      l3666 2494  
                                    l3674 24BA                                      l3658 243A  
                                    l3594 2276                                      l3586 2232  
                                    l3578 21EA                                      l3498 1FA8  
                                    l2980 3A98                                      l2972 3A70  
                                    l2964 3A52                                      l2956 3A30  
                                    l2948 3A08                                      l3940 2EF8  
                                    l3932 2EB0                                      l3924 2E8E  
                                    l3916 2E5A                                      l3908 2E22  
                                    l3860 2B8C                                      l3852 2B4A  
                                    l3844 2B14                                      l3836 2AE0  
                                    l3828 2A8E                                      l3780 293A  
                                    l3772 28A8                                      l3764 2824  
                                    l3756 27A0                                      l3748 271C  
                                    l3692 2552                                      l3684 250A  
                                    l3676 24C8                                      l3668 2496  
                                    l3596 2294                                      l3588 2242  
                                    l2990 3ABE                                      l2982 3AA0  
                                    l2974 3A7E                                      l2966 3A56  
                                    l2958 3A38                                      l3950 2F4E  
                                    l3942 2F1A                                      l3934 2ECE  
                                    l3918 2E6A                                      l3870 2C4A  
                                    l3862 2BC6                                      l3854 2B5A  
                                    l3846 2B16                                      l3838 2AE4  
                                    l3790 2982                                      l3782 294A  
                                    l3774 28E2                                      l3766 285E  
                                    l3758 27DA                                      l3694 2574  
                                    l3686 251A                                      l3678 24E2  
                                    l3598 229A                                      l2992 3ACC  
                                    l2984 3AA4                                      l2976 3A86  
                                    l2968 3A64                                      l3960 2F94  
                                    l3952 2F5C                                      l3944 2F28  
                                    l3936 2EE0                                      l3880 2D00  
                                    l3872 2C7C                                      l3864 2BF8  
                                    l3856 2B6A                                      l3848 2B2A  
                                    l3784 294E                                      l3792 2992  
                                    l3776 2914                                      l3768 2890  
                                    l3696 2576                                      l3688 252A  
                                    l2994 3AD4                                      l2986 3AB2  
                                    l2978 3A8A                                      l3962 2FA4  
                                    l3954 2F6E                                      l3970 2FE4  
                                    l3946 2F3A                                      l3938 2EF4  
                                    l3890 2D98                                      l3882 2D14  
                                    l3874 2C90                                      l3866 2C0C  
                                    l3858 2B7A                                      l3794 29A0  
                                    l3786 296C                                      l3778 2928  
                                    l3698 257A                                      l2988 3ABA  
                                    l2996 3C58                                      l3980 307E  
                                    l3972 2FEE                                      l3964 2FB4  
                                    l3956 2F7E                                      l3948 2F4A  
                                    l3892 2DAA                                      l3884 2D18  
                                    l3876 2C94                                      l3868 2C10  
                                    l3796 29B2                                      l3788 2972  
                                    l2998 3C9E                                      l3990 3106  
                                    l3982 3082                                      l3974 2FFE  
                                    l3966 2FC4                                      l3958 2F80  
                                    l3894 2DBA                                      l3886 2D52  
                                    l3878 2CCE                                      l3798 29B6  
                                    l3992 3140                                      l3984 30BC  
                                    l3976 3038                                      l3968 2FD4  
                                    l3896 2DBE                                      l3888 2D84  
                                    l3994 3172                                      l3986 30EE  
                                    l3978 306A                                      l3898 2DDC  
                                    l3996 3186                                      l3988 3102  
                                    l3998 318A                                      u3000 190E  
                                    u3001 190A                                      u3010 192A  
                                    u3011 1926                                      u3100 1BD2  
                                    u3020 194C                                      u3101 1BCE  
                                    u3021 1948                                      _LATA 0004BE  
                                    u3110 1BE2                                      u3030 1964  
                                    _LATB 0004BF                                      u3111 1BDE  
                                    u3031 1960                                      _LATC 0004C0  
                                    u4000 2660                                      u3200 1C7A  
                                    u3120 1BF4                                      u3040 1980  
                                    u4001 265C                                      u3201 1C76  
                                    u3121 1BF0                                      u3041 197C  
                                    u4010 2670                                      u3210 1C8A  
                                    u3130 1C06                                      u3050 19A2  
                                    u4011 266C                                      u3211 1C86  
                                    u3131 1C02                                      u3051 199E  
                                    u4100 280C                                      u4020 2682  
                                    u3300 1D24                                      u3220 1C9A  
                                    u3140 1C16                                      u3060 1B90  
                                    u4101 2808                                      u4021 267E  
                                    u3301 1D20                                      u3221 1C96  
                                    u3141 1C12                                      u3061 1B8C  
                                    u4110 2820                                      u4030 2694  
                                    u3310 1D34                                      u3230 1CAA  
                                    u3150 1C26                                      u3070 1BA2  
                                    u4111 281C                                      u4031 2690  
                                    u3311 1D30                                      u3231 1CA6  
                                    u3151 1C22                                      u3071 1B9E  
                                    u5000 3602                                      u4200 29A0  
                                    u4120 285E                                      u4040 26A4  
                                    u3400 1DF6                                      u3320 1D44  
                                    u3240 1CBC                                      u3160 1C36  
                                    u3080 1BB2                                      u5001 35FE  
                                    u4201 299C                                      u4121 285A  
                                    u4041 26A0                                      u3401 1DF2  
                                    u3321 1D40                                      u3241 1CB8  
                                    u3161 1C32                                      u3081 1BAE  
                                    u5010 3616                                      u4210 29B2  
                                    u4130 2890                                      u4050 271C  
                                    u3410 1E0C                                      u3330 1D54  
                                    u3250 1CCE                                      u3170 1C46  
                                    u3090 1BC2                                      _T2PR 00031D  
                                    u5011 3612                                      u4211 29AE  
                                    u4131 288C                                      u4051 2718  
                                    u3411 1E04                                      u3331 1D50  
                                    u3251 1CCA                                      u3171 1C42  
                                    u3091 1BBE                                      u2700 3AB2  
                                    u5100 376C                                      u5020 3654  
                                    u4300 2AE0                                      u4220 2A08  
                                    u4140 28A4                                      u4060 2756  
                                    u3340 1D6E                                      u3260 1CDE  
                                    u3180 1C58                                      u2701 3AAE  
                                    u5101 3768                                      u5021 3650  
                                    u4301 2ADC                                      u4221 2A04  
                                    u4141 28A0                                      u4061 2752  
                                    u3341 1D6A                                      u3261 1CDA  
                                    u3181 1C54                                      u2710 3ACC  
                                    u5030 3686                                      u4310 2AF2  
                                    u4230 2A1A                                      u4150 28E2  
                                    u4070 2788                                      u3510 1EC8  
                                    u3430 1E2E                                      u3350 1D96  
                                    u3270 1CEE                                      u3190 1C6A  
                                    u2711 3AC8                                      u5031 3682  
                                    u4311 2AEE                                      u4231 2A16  
                                    u4151 28DE                                      u4071 2784  
                                    u3511 1EC4                                      u3431 1E2A  
                                    u3351 1D92                                      u3271 1CEA  
                                    u3191 1C66                                      u2720 3CEE  
                                    u2640 3A16                                      u2800 38D8  
                                    u5040 369A                                      u4400 2C90  
                                    u4320 2B04                                      u4240 2A76  
                                    u4160 2914                                      u4080 279C  
                                    u3600 1FC6                                      u3520 1ED8  
                                    u3440 1E42                                      u3360 1DAA  
                                    u3280 1CFE                                      u2721 3CEA  
                                    u2641 3A12                                      u2801 38D4  
                                    u5041 3696                                      u4401 2C8C  
                                    u4321 2B00                                      u4241 2A72  
                                    u4161 2910                                      u4081 2798  
                                    u3601 1FC2                                      u3521 1ED4  
                                    u3441 1E3E                                      u3361 1DA6  
                                    u3281 1CFA                                      u2730 3D1C  
                                    u2650 3A30                                      u2810 390A  
                                    u5050 36AC                                      u4410 2CCE  
                                    u4330 2B14                                      u4250 2A8A  
                                    u4170 2928                                      u4090 27DA  
                                    u3610 203C                                      u3530 1EE8  
                                    u3450 1E58                                      u3370 1DC0  
                                    u3290 1D0E                                      u2731 3D18  
                                    u2651 3A2C                                      u2811 3906  
                                    u5051 36A8                                      u4411 2CCA  
                                    u4331 2B10                                      u4251 2A86  
                                    u4171 2924                                      u4091 27D6  
                                    u3611 2038                                      u3531 1EE4  
                                    u3451 1E50                                      u3371 1DB8  
                                    u3291 1D0A                                      u2820 3DEA  
                                    u2660 3A4A                                      u2740 3C0C  
                                    u5060 36BC                                      u4500 2E22  
                                    u4420 2D00                                      u4340 2B8C  
                                    u4260 2AA0                                      u4180 293A  
                                    u3700 21A8                                      u3620 204A  
                                    u3540 1EF8                                      u3508 1EA6  
                                    u3428 1E0E                                      u2900 1730  
                                    u2821 3DE6                                      u2661 3A46  
                                    u2741 3C08                                      u5061 36B8  
                                    u4501 2E1E                                      u4421 2CFC  
                                    u4341 2B88                                      u4261 2A98  
                                    u4181 2936                                      u3701 21A4  
                                    u3621 2046                                      u3541 1EF4  
                                    u5117 1884                                      u2901 172C  
                                    u2670 3A64                                      u2830 393E  
                                    u2750 3C46                                      u5070 36F2  
                                    u4510 2E78                                      u4430 2D14  
                                    u4350 2BC6                                      u4190 294A  
                                    u3710 21C4                                      u3630 205A  
                                    u3550 1F14                                      u3470 1E7A  
                                    u3390 1DE2                                      u2910 178C  
                                    u2671 3A60                                      u2831 393A  
                                    u2751 3C42                                      u5071 36EE  
                                    u4511 2E74                                      u4431 2D10  
                                    u4351 2BC2                                      u4191 2946  
                                    u3711 21C0                                      u3631 2056  
                                    u3551 1F10                                      u3471 1E76  
                                    u3391 1DDE                                      u5127 18D8  
                                    u2911 1788                                      u2840 3DBA  
                                    u2680 3A7E                                      u2760 3832  
                                    u5080 3704                                      u4600 2F5C  
                                    u4520 2E8A                                      u4440 2D52  
                                    u4360 2BF8                                      u4280 2ABE  
                                    u3800 2394                                      u3720 2218  
                                    u3640 20D0                                      u3560 1F22  
                                    u3480 1E8E                                      u2920 17E8  
                                    u2841 3DB6                                      u2681 3A7A  
                                    u2761 382E                                      u5081 3700  
                                    u4601 2F58                                      u4521 2E86  
                                    u4441 2D4E                                      u4361 2BF4  
                                    u4281 2ABA                                      u3801 2390  
                                    u3721 2214                                      u3641 20CC  
                                    u3561 1F1E                                      u3481 1E8A  
                                    u5137 192E                                      u2921 17E4  
                                    u2690 3A98                                      u2770 3854  
                                    u5090 375A                                      u4610 2F6E  
                                    u4530 2EE0                                      u4450 2D84  
                                    u4370 2C0C                                      u4290 2AD0  
                                    u3810 23E8                                      u3730 2232  
                                    u3650 20DE                                      u3570 1F32  
                                    u3490 1EA4                                      u2930 1844  
                                    u2691 3A94                                      u2771 3850  
                                    u5091 3756                                      u4611 2F6A  
                                    u4531 2EDC                                      u4451 2D80  
                                    u4371 2C08                                      u4291 2ACC  
                                    u3811 23E4                                      u3731 222E  
                                    u3651 20DA                                      u3571 1F2E  
                                    u3491 1E9C                                      u5147 1984  
                                    u2931 1840                                      u2860 3EB0  
                                    u2780 388E                                      u4700 3140  
                                    u4620 2F7E                                      u4540 2EF4  
                                    u4460 2D98                                      u4380 2C4A  
                                    u3900 2538                                      u3820 2402  
                                    u3740 2274                                      u3660 20EE  
                                    u3580 1FA8                                      u3468 1E5A  
                                    u3388 1DC2                                      u2940 1864  
                                    _PMD0 000063                                      u2861 3EAC  
                                    u2781 388A                                      u4701 313C  
                                    u4621 2F7A                                      u4541 2EF0  
                                    u4461 2D94                                      u4381 2C46  
                                    u3901 2534                                      u3821 23FE  
                                    u3741 2270                                      u3661 20EA  
                                    u3581 1FA4                                      u5157 1B7C  
                                    u2941 1860                                      _PMD1 000064  
                                    u2870 3B24                                      u2790 38B0  
                                    u4710 3172                                      u4630 2FFE  
                                    u4550 2F0A                                      u4470 2DAA  
                                    u4390 2C7C                                      u4278 2AA2  
                                    u3910 2552                                      u3830 2424  
                                    u3750 22C8                                      u3670 2160  
                                    u3590 1FB6                                      u2950 1880  
                                    _PMD2 000065                                      u2855 3DC2  
                                    u2871 3B20                                      u2791 38AC  
                                    u4711 316E                                      u4631 2FFA  
                                    u4551 2F02                                      u4471 2DA6  
                                    u4391 2C78                                      u3911 254E  
                                    u3831 2420                                      u3751 22C4  
                                    u3671 215C                                      u3591 1FB2  
                                    u2951 187C                                      _PMD3 000066  
                                    u2856 3DC4                                      u2880 3B72  
                                    u4800 32EA                                      u4720 3186  
                                    u4640 3038                                      u4480 2DBA  
                                    u3920 2574                                      u3840 2458  
                                    u3760 22E2                                      u3680 2178  
                                    u2960 18A0                                      _PMD4 000067  
                                    u2881 3B6E                                      u4801 32E6  
                                    u4721 3182                                      u4641 3034  
                                    u4481 2DB6                                      u3921 2570  
                                    u3841 2454                                      u3761 22DE  
                                    u3681 2174                                      u2961 189C  
                                    _PMD5 000068                                      u4810 32FC  
                                    u4730 31C4                                      u4650 306A  
                                    u4570 2F28                                      u4490 2E10  
                                    u3930 25A8                                      u3850 2472  
                                    u3770 2304                                      u3690 2190  
                                    u2970 18B8                                      u2890 16D4  
                                    u4811 32F8                                      u4731 31C0  
                                    u4651 3066                                      u4571 2F24  
                                    u4491 2E0C                                      u3931 25A4  
                                    u3851 246E                                      u3771 2300  
                                    u3691 218C                                      u2971 18B4  
                                    u2891 16D0                                      u4900 3406  
                                    u4820 3376                                      u4740 31F6  
                                    u4660 307E                                      u4580 2F3A  
                                    u3940 25C2                                      u3860 2494  
                                    u3780 2358                                      u2980 18D4  
                                    u4901 3402                                      u4821 3372  
                                    u4741 31F2                                      u4661 307A  
                                    u4581 2F36                                      u3941 25BE  
                                    u3861 2490                                      u3781 2354  
                                    u2981 18D0                                      u4910 3416  
                                    u4830 338A                                      u4750 320A  
                                    u4670 30BC                                      u4590 2F4A  
                                    u3950 2606                                      u3870 24C8  
                                    u3790 2372                                      u2990 18F6  
                                    u4911 3412                                      u4831 3386  
                                    u4751 3206                                      u4671 30B8  
                                    u4591 2F46                                      u3951 2602  
                                    u3871 24C4                                      u3791 236E  
                                    u2991 18F2                                      u4920 348E  
                                    u4840 33A0                                      u4760 321C  
                                    u4680 30EE                                      u4568 2F0C  
                                    u3960 261A                                      u3880 24E2  
                                    u4921 348A                                      u4841 3398  
                                    u4761 3218                                      u4681 30EA  
                                    u3961 2616                                      u3881 24DE  
                                    u4930 34C8                                      u4770 322C  
                                    u4690 3102                                      u3970 2630  
                                    u3890 2504                                      u4931 34C4  
                                    u4771 3228                                      u4691 30FE  
                                    u3971 2628                                      u3891 2500  
                                    u4940 34FA                                      u4860 33C0  
                                    u4780 3282                                      u4941 34F6  
                                    u4861 33BC                                      u4781 327E  
                                    u4950 350E                                      u4870 33D2  
                                    u4790 3294                                      u3990 264E  
                                    u4951 350A                                      u4871 33CE  
                                    u4791 3290                                      u3991 264A  
                                    u4960 354C                                      u4880 33E2  
                                    u4961 3548                                      u4881 33DE  
                                    u4970 357E                                      u4890 33F4  
                                    u4858 33A2                                      u4971 357A  
                                    u4891 33F0                                      u4980 3592  
                                    u3988 2632                                      u4981 358E  
                                    u4990 35D0                                      u4991 35CC  
                                    _TMR2 00031C                                      _WPUA 000401  
                                    _WPUB 000409                                      _WPUC 000411  
                                    _main 1608                                      fsr2h 0004DA  
                                    indf2 0004DF                                      map@x 051B  
                                    fsr2l 0004D9                      ??_SPI1_ExchangeBlock 0505  
                                    prodh 0004F4                                      prodl 0004F3  
                                    start 001A                     main@timeout5sPressed1 0565  
                   main@timeout5sPressed2 0567                     main@timeout5sPressed3 0569  
                   main@timeout5sPressed4 056B                              ___param_bank 000000  
                                   ??_map 052F                 __size_of_DATAEE_WriteByte 0052  
                          LED_WriteFull@i 050E            __size_of_OSCILLATOR_Initialize 001C  
           __end_of_OSCILLATOR_Initialize 3F6A                     __size_of_ws_send_byte 00D4  
                         __end_of___aldiv 392C                                     _ADCAP 0003F0  
                                   _ADACT 0003F9                                     ?_main 0501  
                                   _ADCLK 0003FA                                     _ADCNT 0003E6  
                                   _ADPCH 0003EC                                     _ADREF 0003F8  
                                   _ADRPT 0003E7                              main@greenAdj 0574  
        SPI1_Open@spi1UniqueConfiguration 0502                                     _T2CON 00031E  
                                   _T2HLT 00031F                                     _T2TMR 00031C  
                                   _T2RST 000321                                     i2l503 3E56  
                                   i2l423 3E78                                     i2l509 3FE2  
                                   i2l743 3F30                                     i2l499 3FDC  
                                   _OSCEN 0000B3                              main@redMode1 058B  
                            main@redMode2 057B                              main@redMode3 057E  
                            main@redMode4 0581                                     _TRISA 0004C6  
                                   _TRISB 0004C7                                     _TRISC 0004C8  
             LOOPDELAY_Init@newLoopTimeMS 0501                        __size_of_SPI1_Open 00DA  
                     ___lmul@multiplicand 0505                          __end_of_TMR2_ISR 3FDE  
                         _DATAEE_ReadByte 3FA0                                     pclath 0004FA  
                                   tablat 0004F5                              main@whiteAdj 0576  
                                   status 0004D8                  __size_of_SPI1_Initialize 001A  
                         __initialization 3E7A                             _LED_WriteFull 3ADA  
                            _ws_send_byte 3A06                             main@led1Blink 0587  
                           main@led2Blink 0588                             main@led3Blink 0589  
                           main@led4Blink 058A                              __end_of_main 3820  
                 __end_of_TMR2_Initialize 3E2C               ?_INTERRUPT_InterruptManager 0501  
                _TMR2_SetInterruptHandler 3FBA                                    ??_main 052F  
                           main@blueMode1 058D                             main@blueMode2 057D  
                           main@blueMode3 0580                             main@blueMode4 0583  
                           __activetblptr 000003                                    _ADACCH 0003E4  
                                  _ADACCL 0003E3                                    _ADACCU 0003E5  
                                  _ADACQH 0003EF                                    _ADACQL 0003EE  
                                  _ADCON0 0003F3                                    _ADCON1 0003F4  
                                  _ADCON2 0003F5                                    _ADCON3 0003F6  
                                  _ADERRH 0003DE                                    _ADERRL 0003DD  
                                  _ADLTHH 0003DA                                    _ACTCON 0000AC  
                                  _ADLTHL 0003D9                                    _ADRESH 0003EB  
                                  _ADRESL 0003EA                                    _ADPREH 0003F2  
                                  _ADPREL 0003F1                                    _ADSTAT 0003F7  
                                  _ADUTHH 0003DC                                    _ADUTHL 0003DB  
                                  _ANSELA 000400                                    _ANSELB 000408  
                                  _ANSELC 000410                                    _RB4PPS 00020D  
                                  _RB6PPS 00020F                                    _ODCONA 000402  
                                  _ODCONB 00040A                                    _ODCONC 000412  
                                  i2l1530 3E2C                                    i2l1532 3E3E  
                                  i2l1706 3FD6                                    i2l1708 3FD8  
                                  i2l1486 3F14                                    i2l1488 3F2C  
                                  i2l1930 3E66                                    i2l1932 3E74  
                                  i2l1928 3E58                                    _INLVLA 000404  
                                  _INLVLB 00040C                                    _INLVLC 000414  
                                  _TABLAT 0004F5                                    _OSCFRQ 0000B1  
                                  i2u9_40 3F2C                                    i2u9_41 3F28  
   __end_of_ADCC_DischargeSampleCapacitor 3FD6    __size_of_ADCC_DischargeSampleCapacitor 0008  
           _ADCC_DischargeSampleCapacitor 3FCE                            ?_LED_WriteFull 0507  
                       __end_of_SPI1_Open 3A06                                    ___lmul 3BEE  
                               ??___aldiv 0515                __end_of_LOOPDELAY_TimerISR 3F32  
                                  clear_0 3E80                          __end_of_onePulse 3F14  
                 __end_of_DATAEE_ReadByte 3FBA                           _ADCC_Initialize 3D1E  
                          _PMD_Initialize 3F32                             main@timeout5s 0560  
                            __mediumconst 0000                                    tblptrh 0004F7  
                                  tblptrl 0004F6                                    tblptru 0004F8  
       __size_of_ADCC_GetSingleConversion 0032                 ?_ADCC_GetSingleConversion 0501  
TMR2_SetInterruptHandler@InterruptHandler 0501                        LED_WriteFull@green 0507  
           __size_of_INTERRUPT_Initialize 0004                        LED_WriteFull@white 0509  
                       _SYSTEM_Initialize 3EBA                                __accesstop 0560  
                 __end_of__initialization 3E94                     __end_of_TMR2_CallBack 3E58  
                      ?_SYSTEM_Initialize 0501                             ___rparam_used 000001  
                          __pcstackCOMRAM 0501                       ??_SYSTEM_Initialize 0503  
                  __size_of_WS2812B_Write 001C                                 ?_TMR2_ISR 0501  
                        _DATAEE_WriteByte 3D7A                         ??_SPI1_Initialize 0501  
                        ?_TMR2_Initialize 0501                    __end_of_PMD_Initialize 3F4E  
                      _spi1_configuration 1601                 __end_of_SYSTEM_Initialize 3ED8  
                        LED_WriteFull@red 050D                                __pnvCOMRAM 053F  
                         ??_LED_WriteFull 050D                                   IVTBASEH 00045E  
                                 IVTBASEL 00045D                                   IVTBASEU 00045F  
          ?_ADCC_DischargeSampleCapacitor 0501                                   ?___lmul 0501  
                              ??_TMR2_ISR 0501                   __end_of_ADCC_Initialize 3D7A  
                                 _ADFLTRH 0003E2                                   _ADFLTRL 0003E1  
                          ___lmul@product 0509                                   _ADPREVH 0003E9  
                                 _ADPREVL 0003E8                                   _ADSTPTH 0003E0  
                                 _ADSTPTL 0003DF                           ?_PMD_Initialize 0501  
                          main@greenMode1 058C                            main@greenMode2 057C  
                          main@greenMode3 057F                            main@greenMode4 0582  
                   fp__LOOPDELAY_TimerISR 0000                          ?_DATAEE_ReadByte 0501  
                                 _OSCCON1 0000AD                                   _OSCCON3 0000AF  
                                 _TBLPTRH 0004F7                                   _TBLPTRL 0004F6  
                                 _SPI1CLK 00008C                                   _TBLPTRU 0004F8  
                                 i2u12_40 3E3E                                   i2u12_41 3E3A  
                                 i2u13_48 3E44                                   i2u13_49 3E56  
                                 i2u40_40 3E66                                   i2u40_41 3E62  
                                 i2u41_40 3E74                                   i2u41_41 3E70  
                              _arrayPlace 0536                                   _SPI1RXB 000080  
                                 _NVMADRH 000044                                   _NVMADRL 000043  
                                 _SPI1TXB 000081                                   _NVMADRU 000045  
                                 _OSCTUNE 0000B0                                   _NVMDATL 000046  
                                 _NVMLOCK 000042                                   _SLRCONA 000403  
                                 _SLRCONB 00040B                                   _SLRCONC 000413  
                           _WS2812B_Write 3F6A                        __size_of_zeroPulse 001E  
                    DATAEE_WriteByte@bAdd 0501                                 ?_onePulse 0501  
             __size_of_SPI1_ExchangeBlock 0060                   __size_of_LOOPDELAY_Init 000A  
                                 __Hparam 0000                   __size_of_LOOPDELAY_Wait 0020  
                                 __Lparam 0000                ??_TMR2_SetInterruptHandler 0503  
                                 ___aldiv 3820                           __size_of___lmul 006A  
                            __psmallconst 1600                                   __pcinit 3E7A  
                                 __ramtop 1600                                   __ptext0 1608  
                                 __ptext1 3B74                                   __ptext2 3BEE  
                                 __ptext3 3820                                   __ptext4 3EBA  
                                 __ptext5 3DFE                                   __ptext6 3FBA  
                                 __ptext7 3F86                                   __ptext8 3F32  
                                 __ptext9 3C58                     _OSCILLATOR_Initialize 3F4E  
                               _T2CONbits 00031E                              __size_of_map 007A  
                        ___aldiv@dividend 050D                  ??_PIN_MANAGER_Initialize 0501  
                               _T2HLTbits 00031F                            ?_WS2812B_Write 0502  
              __size_of_SYSTEM_Initialize 001E                                   main@red 058F  
                    end_of_initialization 3E94                                _loopTimeMS 053A  
                               _T2RSTbits 000321                            main@timeout10s 0563  
                              ??_onePulse 0501                            main@whiteMode1 058E  
                          main@whiteMode2 0584                            main@whiteMode3 0585  
                          main@whiteMode4 0586                                 _SPI1TCNTL 000082  
                        ___aldiv@quotient 0517                                   postinc0 0004EE  
                        ?_ADCC_Initialize 0501                                 _SPI1_Open 392C  
        __end_of_ADCC_GetSingleConversion 3DFE                         __end_of_zeroPulse 3EF6  
                               _PORTAbits 0004CE                                 _PORTBbits 0004CF  
                               _PORTCbits 0004D0                        main@led1StateBlink 056D  
                               _TRISBbits 0004C7                        _LOOPDELAY_TimerISR 3F14  
                      main@led2StateBlink 056E                  __end_of_DATAEE_WriteByte 3DCC  
                              map@out_max 052B                                map@out_min 0527  
                  SPI1_ExchangeBlock@data 0505                       ?_LOOPDELAY_TimerISR 0501  
                         _SPI1_Initialize 3F86                                main@redAdj 0573  
                      main@led3StateBlink 056F              __end_of_INTERRUPT_Initialize 3FE2  
    __end_of_TMR2_DefaultInterruptHandler 3FE4     __size_of_TMR2_DefaultInterruptHandler 0002  
            _TMR2_DefaultInterruptHandler 3FE2                        main@led4StateBlink 0570  
                              ?_SPI1_Open 0501                            __end_of___lmul 3C58  
                       __size_of_TMR2_ISR 0008                      ??_LOOPDELAY_TimerISR 0501  
                  ?_OSCILLATOR_Initialize 0501                           ??_WS2812B_Write 0505  
                     start_initialization 3E7A           __size_of_PIN_MANAGER_Initialize 0066  
                             __end_of_map 3BEE                                ivt0x8_base 0008  
                     DATAEE_ReadByte@bAdd 0501                            _LOOPDELAY_Init 3FC4  
                          _LOOPDELAY_Wait 3E9A                          ??_PMD_Initialize 0501  
                                ??___lmul 0509           fp__TMR2_DefaultInterruptHandler 0000  
           ?_TMR2_DefaultInterruptHandler 0501                         LED_WriteFull@blue 0508  
                _ADCC_GetSingleConversion 3DCC                    __size_of_TMR2_CallBack 002C  
                             __pbssCOMRAM 0536                             __pcstackBANK5 0560  
                __size_of_TMR2_Initialize 002E                   __end_of_SPI1_Initialize 3FA0  
                  __end_of_LOOPDELAY_Init 3FCE                    __end_of_LOOPDELAY_Wait 3EBA  
                   __end_of_LED_WriteFull 3B74                    _PIN_MANAGER_Initialize 3C58  
                           ?_ws_send_byte 0501                         __size_of_onePulse 001E  
                                ?___aldiv 050D           ADCC_GetSingleConversion@channel 0505  
                             ??_SPI1_Open 0501                                 _bufferRAM 001500  
                               _ledOutput 053E              ??_INTERRUPT_InterruptManager 0501  
                             __smallconst 1600                                  _T2CLKCON 000320  
                __size_of_DATAEE_ReadByte 001A                      _INTERRUPT_Initialize 3FDE  
              __end_of_SPI1_ExchangeBlock 3D1E                           ___aldiv@divisor 0511  
                         ___aldiv@counter 0515                           ?_LOOPDELAY_Init 0501  
                         ?_LOOPDELAY_Wait 0501                                  _LATAbits 0004BE  
                                _LATCbits 0004C0                             _TMR2_CallBack 3E2C  
                                _PIE3bits 0004AB                              _SPI1CON0bits 000084  
                          ??_ws_send_byte 0501       __size_of_INTERRUPT_InterruptManager 0022  
                                _PIR0bits 0004B3                                  _SPI1BAUD 000089  
                                _PIR3bits 0004B6                                  _SPI1CON0 000084  
                                _SPI1CON1 000085                                  _SPI1CON2 000086  
                                _TMR2_ISR 3FD6                                 map@in_max 0523  
                               map@in_min 051F                                _ADCON0bits 0003F3  
                              _ADCON1bits 0003F4                                _ADCON2bits 0003F5  
                              _ADCON3bits 0003F6                                 main@green 0590  
          ??_TMR2_DefaultInterruptHandler 0501         __size_of_TMR2_SetInterruptHandler 000A  
                               _zeroPulse 3ED8                                 main@state 0593  
                               main@white 0592                 ?_TMR2_SetInterruptHandler 0501  
                   DATAEE_WriteByte@bData 0503                          ?_SPI1_Initialize 0501  
                             _INTCON0bits 0004D6                         ___lmul@multiplier 0501  
                   ?_INTERRUPT_Initialize 0501                         ?_DATAEE_WriteByte 0501  
                       ??_TMR2_Initialize 0503                            ?_TMR2_CallBack 0501  
                      ??_DATAEE_WriteByte 0504                                _ADSTATbits 0003F7  
                                __Hrparam 0000                                  __Lrparam 0000  
                        main@timeout100ms 0562                          main@timeout250ms 0571  
                        main@timeout500ms 0572                             ws_send_byte@K 0501  
                 ??_OSCILLATOR_Initialize 0501                          __size_of___aldiv 010C  
                __size_of_ADCC_Initialize 005C                                ?_zeroPulse 0501  
                                __pivt0x8 0008                                  __ptext10 3F4E  
                                __ptext11 3FDE                                  __ptext20 3EF6  
                                __ptext12 3D1E                                  __ptext21 3CBE  
                                __ptext13 392C                                  __ptext30 3FE2  
                                __ptext22 3D7A                                  __ptext14 3E9A  
                                __ptext31 0000                                  __ptext23 3FA0  
                                __ptext15 3FC4                                  __ptext24 3DCC  
                                __ptext16 3ADA                                  __ptext25 3FCE  
                                __ptext17 3F6A                                  __ptext26 3E58  
                                __ptext18 3A06                                  __ptext27 3FD6  
                                __ptext19 3ED8                                  __ptext28 3E2C  
                                __ptext29 3F14               DATAEE_WriteByte@GIEBitValue 0504  
                           __size_of_main 2218                                  _onePulse 3EF6  
                       ??_DATAEE_ReadByte 0503                           main@taster1Flag 0577  
                         main@taster2Flag 0578                           main@taster3Flag 057A  
                         main@taster4Flag 0579                ??_ADCC_GetSingleConversion 0503  
      __end_of_INTERRUPT_InterruptManager 3E7A                _INTERRUPT_InterruptManager 3E58  
                                main@blue 0591               SPI1_ExchangeBlock@blockSize 0503  
             __size_of_LOOPDELAY_TimerISR 001E                               _loopTimeCnt 053C  
                             _NVMCON0bits 000040                               _NVMCON1bits 000041  
                    __end_of_ws_send_byte 3ADA                     __end_of_WS2812B_Write 3F86  
                  ??_INTERRUPT_Initialize 0501                                  intlevel2 0000  
                         ??_TMR2_CallBack 0501                   ?_PIN_MANAGER_Initialize 0501  
                              _SPI1SCKPPS 00026A                                _SPI1SDIPPS 00026B  
                   LED_WriteFull@ledcount 050A                               ??_zeroPulse 0501  
                            ___aldiv@sign 0516                          ??_LOOPDELAY_Init 0503  
                        ??_LOOPDELAY_Wait 0501            __end_of_PIN_MANAGER_Initialize 3CBE  
                       ??_ADCC_Initialize 0501                      LED_WriteFull@sizeArr 0511  
                   _TMR2_InterruptHandler 053F                __end_of_spi1_configuration 1606  
